---
triple:          'x86_64-apple-darwin'
binary-path:     '/Users/colinwareham/Desktop/Evolution/main'
relocations:
  - { offsetInCU: 0x3F, offset: 0x3F, size: 0x8, addend: 0x0, symName: _tickTime, symObjAddr: 0xC3A78, symBinAddr: 0x1000F0DF8, symSize: 0x0 }
  - { offsetInCU: 0x71, offset: 0x71, size: 0x8, addend: 0x0, symName: _drawSim, symObjAddr: 0x1DCF0, symBinAddr: 0x1000E8DF0, symSize: 0x0 }
  - { offsetInCU: 0x8D, offset: 0x8D, size: 0x8, addend: 0x0, symName: _sim, symObjAddr: 0xC3A80, symBinAddr: 0x1000F0E00, symSize: 0x0 }
  - { offsetInCU: 0xF9C6, offset: 0xF9C6, size: 0x8, addend: 0x0, symName: __ZNSt3__17advanceB7v160006INS_11__wrap_iterIPP6EntityEEllvEEvRT_T0_, symObjAddr: 0x13F10, symBinAddr: 0x100063FA0, symSize: 0x50 }
  - { offsetInCU: 0x11531, offset: 0x11531, size: 0x8, addend: 0x0, symName: __ZNSt3__1neB7v160006IPP4WallEEbRKNS_11__wrap_iterIT_EES8_, symObjAddr: 0x27F0, symBinAddr: 0x100052880, symSize: 0x30 }
  - { offsetInCU: 0x11574, offset: 0x11574, size: 0x8, addend: 0x0, symName: __ZNSt3__1neB7v160006IPP4FoodEEbRKNS_11__wrap_iterIT_EES8_, symObjAddr: 0x2960, symBinAddr: 0x1000529F0, symSize: 0x30 }
  - { offsetInCU: 0x115B7, offset: 0x115B7, size: 0x8, addend: 0x0, symName: __ZNSt3__119__debug_db_insert_cB7v160006INS_6vectorIP6EntityNS_9allocatorIS3_EEEEEEvPT_, symObjAddr: 0x38D0, symBinAddr: 0x100053960, symSize: 0x10 }
  - { offsetInCU: 0x115E8, offset: 0x115E8, size: 0x8, addend: 0x0, symName: __ZNSt3__119__debug_db_insert_cB7v160006INS_6vectorIP4FoodNS_9allocatorIS3_EEEEEEvPT_, symObjAddr: 0x3A20, symBinAddr: 0x100053AB0, symSize: 0x10 }
  - { offsetInCU: 0x11619, offset: 0x11619, size: 0x8, addend: 0x0, symName: __ZNSt3__119__debug_db_insert_cB7v160006INS_6vectorIP6NeuronNS_9allocatorIS3_EEEEEEvPT_, symObjAddr: 0x3B70, symBinAddr: 0x100053C00, symSize: 0x10 }
  - { offsetInCU: 0x1164A, offset: 0x1164A, size: 0x8, addend: 0x0, symName: __ZNSt3__119__debug_db_insert_cB7v160006INS_6vectorIP6WeightNS_9allocatorIS3_EEEEEEvPT_, symObjAddr: 0x3CC0, symBinAddr: 0x100053D50, symSize: 0x10 }
  - { offsetInCU: 0x1167B, offset: 0x1167B, size: 0x8, addend: 0x0, symName: __ZNSt3__119__debug_db_insert_cB7v160006INS_6vectorIP4WallNS_9allocatorIS3_EEEEEEvPT_, symObjAddr: 0x3E10, symBinAddr: 0x100053EA0, symSize: 0x10 }
  - { offsetInCU: 0x116AC, offset: 0x116AC, size: 0x8, addend: 0x0, symName: __ZNSt3__110make_tupleB7v160006IJDniEEENS_5tupleIJDpNS_18__unwrap_ref_decayIT_E4typeEEEEDpOS3_, symObjAddr: 0x44D0, symBinAddr: 0x100054560, symSize: 0x30 }
  - { offsetInCU: 0x11BF5, offset: 0x11BF5, size: 0x8, addend: 0x0, symName: __ZNSt3__127__memberwise_forward_assignB7v160006INS_5tupleIJP6EntityfEEENS1_IJDniEEEJDniEJLm0ELm1EEEEvRT_OT0_NS_13__tuple_typesIJDpT1_EEENS_15__tuple_indicesIJXspT2_EEEE, symObjAddr: 0x49E0, symBinAddr: 0x100054A70, symSize: 0x70 }
  - { offsetInCU: 0x11C78, offset: 0x11C78, size: 0x8, addend: 0x0, symName: __ZNSt3__19__swallowB7v160006IJiiEEEvDpOT_, symObjAddr: 0x4A50, symBinAddr: 0x100054AE0, symSize: 0x10 }
  - { offsetInCU: 0x11CB9, offset: 0x11CB9, size: 0x8, addend: 0x0, symName: __ZNSt3__13getB7v160006ILm0EJDniEEERNS_13tuple_elementIXT_ENS_5tupleIJDpT0_EEEE4typeERS5_, symObjAddr: 0x4A60, symBinAddr: 0x100054AF0, symSize: 0x20 }
  - { offsetInCU: 0x11D00, offset: 0x11D00, size: 0x8, addend: 0x0, symName: __ZNSt3__13getB7v160006ILm0EJP6EntityfEEERNS_13tuple_elementIXT_ENS_5tupleIJDpT0_EEEE4typeERS7_, symObjAddr: 0x4A80, symBinAddr: 0x100054B10, symSize: 0x20 }
  - { offsetInCU: 0x11D47, offset: 0x11D47, size: 0x8, addend: 0x0, symName: __ZNSt3__13getB7v160006ILm1EJDniEEERNS_13tuple_elementIXT_ENS_5tupleIJDpT0_EEEE4typeERS5_, symObjAddr: 0x4AA0, symBinAddr: 0x100054B30, symSize: 0x20 }
  - { offsetInCU: 0x11D8E, offset: 0x11D8E, size: 0x8, addend: 0x0, symName: __ZNSt3__13getB7v160006ILm1EJP6EntityfEEERNS_13tuple_elementIXT_ENS_5tupleIJDpT0_EEEE4typeERS7_, symObjAddr: 0x4AC0, symBinAddr: 0x100054B50, symSize: 0x20 }
  - { offsetInCU: 0x11DD6, offset: 0x11DD6, size: 0x8, addend: 0x0, symName: __ZNSt3__127__memberwise_forward_assignB7v160006INS_5tupleIJP4WallfEEENS1_IJDniEEEJDniEJLm0ELm1EEEEvRT_OT0_NS_13__tuple_typesIJDpT1_EEENS_15__tuple_indicesIJXspT2_EEEE, symObjAddr: 0x4B20, symBinAddr: 0x100054BB0, symSize: 0x70 }
  - { offsetInCU: 0x11E59, offset: 0x11E59, size: 0x8, addend: 0x0, symName: __ZNSt3__13getB7v160006ILm0EJP4WallfEEERNS_13tuple_elementIXT_ENS_5tupleIJDpT0_EEEE4typeERS7_, symObjAddr: 0x4B90, symBinAddr: 0x100054C20, symSize: 0x20 }
  - { offsetInCU: 0x11EA1, offset: 0x11EA1, size: 0x8, addend: 0x0, symName: __ZNSt3__13getB7v160006ILm1EJP4WallfEEERNS_13tuple_elementIXT_ENS_5tupleIJDpT0_EEEE4typeERS7_, symObjAddr: 0x4BB0, symBinAddr: 0x100054C40, symSize: 0x20 }
  - { offsetInCU: 0x11EE9, offset: 0x11EE9, size: 0x8, addend: 0x0, symName: __ZNSt3__127__memberwise_forward_assignB7v160006INS_5tupleIJP4FoodfEEENS1_IJDniEEEJDniEJLm0ELm1EEEEvRT_OT0_NS_13__tuple_typesIJDpT1_EEENS_15__tuple_indicesIJXspT2_EEEE, symObjAddr: 0x4BE0, symBinAddr: 0x100054C70, symSize: 0x70 }
  - { offsetInCU: 0x11F6C, offset: 0x11F6C, size: 0x8, addend: 0x0, symName: __ZNSt3__13getB7v160006ILm0EJP4FoodfEEERNS_13tuple_elementIXT_ENS_5tupleIJDpT0_EEEE4typeERS7_, symObjAddr: 0x4C50, symBinAddr: 0x100054CE0, symSize: 0x20 }
  - { offsetInCU: 0x11FB3, offset: 0x11FB3, size: 0x8, addend: 0x0, symName: __ZNSt3__13getB7v160006ILm1EJP4FoodfEEERNS_13tuple_elementIXT_ENS_5tupleIJDpT0_EEEE4typeERS7_, symObjAddr: 0x4C70, symBinAddr: 0x100054D00, symSize: 0x20 }
  - { offsetInCU: 0x11FFB, offset: 0x11FFB, size: 0x8, addend: 0x0, symName: __ZNSt3__119__debug_db_insert_cB7v160006INS_6vectorINS1_IP6NeuronNS_9allocatorIS3_EEEENS4_IS6_EEEEEEvPT_, symObjAddr: 0x5470, symBinAddr: 0x100055500, symSize: 0x10 }
  - { offsetInCU: 0x1202C, offset: 0x1202C, size: 0x8, addend: 0x0, symName: __ZNSt3__112__to_addressB7v160006IP6NeuronEEPT_S4_, symObjAddr: 0x5AF0, symBinAddr: 0x100055B80, symSize: 0x10 }
  - { offsetInCU: 0x12061, offset: 0x12061, size: 0x8, addend: 0x0, symName: __ZNSt3__13maxB7v160006ImEERKT_S3_S3_, symObjAddr: 0x5ED0, symBinAddr: 0x100055F60, symSize: 0x30 }
  - { offsetInCU: 0x120A4, offset: 0x120A4, size: 0x8, addend: 0x0, symName: __ZNSt3__13minB7v160006ImEERKT_S3_S3_, symObjAddr: 0x5F00, symBinAddr: 0x100055F90, symSize: 0x30 }
  - { offsetInCU: 0x122E8, offset: 0x122E8, size: 0x8, addend: 0x0, symName: __ZNSt3__13minB7v160006ImNS_6__lessImmEEEERKT_S5_S5_T0_, symObjAddr: 0x5F80, symBinAddr: 0x100056010, symSize: 0x50 }
  - { offsetInCU: 0x1237D, offset: 0x1237D, size: 0x8, addend: 0x0, symName: __ZNSt3__120__throw_length_errorB7v160006EPKc, symObjAddr: 0x6060, symBinAddr: 0x1000560F0, symSize: 0x70 }
  - { offsetInCU: 0x123A5, offset: 0x123A5, size: 0x8, addend: 0x0, symName: __ZNSt3__13maxB7v160006ImNS_6__lessImmEEEERKT_S5_S5_T0_, symObjAddr: 0x6190, symBinAddr: 0x100056220, symSize: 0x50 }
  - { offsetInCU: 0x123FF, offset: 0x123FF, size: 0x8, addend: 0x0, symName: __ZNSt3__119__allocate_at_leastB7v160006INS_9allocatorIP6NeuronEEEENS_19__allocation_resultINS_16allocator_traitsIT_E7pointerEEERS7_m, symObjAddr: 0x62E0, symBinAddr: 0x100056370, symSize: 0x40 }
  - { offsetInCU: 0x12442, offset: 0x12442, size: 0x8, addend: 0x0, symName: __ZNSt3__117__libcpp_allocateB7v160006Emm, symObjAddr: 0x6450, symBinAddr: 0x1000564E0, symSize: 0x20 }
  - { offsetInCU: 0x1247F, offset: 0x1247F, size: 0x8, addend: 0x0, symName: __ZNSt3__121__libcpp_operator_newB7v160006IJmEEEPvDpT_, symObjAddr: 0x6470, symBinAddr: 0x100056500, symSize: 0x20 }
  - { offsetInCU: 0x124B8, offset: 0x124B8, size: 0x8, addend: 0x0, symName: __ZNSt3__142__uninitialized_allocator_move_if_noexceptB7v160006INS_9allocatorIP6NeuronEENS_16reverse_iteratorIPS3_EES7_S3_vEET1_RT_T0_SB_S8_, symObjAddr: 0x65A0, symBinAddr: 0x100056630, symSize: 0x70 }
  - { offsetInCU: 0x12534, offset: 0x12534, size: 0x8, addend: 0x0, symName: __ZNSt3__14swapB7v160006IPP6NeuronEENS_9enable_ifIXaasr21is_move_constructibleIT_EE5valuesr18is_move_assignableIS5_EE5valueEvE4typeERS5_S8_, symObjAddr: 0x6660, symBinAddr: 0x1000566F0, symSize: 0x40 }
  - { offsetInCU: 0x12585, offset: 0x12585, size: 0x8, addend: 0x0, symName: __ZNSt3__125__debug_db_invalidate_allB7v160006INS_6vectorIP6NeuronNS_9allocatorIS3_EEEEEEvPT_, symObjAddr: 0x6750, symBinAddr: 0x1000567E0, symSize: 0x10 }
  - { offsetInCU: 0x125B6, offset: 0x125B6, size: 0x8, addend: 0x0, symName: __ZNSt3__14moveB7v160006INS_16reverse_iteratorIPP6NeuronEES5_EET0_T_S7_S6_, symObjAddr: 0x67A0, symBinAddr: 0x100056830, symSize: 0x80 }
  - { offsetInCU: 0x12610, offset: 0x12610, size: 0x8, addend: 0x0, symName: __ZNSt3__16__moveB7v160006INS_17_ClassicAlgPolicyENS_16reverse_iteratorIPP6NeuronEES6_S6_EENS_4pairIT0_T2_EES8_T1_S9_, symObjAddr: 0x6820, symBinAddr: 0x1000568B0, symSize: 0x90 }
  - { offsetInCU: 0x1267C, offset: 0x1267C, size: 0x8, addend: 0x0, symName: __ZNSt3__123__dispatch_copy_or_moveB7v160006INS_17_ClassicAlgPolicyENS_11__move_loopIS1_EENS_14__move_trivialENS_16reverse_iteratorIPP6NeuronEES9_S9_EENS_4pairIT2_T4_EESB_T3_SC_, symObjAddr: 0x68B0, symBinAddr: 0x100056940, symSize: 0x90 }
  - { offsetInCU: 0x126FA, offset: 0x126FA, size: 0x8, addend: 0x0, symName: __ZNSt3__121__unwrap_and_dispatchB7v160006INS_10__overloadINS_11__move_loopINS_17_ClassicAlgPolicyEEENS_14__move_trivialEEENS_16reverse_iteratorIPP6NeuronEESB_SB_Li0EEENS_4pairIT0_T2_EESD_T1_SE_, symObjAddr: 0x6940, symBinAddr: 0x1000569D0, symSize: 0x210 }
  - { offsetInCU: 0x12789, offset: 0x12789, size: 0x8, addend: 0x0, symName: __ZNSt3__114__unwrap_rangeB7v160006INS_16reverse_iteratorIPP6NeuronEES5_EENS_4pairIT0_S7_EET_S9_, symObjAddr: 0x6B50, symBinAddr: 0x100056BE0, symSize: 0x90 }
  - { offsetInCU: 0x12A3F, offset: 0x12A3F, size: 0x8, addend: 0x0, symName: __ZNSt3__113__unwrap_iterB7v160006INS_16reverse_iteratorIPP6NeuronEENS_18__unwrap_iter_implIS5_Lb0EEELi0EEEDTclsrT0_8__unwrapclsr3stdE7declvalIT_EEEES9_, symObjAddr: 0x6C80, symBinAddr: 0x100056D10, symSize: 0x40 }
  - { offsetInCU: 0x12A83, offset: 0x12A83, size: 0x8, addend: 0x0, symName: __ZNSt3__19make_pairB7v160006INS_16reverse_iteratorIPP6NeuronEES5_EENS_4pairINS_18__unwrap_ref_decayIT_E4typeENS7_IT0_E4typeEEEOS8_OSB_, symObjAddr: 0x6CC0, symBinAddr: 0x100056D50, symSize: 0x30 }
  - { offsetInCU: 0x12AD2, offset: 0x12AD2, size: 0x8, addend: 0x0, symName: __ZNSt3__114__rewrap_rangeB7v160006INS_16reverse_iteratorIPP6NeuronEES5_EET_S6_T0_, symObjAddr: 0x6CF0, symBinAddr: 0x100056D80, symSize: 0x60 }
  - { offsetInCU: 0x12B1E, offset: 0x12B1E, size: 0x8, addend: 0x0, symName: __ZNSt3__113__rewrap_iterB7v160006INS_16reverse_iteratorIPP6NeuronEES5_NS_18__unwrap_iter_implIS5_Lb0EEEEET_S8_T0_, symObjAddr: 0x6D50, symBinAddr: 0x100056DE0, symSize: 0x70 }
  - { offsetInCU: 0x12B73, offset: 0x12B73, size: 0x8, addend: 0x0, symName: __ZNSt3__1neB7v160006IPP6NeuronS3_EEbRKNS_16reverse_iteratorIT_EERKNS4_IT0_EE, symObjAddr: 0x6DC0, symBinAddr: 0x100056E50, symSize: 0x40 }
  - { offsetInCU: 0x12D70, offset: 0x12D70, size: 0x8, addend: 0x0, symName: __ZNSt3__119__libcpp_deallocateB7v160006EPvmm, symObjAddr: 0x7190, symBinAddr: 0x100057220, symSize: 0x30 }
  - { offsetInCU: 0x12DB8, offset: 0x12DB8, size: 0x8, addend: 0x0, symName: __ZNSt3__127__do_deallocate_handle_sizeB7v160006IJEEEvPvmDpT_, symObjAddr: 0x71C0, symBinAddr: 0x100057250, symSize: 0x20 }
  - { offsetInCU: 0x12DF6, offset: 0x12DF6, size: 0x8, addend: 0x0, symName: __ZNSt3__124__libcpp_operator_deleteB7v160006IJPvEEEvDpT_, symObjAddr: 0x71E0, symBinAddr: 0x100057270, symSize: 0x20 }
  - { offsetInCU: 0x12E2B, offset: 0x12E2B, size: 0x8, addend: 0x0, symName: __ZNSt3__112__to_addressB7v160006INS_6vectorIP6NeuronNS_9allocatorIS3_EEEEEEPT_S8_, symObjAddr: 0x7470, symBinAddr: 0x100057500, symSize: 0x10 }
  - { offsetInCU: 0x12E60, offset: 0x12E60, size: 0x8, addend: 0x0, symName: __ZNSt3__122__make_exception_guardB7v160006INS_6vectorIP6NeuronNS_9allocatorIS3_EEE16__destroy_vectorEEENS_28__exception_guard_exceptionsIT_EES9_, symObjAddr: 0x7690, symBinAddr: 0x100057720, symSize: 0x40 }
  - { offsetInCU: 0x12E95, offset: 0x12E95, size: 0x8, addend: 0x0, symName: __ZNSt3__130__uninitialized_allocator_copyB7v160006INS_9allocatorIP6NeuronEEPS3_S5_S5_EET2_RT_T0_T1_S6_, symObjAddr: 0x7930, symBinAddr: 0x1000579C0, symSize: 0x100 }
  - { offsetInCU: 0x12F33, offset: 0x12F33, size: 0x8, addend: 0x0, symName: __ZNSt3__122__make_exception_guardB7v160006INS_29_AllocatorDestroyRangeReverseINS_9allocatorIP6NeuronEEPS4_EEEENS_28__exception_guard_exceptionsIT_EES9_, symObjAddr: 0x7A30, symBinAddr: 0x100057AC0, symSize: 0x60 }
  - { offsetInCU: 0x12F68, offset: 0x12F68, size: 0x8, addend: 0x0, symName: __ZNSt3__119__allocator_destroyB7v160006INS_9allocatorIP6NeuronEENS_16reverse_iteratorIPS3_EES7_EEvRT_T0_T1_, symObjAddr: 0x7CB0, symBinAddr: 0x100057D40, symSize: 0x70 }
  - { offsetInCU: 0x12FCB, offset: 0x12FCB, size: 0x8, addend: 0x0, symName: __ZNSt3__112__to_addressB7v160006INS_16reverse_iteratorIPP6NeuronEEvEENS_5decayIDTclsr19__to_address_helperIT_EE6__callclsr3stdE7declvalIRKS7_EEEEE4typeES9_, symObjAddr: 0x7D20, symBinAddr: 0x100057DB0, symSize: 0x20 }
  - { offsetInCU: 0x1302A, offset: 0x1302A, size: 0x8, addend: 0x0, symName: __ZNSt3__118__debug_db_erase_cB7v160006INS_6vectorIP6NeuronNS_9allocatorIS3_EEEEEEvPT_, symObjAddr: 0x7E70, symBinAddr: 0x100057F00, symSize: 0x10 }
  - { offsetInCU: 0x1305B, offset: 0x1305B, size: 0x8, addend: 0x0, symName: __ZNSt3__119__allocate_at_leastB7v160006INS_9allocatorINS_6vectorIP6NeuronNS1_IS4_EEEEEEEENS_19__allocation_resultINS_16allocator_traitsIT_E7pointerEEERSA_m, symObjAddr: 0x8460, symBinAddr: 0x1000584F0, symSize: 0x40 }
  - { offsetInCU: 0x1309E, offset: 0x1309E, size: 0x8, addend: 0x0, symName: __ZNSt3__142__uninitialized_allocator_move_if_noexceptB7v160006INS_9allocatorINS_6vectorIP6NeuronNS1_IS4_EEEEEENS_16reverse_iteratorIPS6_EESA_SA_EET2_RT_T0_T1_SB_, symObjAddr: 0x86A0, symBinAddr: 0x100058730, symSize: 0x180 }
  - { offsetInCU: 0x1313D, offset: 0x1313D, size: 0x8, addend: 0x0, symName: __ZNSt3__14swapB7v160006IPNS_6vectorIP6NeuronNS_9allocatorIS3_EEEEEENS_9enable_ifIXaasr21is_move_constructibleIT_EE5valuesr18is_move_assignableIS9_EE5valueEvE4typeERS9_SC_, symObjAddr: 0x8870, symBinAddr: 0x100058900, symSize: 0x40 }
  - { offsetInCU: 0x1318E, offset: 0x1318E, size: 0x8, addend: 0x0, symName: __ZNSt3__125__debug_db_invalidate_allB7v160006INS_6vectorINS1_IP6NeuronNS_9allocatorIS3_EEEENS4_IS6_EEEEEEvPT_, symObjAddr: 0x8950, symBinAddr: 0x1000589E0, symSize: 0x10 }
  - { offsetInCU: 0x131BF, offset: 0x131BF, size: 0x8, addend: 0x0, symName: __ZNSt3__122__make_exception_guardB7v160006INS_29_AllocatorDestroyRangeReverseINS_9allocatorINS_6vectorIP6NeuronNS2_IS5_EEEEEENS_16reverse_iteratorIPS7_EEEEEENS_28__exception_guard_exceptionsIT_EESE_, symObjAddr: 0x89A0, symBinAddr: 0x100058A30, symSize: 0x60 }
  - { offsetInCU: 0x131F4, offset: 0x131F4, size: 0x8, addend: 0x0, symName: __ZNSt3__1neB7v160006IPNS_6vectorIP6NeuronNS_9allocatorIS3_EEEES7_EEbRKNS_16reverse_iteratorIT_EERKNS8_IT0_EE, symObjAddr: 0x8A40, symBinAddr: 0x100058AD0, symSize: 0x40 }
  - { offsetInCU: 0x13240, offset: 0x13240, size: 0x8, addend: 0x0, symName: __ZNSt3__112__to_addressB7v160006INS_16reverse_iteratorIPNS_6vectorIP6NeuronNS_9allocatorIS4_EEEEEEvEENS_5decayIDTclsr19__to_address_helperIT_EE6__callclsr3stdE7declvalIRKSB_EEEEE4typeESD_, symObjAddr: 0x8AB0, symBinAddr: 0x100058B40, symSize: 0x20 }
  - { offsetInCU: 0x13276, offset: 0x13276, size: 0x8, addend: 0x0, symName: __ZNSt3__115__debug_db_swapB7v160006INS_6vectorIP6NeuronNS_9allocatorIS3_EEEEEEvPT_S8_, symObjAddr: 0x8D50, symBinAddr: 0x100058DE0, symSize: 0x10 }
  - { offsetInCU: 0x132DE, offset: 0x132DE, size: 0x8, addend: 0x0, symName: __ZNSt3__119__allocator_destroyB7v160006INS_9allocatorINS_6vectorIP6NeuronNS1_IS4_EEEEEENS_16reverse_iteratorINS8_IPS6_EEEESB_EEvRT_T0_T1_, symObjAddr: 0x8EF0, symBinAddr: 0x100058F80, symSize: 0x70 }
  - { offsetInCU: 0x13341, offset: 0x13341, size: 0x8, addend: 0x0, symName: __ZNSt3__1neB7v160006INS_16reverse_iteratorIPNS_6vectorIP6NeuronNS_9allocatorIS4_EEEEEES9_EEbRKNS1_IT_EERKNS1_IT0_EE, symObjAddr: 0x8F90, symBinAddr: 0x100059020, symSize: 0x50 }
  - { offsetInCU: 0x1338D, offset: 0x1338D, size: 0x8, addend: 0x0, symName: __ZNSt3__112__to_addressB7v160006INS_16reverse_iteratorINS1_IPNS_6vectorIP6NeuronNS_9allocatorIS4_EEEEEEEEvEENS_5decayIDTclsr19__to_address_helperIT_EE6__callclsr3stdE7declvalIRKSC_EEEEE4typeESE_, symObjAddr: 0x9010, symBinAddr: 0x1000590A0, symSize: 0x20 }
  - { offsetInCU: 0x1359B, offset: 0x1359B, size: 0x8, addend: 0x0, symName: __ZNSt3__118generate_canonicalB7v160006IfLm24ENS_23mersenne_twister_engineIjLm32ELm624ELm397ELm31ELj2567483615ELm11ELj4294967295ELm7ELj2636928640ELm15ELj4022730752ELm18ELj1812433253EEEEET_RT1_, symObjAddr: 0x96B0, symBinAddr: 0x100059740, symSize: 0x100 }
  - { offsetInCU: 0x13685, offset: 0x13685, size: 0x8, addend: 0x0, symName: __ZNSt3__112__to_addressB7v160006IP6WeightEEPT_S4_, symObjAddr: 0x9BE0, symBinAddr: 0x100059C70, symSize: 0x10 }
  - { offsetInCU: 0x136BA, offset: 0x136BA, size: 0x8, addend: 0x0, symName: __ZNSt3__119__allocate_at_leastB7v160006INS_9allocatorIP6WeightEEEENS_19__allocation_resultINS_16allocator_traitsIT_E7pointerEEERS7_m, symObjAddr: 0xA1A0, symBinAddr: 0x10005A230, symSize: 0x40 }
  - { offsetInCU: 0x136FD, offset: 0x136FD, size: 0x8, addend: 0x0, symName: __ZNSt3__142__uninitialized_allocator_move_if_noexceptB7v160006INS_9allocatorIP6WeightEENS_16reverse_iteratorIPS3_EES7_S3_vEET1_RT_T0_SB_S8_, symObjAddr: 0xA3E0, symBinAddr: 0x10005A470, symSize: 0x70 }
  - { offsetInCU: 0x13779, offset: 0x13779, size: 0x8, addend: 0x0, symName: __ZNSt3__14swapB7v160006IPP6WeightEENS_9enable_ifIXaasr21is_move_constructibleIT_EE5valuesr18is_move_assignableIS5_EE5valueEvE4typeERS5_S8_, symObjAddr: 0xA4A0, symBinAddr: 0x10005A530, symSize: 0x40 }
  - { offsetInCU: 0x137CA, offset: 0x137CA, size: 0x8, addend: 0x0, symName: __ZNSt3__125__debug_db_invalidate_allB7v160006INS_6vectorIP6WeightNS_9allocatorIS3_EEEEEEvPT_, symObjAddr: 0xA590, symBinAddr: 0x10005A620, symSize: 0x10 }
  - { offsetInCU: 0x137FB, offset: 0x137FB, size: 0x8, addend: 0x0, symName: __ZNSt3__14moveB7v160006INS_16reverse_iteratorIPP6WeightEES5_EET0_T_S7_S6_, symObjAddr: 0xA5E0, symBinAddr: 0x10005A670, symSize: 0x80 }
  - { offsetInCU: 0x13855, offset: 0x13855, size: 0x8, addend: 0x0, symName: __ZNSt3__16__moveB7v160006INS_17_ClassicAlgPolicyENS_16reverse_iteratorIPP6WeightEES6_S6_EENS_4pairIT0_T2_EES8_T1_S9_, symObjAddr: 0xA660, symBinAddr: 0x10005A6F0, symSize: 0x90 }
  - { offsetInCU: 0x138C1, offset: 0x138C1, size: 0x8, addend: 0x0, symName: __ZNSt3__123__dispatch_copy_or_moveB7v160006INS_17_ClassicAlgPolicyENS_11__move_loopIS1_EENS_14__move_trivialENS_16reverse_iteratorIPP6WeightEES9_S9_EENS_4pairIT2_T4_EESB_T3_SC_, symObjAddr: 0xA6F0, symBinAddr: 0x10005A780, symSize: 0x90 }
  - { offsetInCU: 0x1393F, offset: 0x1393F, size: 0x8, addend: 0x0, symName: __ZNSt3__121__unwrap_and_dispatchB7v160006INS_10__overloadINS_11__move_loopINS_17_ClassicAlgPolicyEEENS_14__move_trivialEEENS_16reverse_iteratorIPP6WeightEESB_SB_Li0EEENS_4pairIT0_T2_EESD_T1_SE_, symObjAddr: 0xA780, symBinAddr: 0x10005A810, symSize: 0x210 }
  - { offsetInCU: 0x139CE, offset: 0x139CE, size: 0x8, addend: 0x0, symName: __ZNSt3__114__unwrap_rangeB7v160006INS_16reverse_iteratorIPP6WeightEES5_EENS_4pairIT0_S7_EET_S9_, symObjAddr: 0xA990, symBinAddr: 0x10005AA20, symSize: 0x90 }
  - { offsetInCU: 0x13AEE, offset: 0x13AEE, size: 0x8, addend: 0x0, symName: __ZNSt3__113__unwrap_iterB7v160006INS_16reverse_iteratorIPP6WeightEENS_18__unwrap_iter_implIS5_Lb0EEELi0EEEDTclsrT0_8__unwrapclsr3stdE7declvalIT_EEEES9_, symObjAddr: 0xAAC0, symBinAddr: 0x10005AB50, symSize: 0x40 }
  - { offsetInCU: 0x13B32, offset: 0x13B32, size: 0x8, addend: 0x0, symName: __ZNSt3__19make_pairB7v160006INS_16reverse_iteratorIPP6WeightEES5_EENS_4pairINS_18__unwrap_ref_decayIT_E4typeENS7_IT0_E4typeEEEOS8_OSB_, symObjAddr: 0xAB00, symBinAddr: 0x10005AB90, symSize: 0x30 }
  - { offsetInCU: 0x13B81, offset: 0x13B81, size: 0x8, addend: 0x0, symName: __ZNSt3__114__rewrap_rangeB7v160006INS_16reverse_iteratorIPP6WeightEES5_EET_S6_T0_, symObjAddr: 0xAB30, symBinAddr: 0x10005ABC0, symSize: 0x60 }
  - { offsetInCU: 0x13BCD, offset: 0x13BCD, size: 0x8, addend: 0x0, symName: __ZNSt3__113__rewrap_iterB7v160006INS_16reverse_iteratorIPP6WeightEES5_NS_18__unwrap_iter_implIS5_Lb0EEEEET_S8_T0_, symObjAddr: 0xAB90, symBinAddr: 0x10005AC20, symSize: 0x70 }
  - { offsetInCU: 0x13C22, offset: 0x13C22, size: 0x8, addend: 0x0, symName: __ZNSt3__1neB7v160006IPP6WeightS3_EEbRKNS_16reverse_iteratorIT_EERKNS4_IT0_EE, symObjAddr: 0xAC00, symBinAddr: 0x10005AC90, symSize: 0x40 }
  - { offsetInCU: 0x13CDA, offset: 0x13CDA, size: 0x8, addend: 0x0, symName: __ZNSt3__118__debug_db_erase_cB7v160006INS_6vectorINS1_IP6NeuronNS_9allocatorIS3_EEEENS4_IS6_EEEEEEvPT_, symObjAddr: 0xB130, symBinAddr: 0x10005B1C0, symSize: 0x10 }
  - { offsetInCU: 0x13D0B, offset: 0x13D0B, size: 0x8, addend: 0x0, symName: __ZNSt3__119__debug_db_insert_cB7v160006INS_12basic_stringIcNS_11char_traitsIcEENS_9allocatorIcEEEEEEvPT_, symObjAddr: 0xB2D0, symBinAddr: 0x10005B360, symSize: 0x10 }
  - { offsetInCU: 0x13D3C, offset: 0x13D3C, size: 0x8, addend: 0x0, symName: __ZNSt3__118__constexpr_strlenB7v160006EPKc, symObjAddr: 0xB370, symBinAddr: 0x10005B400, symSize: 0x20 }
  - { offsetInCU: 0x13D68, offset: 0x13D68, size: 0x8, addend: 0x0, symName: __ZNSt3__113__countl_zeroB7v160006IjEEiT_, symObjAddr: 0xB6D0, symBinAddr: 0x10005B760, symSize: 0x40 }
  - { offsetInCU: 0x13D9D, offset: 0x13D9D, size: 0x8, addend: 0x0, symName: __ZNSt3__112__libcpp_clzB7v160006Ej, symObjAddr: 0xB920, symBinAddr: 0x10005B9B0, symSize: 0x20 }
  - { offsetInCU: 0x13DC9, offset: 0x13DC9, size: 0x8, addend: 0x0, symName: __ZNSt3__112__to_addressB7v160006IP6EntityEEPT_S4_, symObjAddr: 0xBB80, symBinAddr: 0x10005BC10, symSize: 0x10 }
  - { offsetInCU: 0x13DFE, offset: 0x13DFE, size: 0x8, addend: 0x0, symName: __ZNSt3__119__allocate_at_leastB7v160006INS_9allocatorIP6EntityEEEENS_19__allocation_resultINS_16allocator_traitsIT_E7pointerEEERS7_m, symObjAddr: 0xC120, symBinAddr: 0x10005C1B0, symSize: 0x40 }
  - { offsetInCU: 0x13E41, offset: 0x13E41, size: 0x8, addend: 0x0, symName: __ZNSt3__142__uninitialized_allocator_move_if_noexceptB7v160006INS_9allocatorIP6EntityEENS_16reverse_iteratorIPS3_EES7_S3_vEET1_RT_T0_SB_S8_, symObjAddr: 0xC360, symBinAddr: 0x10005C3F0, symSize: 0x70 }
  - { offsetInCU: 0x13EBD, offset: 0x13EBD, size: 0x8, addend: 0x0, symName: __ZNSt3__14swapB7v160006IPP6EntityEENS_9enable_ifIXaasr21is_move_constructibleIT_EE5valuesr18is_move_assignableIS5_EE5valueEvE4typeERS5_S8_, symObjAddr: 0xC420, symBinAddr: 0x10005C4B0, symSize: 0x40 }
  - { offsetInCU: 0x13F0E, offset: 0x13F0E, size: 0x8, addend: 0x0, symName: __ZNSt3__125__debug_db_invalidate_allB7v160006INS_6vectorIP6EntityNS_9allocatorIS3_EEEEEEvPT_, symObjAddr: 0xC510, symBinAddr: 0x10005C5A0, symSize: 0x10 }
  - { offsetInCU: 0x13F3F, offset: 0x13F3F, size: 0x8, addend: 0x0, symName: __ZNSt3__14moveB7v160006INS_16reverse_iteratorIPP6EntityEES5_EET0_T_S7_S6_, symObjAddr: 0xC560, symBinAddr: 0x10005C5F0, symSize: 0x80 }
  - { offsetInCU: 0x13F99, offset: 0x13F99, size: 0x8, addend: 0x0, symName: __ZNSt3__16__moveB7v160006INS_17_ClassicAlgPolicyENS_16reverse_iteratorIPP6EntityEES6_S6_EENS_4pairIT0_T2_EES8_T1_S9_, symObjAddr: 0xC5E0, symBinAddr: 0x10005C670, symSize: 0x90 }
  - { offsetInCU: 0x14005, offset: 0x14005, size: 0x8, addend: 0x0, symName: __ZNSt3__123__dispatch_copy_or_moveB7v160006INS_17_ClassicAlgPolicyENS_11__move_loopIS1_EENS_14__move_trivialENS_16reverse_iteratorIPP6EntityEES9_S9_EENS_4pairIT2_T4_EESB_T3_SC_, symObjAddr: 0xC670, symBinAddr: 0x10005C700, symSize: 0x90 }
  - { offsetInCU: 0x14083, offset: 0x14083, size: 0x8, addend: 0x0, symName: __ZNSt3__121__unwrap_and_dispatchB7v160006INS_10__overloadINS_11__move_loopINS_17_ClassicAlgPolicyEEENS_14__move_trivialEEENS_16reverse_iteratorIPP6EntityEESB_SB_Li0EEENS_4pairIT0_T2_EESD_T1_SE_, symObjAddr: 0xC700, symBinAddr: 0x10005C790, symSize: 0x210 }
  - { offsetInCU: 0x14112, offset: 0x14112, size: 0x8, addend: 0x0, symName: __ZNSt3__114__unwrap_rangeB7v160006INS_16reverse_iteratorIPP6EntityEES5_EENS_4pairIT0_S7_EET_S9_, symObjAddr: 0xC910, symBinAddr: 0x10005C9A0, symSize: 0x90 }
  - { offsetInCU: 0x14232, offset: 0x14232, size: 0x8, addend: 0x0, symName: __ZNSt3__113__unwrap_iterB7v160006INS_16reverse_iteratorIPP6EntityEENS_18__unwrap_iter_implIS5_Lb0EEELi0EEEDTclsrT0_8__unwrapclsr3stdE7declvalIT_EEEES9_, symObjAddr: 0xCA40, symBinAddr: 0x10005CAD0, symSize: 0x40 }
  - { offsetInCU: 0x14276, offset: 0x14276, size: 0x8, addend: 0x0, symName: __ZNSt3__19make_pairB7v160006INS_16reverse_iteratorIPP6EntityEES5_EENS_4pairINS_18__unwrap_ref_decayIT_E4typeENS7_IT0_E4typeEEEOS8_OSB_, symObjAddr: 0xCA80, symBinAddr: 0x10005CB10, symSize: 0x30 }
  - { offsetInCU: 0x142C5, offset: 0x142C5, size: 0x8, addend: 0x0, symName: __ZNSt3__114__rewrap_rangeB7v160006INS_16reverse_iteratorIPP6EntityEES5_EET_S6_T0_, symObjAddr: 0xCAB0, symBinAddr: 0x10005CB40, symSize: 0x60 }
  - { offsetInCU: 0x14311, offset: 0x14311, size: 0x8, addend: 0x0, symName: __ZNSt3__113__rewrap_iterB7v160006INS_16reverse_iteratorIPP6EntityEES5_NS_18__unwrap_iter_implIS5_Lb0EEEEET_S8_T0_, symObjAddr: 0xCB10, symBinAddr: 0x10005CBA0, symSize: 0x70 }
  - { offsetInCU: 0x14366, offset: 0x14366, size: 0x8, addend: 0x0, symName: __ZNSt3__1neB7v160006IPP6EntityS3_EEbRKNS_16reverse_iteratorIT_EERKNS4_IT0_EE, symObjAddr: 0xCB80, symBinAddr: 0x10005CC10, symSize: 0x40 }
  - { offsetInCU: 0x1441E, offset: 0x1441E, size: 0x8, addend: 0x0, symName: __ZNSt3__112__to_addressB7v160006IP4FoodEEPT_S4_, symObjAddr: 0xD3B0, symBinAddr: 0x10005D440, symSize: 0x10 }
  - { offsetInCU: 0x14453, offset: 0x14453, size: 0x8, addend: 0x0, symName: __ZNSt3__119__allocate_at_leastB7v160006INS_9allocatorIP4FoodEEEENS_19__allocation_resultINS_16allocator_traitsIT_E7pointerEEERS7_m, symObjAddr: 0xD970, symBinAddr: 0x10005DA00, symSize: 0x40 }
  - { offsetInCU: 0x14496, offset: 0x14496, size: 0x8, addend: 0x0, symName: __ZNSt3__142__uninitialized_allocator_move_if_noexceptB7v160006INS_9allocatorIP4FoodEENS_16reverse_iteratorIPS3_EES7_S3_vEET1_RT_T0_SB_S8_, symObjAddr: 0xDBB0, symBinAddr: 0x10005DC40, symSize: 0x70 }
  - { offsetInCU: 0x14512, offset: 0x14512, size: 0x8, addend: 0x0, symName: __ZNSt3__14swapB7v160006IPP4FoodEENS_9enable_ifIXaasr21is_move_constructibleIT_EE5valuesr18is_move_assignableIS5_EE5valueEvE4typeERS5_S8_, symObjAddr: 0xDC70, symBinAddr: 0x10005DD00, symSize: 0x40 }
  - { offsetInCU: 0x14563, offset: 0x14563, size: 0x8, addend: 0x0, symName: __ZNSt3__125__debug_db_invalidate_allB7v160006INS_6vectorIP4FoodNS_9allocatorIS3_EEEEEEvPT_, symObjAddr: 0xDD60, symBinAddr: 0x10005DDF0, symSize: 0x10 }
  - { offsetInCU: 0x14594, offset: 0x14594, size: 0x8, addend: 0x0, symName: __ZNSt3__14moveB7v160006INS_16reverse_iteratorIPP4FoodEES5_EET0_T_S7_S6_, symObjAddr: 0xDDB0, symBinAddr: 0x10005DE40, symSize: 0x80 }
  - { offsetInCU: 0x145EE, offset: 0x145EE, size: 0x8, addend: 0x0, symName: __ZNSt3__16__moveB7v160006INS_17_ClassicAlgPolicyENS_16reverse_iteratorIPP4FoodEES6_S6_EENS_4pairIT0_T2_EES8_T1_S9_, symObjAddr: 0xDE30, symBinAddr: 0x10005DEC0, symSize: 0x90 }
  - { offsetInCU: 0x1465A, offset: 0x1465A, size: 0x8, addend: 0x0, symName: __ZNSt3__123__dispatch_copy_or_moveB7v160006INS_17_ClassicAlgPolicyENS_11__move_loopIS1_EENS_14__move_trivialENS_16reverse_iteratorIPP4FoodEES9_S9_EENS_4pairIT2_T4_EESB_T3_SC_, symObjAddr: 0xDEC0, symBinAddr: 0x10005DF50, symSize: 0x90 }
  - { offsetInCU: 0x146D8, offset: 0x146D8, size: 0x8, addend: 0x0, symName: __ZNSt3__121__unwrap_and_dispatchB7v160006INS_10__overloadINS_11__move_loopINS_17_ClassicAlgPolicyEEENS_14__move_trivialEEENS_16reverse_iteratorIPP4FoodEESB_SB_Li0EEENS_4pairIT0_T2_EESD_T1_SE_, symObjAddr: 0xDF50, symBinAddr: 0x10005DFE0, symSize: 0x210 }
  - { offsetInCU: 0x14767, offset: 0x14767, size: 0x8, addend: 0x0, symName: __ZNSt3__114__unwrap_rangeB7v160006INS_16reverse_iteratorIPP4FoodEES5_EENS_4pairIT0_S7_EET_S9_, symObjAddr: 0xE160, symBinAddr: 0x10005E1F0, symSize: 0x90 }
  - { offsetInCU: 0x14887, offset: 0x14887, size: 0x8, addend: 0x0, symName: __ZNSt3__113__unwrap_iterB7v160006INS_16reverse_iteratorIPP4FoodEENS_18__unwrap_iter_implIS5_Lb0EEELi0EEEDTclsrT0_8__unwrapclsr3stdE7declvalIT_EEEES9_, symObjAddr: 0xE290, symBinAddr: 0x10005E320, symSize: 0x40 }
  - { offsetInCU: 0x148CB, offset: 0x148CB, size: 0x8, addend: 0x0, symName: __ZNSt3__19make_pairB7v160006INS_16reverse_iteratorIPP4FoodEES5_EENS_4pairINS_18__unwrap_ref_decayIT_E4typeENS7_IT0_E4typeEEEOS8_OSB_, symObjAddr: 0xE2D0, symBinAddr: 0x10005E360, symSize: 0x30 }
  - { offsetInCU: 0x1491A, offset: 0x1491A, size: 0x8, addend: 0x0, symName: __ZNSt3__114__rewrap_rangeB7v160006INS_16reverse_iteratorIPP4FoodEES5_EET_S6_T0_, symObjAddr: 0xE300, symBinAddr: 0x10005E390, symSize: 0x60 }
  - { offsetInCU: 0x14966, offset: 0x14966, size: 0x8, addend: 0x0, symName: __ZNSt3__113__rewrap_iterB7v160006INS_16reverse_iteratorIPP4FoodEES5_NS_18__unwrap_iter_implIS5_Lb0EEEEET_S8_T0_, symObjAddr: 0xE360, symBinAddr: 0x10005E3F0, symSize: 0x70 }
  - { offsetInCU: 0x149BB, offset: 0x149BB, size: 0x8, addend: 0x0, symName: __ZNSt3__1neB7v160006IPP4FoodS3_EEbRKNS_16reverse_iteratorIT_EERKNS4_IT0_EE, symObjAddr: 0xE3D0, symBinAddr: 0x10005E460, symSize: 0x40 }
  - { offsetInCU: 0x14A73, offset: 0x14A73, size: 0x8, addend: 0x0, symName: __ZNSt3__112__to_addressB7v160006IP4WallEEPT_S4_, symObjAddr: 0xEA10, symBinAddr: 0x10005EAA0, symSize: 0x10 }
  - { offsetInCU: 0x14AA8, offset: 0x14AA8, size: 0x8, addend: 0x0, symName: __ZNSt3__119__allocate_at_leastB7v160006INS_9allocatorIP4WallEEEENS_19__allocation_resultINS_16allocator_traitsIT_E7pointerEEERS7_m, symObjAddr: 0xEFD0, symBinAddr: 0x10005F060, symSize: 0x40 }
  - { offsetInCU: 0x14AEB, offset: 0x14AEB, size: 0x8, addend: 0x0, symName: __ZNSt3__142__uninitialized_allocator_move_if_noexceptB7v160006INS_9allocatorIP4WallEENS_16reverse_iteratorIPS3_EES7_S3_vEET1_RT_T0_SB_S8_, symObjAddr: 0xF210, symBinAddr: 0x10005F2A0, symSize: 0x70 }
  - { offsetInCU: 0x14B67, offset: 0x14B67, size: 0x8, addend: 0x0, symName: __ZNSt3__14swapB7v160006IPP4WallEENS_9enable_ifIXaasr21is_move_constructibleIT_EE5valuesr18is_move_assignableIS5_EE5valueEvE4typeERS5_S8_, symObjAddr: 0xF2D0, symBinAddr: 0x10005F360, symSize: 0x40 }
  - { offsetInCU: 0x14BB8, offset: 0x14BB8, size: 0x8, addend: 0x0, symName: __ZNSt3__125__debug_db_invalidate_allB7v160006INS_6vectorIP4WallNS_9allocatorIS3_EEEEEEvPT_, symObjAddr: 0xF3C0, symBinAddr: 0x10005F450, symSize: 0x10 }
  - { offsetInCU: 0x14BE9, offset: 0x14BE9, size: 0x8, addend: 0x0, symName: __ZNSt3__14moveB7v160006INS_16reverse_iteratorIPP4WallEES5_EET0_T_S7_S6_, symObjAddr: 0xF410, symBinAddr: 0x10005F4A0, symSize: 0x80 }
  - { offsetInCU: 0x14C43, offset: 0x14C43, size: 0x8, addend: 0x0, symName: __ZNSt3__16__moveB7v160006INS_17_ClassicAlgPolicyENS_16reverse_iteratorIPP4WallEES6_S6_EENS_4pairIT0_T2_EES8_T1_S9_, symObjAddr: 0xF490, symBinAddr: 0x10005F520, symSize: 0x90 }
  - { offsetInCU: 0x14CAF, offset: 0x14CAF, size: 0x8, addend: 0x0, symName: __ZNSt3__123__dispatch_copy_or_moveB7v160006INS_17_ClassicAlgPolicyENS_11__move_loopIS1_EENS_14__move_trivialENS_16reverse_iteratorIPP4WallEES9_S9_EENS_4pairIT2_T4_EESB_T3_SC_, symObjAddr: 0xF520, symBinAddr: 0x10005F5B0, symSize: 0x90 }
  - { offsetInCU: 0x14D2D, offset: 0x14D2D, size: 0x8, addend: 0x0, symName: __ZNSt3__121__unwrap_and_dispatchB7v160006INS_10__overloadINS_11__move_loopINS_17_ClassicAlgPolicyEEENS_14__move_trivialEEENS_16reverse_iteratorIPP4WallEESB_SB_Li0EEENS_4pairIT0_T2_EESD_T1_SE_, symObjAddr: 0xF5B0, symBinAddr: 0x10005F640, symSize: 0x210 }
  - { offsetInCU: 0x14DBC, offset: 0x14DBC, size: 0x8, addend: 0x0, symName: __ZNSt3__114__unwrap_rangeB7v160006INS_16reverse_iteratorIPP4WallEES5_EENS_4pairIT0_S7_EET_S9_, symObjAddr: 0xF7C0, symBinAddr: 0x10005F850, symSize: 0x90 }
  - { offsetInCU: 0x14EDC, offset: 0x14EDC, size: 0x8, addend: 0x0, symName: __ZNSt3__113__unwrap_iterB7v160006INS_16reverse_iteratorIPP4WallEENS_18__unwrap_iter_implIS5_Lb0EEELi0EEEDTclsrT0_8__unwrapclsr3stdE7declvalIT_EEEES9_, symObjAddr: 0xF8F0, symBinAddr: 0x10005F980, symSize: 0x40 }
  - { offsetInCU: 0x14F20, offset: 0x14F20, size: 0x8, addend: 0x0, symName: __ZNSt3__19make_pairB7v160006INS_16reverse_iteratorIPP4WallEES5_EENS_4pairINS_18__unwrap_ref_decayIT_E4typeENS7_IT0_E4typeEEEOS8_OSB_, symObjAddr: 0xF930, symBinAddr: 0x10005F9C0, symSize: 0x30 }
  - { offsetInCU: 0x14F6F, offset: 0x14F6F, size: 0x8, addend: 0x0, symName: __ZNSt3__114__rewrap_rangeB7v160006INS_16reverse_iteratorIPP4WallEES5_EET_S6_T0_, symObjAddr: 0xF960, symBinAddr: 0x10005F9F0, symSize: 0x60 }
  - { offsetInCU: 0x14FBB, offset: 0x14FBB, size: 0x8, addend: 0x0, symName: __ZNSt3__113__rewrap_iterB7v160006INS_16reverse_iteratorIPP4WallEES5_NS_18__unwrap_iter_implIS5_Lb0EEEEET_S8_T0_, symObjAddr: 0xF9C0, symBinAddr: 0x10005FA50, symSize: 0x70 }
  - { offsetInCU: 0x15010, offset: 0x15010, size: 0x8, addend: 0x0, symName: __ZNSt3__1neB7v160006IPP4WallS3_EEbRKNS_16reverse_iteratorIT_EERKNS4_IT0_EE, symObjAddr: 0xFA30, symBinAddr: 0x10005FAC0, symSize: 0x40 }
  - { offsetInCU: 0x150C8, offset: 0x150C8, size: 0x8, addend: 0x0, symName: __ZNSt3__118__debug_db_erase_cB7v160006INS_6vectorIP6WeightNS_9allocatorIS3_EEEEEEvPT_, symObjAddr: 0x10150, symBinAddr: 0x1000601E0, symSize: 0x10 }
  - { offsetInCU: 0x150F9, offset: 0x150F9, size: 0x8, addend: 0x0, symName: __ZNSt3__122__make_exception_guardB7v160006INS_6vectorIP4WallNS_9allocatorIS3_EEE16__destroy_vectorEEENS_28__exception_guard_exceptionsIT_EES9_, symObjAddr: 0x10430, symBinAddr: 0x1000604C0, symSize: 0x40 }
  - { offsetInCU: 0x1512E, offset: 0x1512E, size: 0x8, addend: 0x0, symName: __ZNSt3__130__uninitialized_allocator_copyB7v160006INS_9allocatorIP4WallEEPS3_S5_S5_EET2_RT_T0_T1_S6_, symObjAddr: 0x106D0, symBinAddr: 0x100060760, symSize: 0x100 }
  - { offsetInCU: 0x151CC, offset: 0x151CC, size: 0x8, addend: 0x0, symName: __ZNSt3__122__make_exception_guardB7v160006INS_29_AllocatorDestroyRangeReverseINS_9allocatorIP4WallEEPS4_EEEENS_28__exception_guard_exceptionsIT_EES9_, symObjAddr: 0x107D0, symBinAddr: 0x100060860, symSize: 0x60 }
  - { offsetInCU: 0x15201, offset: 0x15201, size: 0x8, addend: 0x0, symName: __ZNSt3__119__allocator_destroyB7v160006INS_9allocatorIP4WallEENS_16reverse_iteratorIPS3_EES7_EEvRT_T0_T1_, symObjAddr: 0x10A50, symBinAddr: 0x100060AE0, symSize: 0x70 }
  - { offsetInCU: 0x15264, offset: 0x15264, size: 0x8, addend: 0x0, symName: __ZNSt3__112__to_addressB7v160006INS_16reverse_iteratorIPP4WallEEvEENS_5decayIDTclsr19__to_address_helperIT_EE6__callclsr3stdE7declvalIRKS7_EEEEE4typeES9_, symObjAddr: 0x10AC0, symBinAddr: 0x100060B50, symSize: 0x20 }
  - { offsetInCU: 0x152C3, offset: 0x152C3, size: 0x8, addend: 0x0, symName: __ZNSt3__118__debug_db_erase_cB7v160006INS_6vectorIP4WallNS_9allocatorIS3_EEEEEEvPT_, symObjAddr: 0x10C10, symBinAddr: 0x100060CA0, symSize: 0x10 }
  - { offsetInCU: 0x152F4, offset: 0x152F4, size: 0x8, addend: 0x0, symName: __ZNSt3__122__make_exception_guardB7v160006INS_6vectorIP4FoodNS_9allocatorIS3_EEE16__destroy_vectorEEENS_28__exception_guard_exceptionsIT_EES9_, symObjAddr: 0x10E40, symBinAddr: 0x100060ED0, symSize: 0x40 }
  - { offsetInCU: 0x15329, offset: 0x15329, size: 0x8, addend: 0x0, symName: __ZNSt3__130__uninitialized_allocator_copyB7v160006INS_9allocatorIP4FoodEEPS3_S5_S5_EET2_RT_T0_T1_S6_, symObjAddr: 0x110E0, symBinAddr: 0x100061170, symSize: 0x100 }
  - { offsetInCU: 0x153C7, offset: 0x153C7, size: 0x8, addend: 0x0, symName: __ZNSt3__122__make_exception_guardB7v160006INS_29_AllocatorDestroyRangeReverseINS_9allocatorIP4FoodEEPS4_EEEENS_28__exception_guard_exceptionsIT_EES9_, symObjAddr: 0x111E0, symBinAddr: 0x100061270, symSize: 0x60 }
  - { offsetInCU: 0x153FC, offset: 0x153FC, size: 0x8, addend: 0x0, symName: __ZNSt3__119__allocator_destroyB7v160006INS_9allocatorIP4FoodEENS_16reverse_iteratorIPS3_EES7_EEvRT_T0_T1_, symObjAddr: 0x11460, symBinAddr: 0x1000614F0, symSize: 0x70 }
  - { offsetInCU: 0x1545F, offset: 0x1545F, size: 0x8, addend: 0x0, symName: __ZNSt3__112__to_addressB7v160006INS_16reverse_iteratorIPP4FoodEEvEENS_5decayIDTclsr19__to_address_helperIT_EE6__callclsr3stdE7declvalIRKS7_EEEEE4typeES9_, symObjAddr: 0x114D0, symBinAddr: 0x100061560, symSize: 0x20 }
  - { offsetInCU: 0x154BE, offset: 0x154BE, size: 0x8, addend: 0x0, symName: __ZNSt3__118__debug_db_erase_cB7v160006INS_6vectorIP4FoodNS_9allocatorIS3_EEEEEEvPT_, symObjAddr: 0x11620, symBinAddr: 0x1000616B0, symSize: 0x10 }
  - { offsetInCU: 0x1550B, offset: 0x1550B, size: 0x8, addend: 0x0, symName: __ZNSt3__16removeB7v160006INS_11__wrap_iterIPP4FoodEEDnEET_S6_S6_RKT0_, symObjAddr: 0x13410, symBinAddr: 0x1000634A0, symSize: 0xE0 }
  - { offsetInCU: 0x15581, offset: 0x15581, size: 0x8, addend: 0x0, symName: __ZNSt3__16removeB7v160006INS_11__wrap_iterIPP6EntityEEDnEET_S6_S6_RKT0_, symObjAddr: 0x13770, symBinAddr: 0x100063800, symSize: 0xE0 }
  - { offsetInCU: 0x155F7, offset: 0x155F7, size: 0x8, addend: 0x0, symName: __ZNSt3__1miB7v160006IPKP6EntityPS2_EEDTmicldtfp_4baseEcldtfp0_4baseEERKNS_11__wrap_iterIT_EERKNS7_IT0_EE, symObjAddr: 0x13E90, symBinAddr: 0x100063F20, symSize: 0x40 }
  - { offsetInCU: 0x15643, offset: 0x15643, size: 0x8, addend: 0x0, symName: __ZNSt3__18distanceB7v160006INS_11__wrap_iterIPP6EntityEEEENS_15iterator_traitsIT_E15difference_typeES7_S7_, symObjAddr: 0x13ED0, symBinAddr: 0x100063F60, symSize: 0x40 }
  - { offsetInCU: 0x15686, offset: 0x15686, size: 0x8, addend: 0x0, symName: __ZNSt3__14copyB7v160006INS_11__wrap_iterIPP6EntityEES4_EET0_T_S7_S6_, symObjAddr: 0x14130, symBinAddr: 0x1000641C0, symSize: 0x50 }
  - { offsetInCU: 0x156E0, offset: 0x156E0, size: 0x8, addend: 0x0, symName: __ZNSt3__110__distanceB7v160006INS_11__wrap_iterIPP6EntityEEEENS_15iterator_traitsIT_E15difference_typeES7_S7_NS_26random_access_iterator_tagE, symObjAddr: 0x14450, symBinAddr: 0x1000644E0, symSize: 0x30 }
  - { offsetInCU: 0x1572D, offset: 0x1572D, size: 0x8, addend: 0x0, symName: __ZNSt3__1miB7v160006IPP6EntityS3_EEDTmicldtfp_4baseEcldtfp0_4baseEERKNS_11__wrap_iterIT_EERKNS5_IT0_EE, symObjAddr: 0x14480, symBinAddr: 0x100064510, symSize: 0x40 }
  - { offsetInCU: 0x15779, offset: 0x15779, size: 0x8, addend: 0x0, symName: __ZNSt3__121__convert_to_integralB7v160006El, symObjAddr: 0x144C0, symBinAddr: 0x100064550, symSize: 0x10 }
  - { offsetInCU: 0x157A5, offset: 0x157A5, size: 0x8, addend: 0x0, symName: __ZNSt3__19__advanceB7v160006INS_11__wrap_iterIPP6EntityEEEEvRT_NS_15iterator_traitsIS6_E15difference_typeENS_26random_access_iterator_tagE, symObjAddr: 0x144D0, symBinAddr: 0x100064560, symSize: 0x30 }
  - { offsetInCU: 0x157EE, offset: 0x157EE, size: 0x8, addend: 0x0, symName: __ZNSt3__130__uninitialized_allocator_copyB7v160006INS_9allocatorIP6EntityEENS_11__wrap_iterIPS3_EES7_S6_EET2_RT_T0_T1_S8_, symObjAddr: 0x14520, symBinAddr: 0x1000645B0, symSize: 0x120 }
  - { offsetInCU: 0x1588C, offset: 0x1588C, size: 0x8, addend: 0x0, symName: __ZNSt3__122__make_exception_guardB7v160006INS_29_AllocatorDestroyRangeReverseINS_9allocatorIP6EntityEEPS4_EEEENS_28__exception_guard_exceptionsIT_EES9_, symObjAddr: 0x14640, symBinAddr: 0x1000646D0, symSize: 0x60 }
  - { offsetInCU: 0x158C1, offset: 0x158C1, size: 0x8, addend: 0x0, symName: __ZNSt3__1neB7v160006IPP6EntityEEbRKNS_11__wrap_iterIT_EES8_, symObjAddr: 0x146E0, symBinAddr: 0x100064770, symSize: 0x30 }
  - { offsetInCU: 0x15904, offset: 0x15904, size: 0x8, addend: 0x0, symName: __ZNSt3__1eqB7v160006IPP6EntityEEbRKNS_11__wrap_iterIT_EES8_, symObjAddr: 0x14870, symBinAddr: 0x100064900, symSize: 0x40 }
  - { offsetInCU: 0x15947, offset: 0x15947, size: 0x8, addend: 0x0, symName: __ZNSt3__119__allocator_destroyB7v160006INS_9allocatorIP6EntityEENS_16reverse_iteratorIPS3_EES7_EEvRT_T0_T1_, symObjAddr: 0x14970, symBinAddr: 0x100064A00, symSize: 0x70 }
  - { offsetInCU: 0x159AA, offset: 0x159AA, size: 0x8, addend: 0x0, symName: __ZNSt3__112__to_addressB7v160006INS_16reverse_iteratorIPP6EntityEEvEENS_5decayIDTclsr19__to_address_helperIT_EE6__callclsr3stdE7declvalIRKS7_EEEEE4typeES9_, symObjAddr: 0x149E0, symBinAddr: 0x100064A70, symSize: 0x20 }
  - { offsetInCU: 0x15A09, offset: 0x15A09, size: 0x8, addend: 0x0, symName: __ZNSt3__113move_backwardB7v160006IPP6EntityS3_EET0_T_S5_S4_, symObjAddr: 0x14A90, symBinAddr: 0x100064B20, symSize: 0x40 }
  - { offsetInCU: 0x15A63, offset: 0x15A63, size: 0x8, addend: 0x0, symName: __ZNSt3__115__move_backwardB7v160006INS_17_ClassicAlgPolicyEPP6EntityS4_S4_EENS_4pairIT0_T2_EES6_T1_S7_, symObjAddr: 0x14AF0, symBinAddr: 0x100064B80, symSize: 0x40 }
  - { offsetInCU: 0x15ACF, offset: 0x15ACF, size: 0x8, addend: 0x0, symName: __ZNSt3__123__dispatch_copy_or_moveB7v160006INS_17_ClassicAlgPolicyENS_20__move_backward_loopIS1_EENS_23__move_backward_trivialEPP6EntityS7_S7_EENS_4pairIT2_T4_EES9_T3_SA_, symObjAddr: 0x14B30, symBinAddr: 0x100064BC0, symSize: 0x40 }
  - { offsetInCU: 0x15B4D, offset: 0x15B4D, size: 0x8, addend: 0x0, symName: __ZNSt3__121__unwrap_and_dispatchB7v160006INS_10__overloadINS_20__move_backward_loopINS_17_ClassicAlgPolicyEEENS_23__move_backward_trivialEEEPP6EntityS9_S9_Li0EEENS_4pairIT0_T2_EESB_T1_SC_, symObjAddr: 0x14B70, symBinAddr: 0x100064C00, symSize: 0xB0 }
  - { offsetInCU: 0x15BDC, offset: 0x15BDC, size: 0x8, addend: 0x0, symName: __ZNSt3__114__unwrap_rangeB7v160006IPP6EntityS3_EENS_4pairIT0_S5_EET_S7_, symObjAddr: 0x14C20, symBinAddr: 0x100064CB0, symSize: 0x50 }
  - { offsetInCU: 0x15DA0, offset: 0x15DA0, size: 0x8, addend: 0x0, symName: __ZNSt3__113__unwrap_iterB7v160006IPP6EntityNS_18__unwrap_iter_implIS3_Lb1EEELi0EEEDTclsrT0_8__unwrapclsr3stdE7declvalIT_EEEES7_, symObjAddr: 0x14CB0, symBinAddr: 0x100064D40, symSize: 0x20 }
  - { offsetInCU: 0x15DE4, offset: 0x15DE4, size: 0x8, addend: 0x0, symName: __ZNSt3__19make_pairB7v160006IPP6EntityS3_EENS_4pairINS_18__unwrap_ref_decayIT_E4typeENS5_IT0_E4typeEEEOS6_OS9_, symObjAddr: 0x14CD0, symBinAddr: 0x100064D60, symSize: 0x30 }
  - { offsetInCU: 0x15E33, offset: 0x15E33, size: 0x8, addend: 0x0, symName: __ZNSt3__114__rewrap_rangeB7v160006IPP6EntityS3_EET_S4_T0_, symObjAddr: 0x14D00, symBinAddr: 0x100064D90, symSize: 0x30 }
  - { offsetInCU: 0x15E7F, offset: 0x15E7F, size: 0x8, addend: 0x0, symName: __ZNSt3__113__rewrap_iterB7v160006IPP6EntityS3_NS_18__unwrap_iter_implIS3_Lb1EEEEET_S6_T0_, symObjAddr: 0x14D30, symBinAddr: 0x100064DC0, symSize: 0x40 }
  - { offsetInCU: 0x15ED4, offset: 0x15ED4, size: 0x8, addend: 0x0, symName: __ZNSt3__128__copy_backward_trivial_implB7v160006IP6EntityS2_EENS_4pairIPT_PT0_EES5_S5_S7_, symObjAddr: 0x14D70, symBinAddr: 0x100064E00, symSize: 0x80 }
  - { offsetInCU: 0x15F3C, offset: 0x15F3C, size: 0x8, addend: 0x0, symName: __ZNSt3__19make_pairB7v160006IRPP6EntityS4_EENS_4pairINS_18__unwrap_ref_decayIT_E4typeENS6_IT0_E4typeEEEOS7_OSA_, symObjAddr: 0x14DF0, symBinAddr: 0x100064E80, symSize: 0x30 }
  - { offsetInCU: 0x15FDE, offset: 0x15FDE, size: 0x8, addend: 0x0, symName: __ZNSt3__16__copyB7v160006INS_17_ClassicAlgPolicyENS_11__wrap_iterIPP6EntityEES6_S5_EENS_4pairIT0_T2_EES8_T1_S9_, symObjAddr: 0x14F50, symBinAddr: 0x100064FE0, symSize: 0x50 }
  - { offsetInCU: 0x1604A, offset: 0x1604A, size: 0x8, addend: 0x0, symName: __ZNSt3__123__dispatch_copy_or_moveB7v160006INS_17_ClassicAlgPolicyENS_11__copy_loopIS1_EENS_14__copy_trivialENS_11__wrap_iterIPP6EntityEES9_S8_EENS_4pairIT2_T4_EESB_T3_SC_, symObjAddr: 0x14FA0, symBinAddr: 0x100065030, symSize: 0x50 }
  - { offsetInCU: 0x160C8, offset: 0x160C8, size: 0x8, addend: 0x0, symName: __ZNSt3__121__unwrap_and_dispatchB7v160006INS_10__overloadINS_11__copy_loopINS_17_ClassicAlgPolicyEEENS_14__copy_trivialEEENS_11__wrap_iterIPP6EntityEESB_SA_Li0EEENS_4pairIT0_T2_EESD_T1_SE_, symObjAddr: 0x14FF0, symBinAddr: 0x100065080, symSize: 0xD0 }
  - { offsetInCU: 0x16157, offset: 0x16157, size: 0x8, addend: 0x0, symName: __ZNSt3__114__unwrap_rangeB7v160006INS_11__wrap_iterIPP6EntityEES4_EENS_4pairIT0_S7_EET_S9_, symObjAddr: 0x150C0, symBinAddr: 0x100065150, symSize: 0x60 }
  - { offsetInCU: 0x161E9, offset: 0x161E9, size: 0x8, addend: 0x0, symName: __ZNSt3__19make_pairB7v160006INS_11__wrap_iterIPP6EntityEES4_EENS_4pairINS_18__unwrap_ref_decayIT_E4typeENS7_IT0_E4typeEEEOS8_OSB_, symObjAddr: 0x15160, symBinAddr: 0x1000651F0, symSize: 0x30 }
  - { offsetInCU: 0x16238, offset: 0x16238, size: 0x8, addend: 0x0, symName: __ZNSt3__114__rewrap_rangeB7v160006INS_11__wrap_iterIPP6EntityEES4_EET_S6_T0_, symObjAddr: 0x15190, symBinAddr: 0x100065220, symSize: 0x40 }
  - { offsetInCU: 0x16284, offset: 0x16284, size: 0x8, addend: 0x0, symName: __ZNSt3__113__unwrap_iterB7v160006INS_11__wrap_iterIPP6EntityEENS_18__unwrap_iter_implIS5_Lb1EEELi0EEEDTclsrT0_8__unwrapclsr3stdE7declvalIT_EEEES9_, symObjAddr: 0x151D0, symBinAddr: 0x100065260, symSize: 0x30 }
  - { offsetInCU: 0x1631B, offset: 0x1631B, size: 0x8, addend: 0x0, symName: __ZNSt3__112__to_addressB7v160006INS_11__wrap_iterIPP6EntityEEvEENS_5decayIDTclsr19__to_address_helperIT_EE6__callclsr3stdE7declvalIRKS7_EEEEE4typeES9_, symObjAddr: 0x15220, symBinAddr: 0x1000652B0, symSize: 0x20 }
  - { offsetInCU: 0x163FA, offset: 0x163FA, size: 0x8, addend: 0x0, symName: __ZNSt3__119__copy_trivial_implB7v160006IP6EntityS2_EENS_4pairIPT_PT0_EES5_S5_S7_, symObjAddr: 0x152A0, symBinAddr: 0x100065330, symSize: 0x70 }
  - { offsetInCU: 0x16462, offset: 0x16462, size: 0x8, addend: 0x0, symName: __ZNSt3__19make_pairB7v160006IRPP6EntityS3_EENS_4pairINS_18__unwrap_ref_decayIT_E4typeENS6_IT0_E4typeEEEOS7_OSA_, symObjAddr: 0x15310, symBinAddr: 0x1000653A0, symSize: 0x30 }
  - { offsetInCU: 0x16585, offset: 0x16585, size: 0x8, addend: 0x0, symName: __ZNSt3__113__rewrap_iterB7v160006INS_11__wrap_iterIPP6EntityEES4_NS_18__unwrap_iter_implIS5_Lb1EEEEET_S8_T0_, symObjAddr: 0x15400, symBinAddr: 0x100065490, symSize: 0x50 }
  - { offsetInCU: 0x165DA, offset: 0x165DA, size: 0x8, addend: 0x0, symName: __ZNSt3__142__uninitialized_allocator_move_if_noexceptB7v160006INS_9allocatorIP6EntityEEPS3_S5_S3_vEET1_RT_T0_S9_S6_, symObjAddr: 0x15590, symBinAddr: 0x100065620, symSize: 0x30 }
  - { offsetInCU: 0x16656, offset: 0x16656, size: 0x8, addend: 0x0, symName: __ZNSt3__14moveB7v160006IPP6EntityS3_EET0_T_S5_S4_, symObjAddr: 0x155C0, symBinAddr: 0x100065650, symSize: 0x40 }
  - { offsetInCU: 0x166B0, offset: 0x166B0, size: 0x8, addend: 0x0, symName: __ZNSt3__16__moveB7v160006INS_17_ClassicAlgPolicyEPP6EntityS4_S4_EENS_4pairIT0_T2_EES6_T1_S7_, symObjAddr: 0x15600, symBinAddr: 0x100065690, symSize: 0x40 }
  - { offsetInCU: 0x1671C, offset: 0x1671C, size: 0x8, addend: 0x0, symName: __ZNSt3__123__dispatch_copy_or_moveB7v160006INS_17_ClassicAlgPolicyENS_11__move_loopIS1_EENS_14__move_trivialEPP6EntityS7_S7_EENS_4pairIT2_T4_EES9_T3_SA_, symObjAddr: 0x15640, symBinAddr: 0x1000656D0, symSize: 0x40 }
  - { offsetInCU: 0x1679A, offset: 0x1679A, size: 0x8, addend: 0x0, symName: __ZNSt3__121__unwrap_and_dispatchB7v160006INS_10__overloadINS_11__move_loopINS_17_ClassicAlgPolicyEEENS_14__move_trivialEEEPP6EntityS9_S9_Li0EEENS_4pairIT0_T2_EESB_T1_SC_, symObjAddr: 0x15680, symBinAddr: 0x100065710, symSize: 0xB0 }
  - { offsetInCU: 0x168AB, offset: 0x168AB, size: 0x8, addend: 0x0, symName: __ZNSt3__122__make_exception_guardB7v160006INS_6vectorIP6WeightNS_9allocatorIS3_EEE16__destroy_vectorEEENS_28__exception_guard_exceptionsIT_EES9_, symObjAddr: 0x15BF0, symBinAddr: 0x100065C80, symSize: 0x40 }
  - { offsetInCU: 0x168E0, offset: 0x168E0, size: 0x8, addend: 0x0, symName: __ZNSt3__130__uninitialized_allocator_copyB7v160006INS_9allocatorIP6WeightEEPS3_S5_S5_EET2_RT_T0_T1_S6_, symObjAddr: 0x15E40, symBinAddr: 0x100065ED0, symSize: 0x100 }
  - { offsetInCU: 0x1697E, offset: 0x1697E, size: 0x8, addend: 0x0, symName: __ZNSt3__122__make_exception_guardB7v160006INS_29_AllocatorDestroyRangeReverseINS_9allocatorIP6WeightEEPS4_EEEENS_28__exception_guard_exceptionsIT_EES9_, symObjAddr: 0x15F40, symBinAddr: 0x100065FD0, symSize: 0x60 }
  - { offsetInCU: 0x169B3, offset: 0x169B3, size: 0x8, addend: 0x0, symName: __ZNSt3__119__allocator_destroyB7v160006INS_9allocatorIP6WeightEENS_16reverse_iteratorIPS3_EES7_EEvRT_T0_T1_, symObjAddr: 0x161C0, symBinAddr: 0x100066250, symSize: 0x70 }
  - { offsetInCU: 0x16A16, offset: 0x16A16, size: 0x8, addend: 0x0, symName: __ZNSt3__112__to_addressB7v160006INS_16reverse_iteratorIPP6WeightEEvEENS_5decayIDTclsr19__to_address_helperIT_EE6__callclsr3stdE7declvalIRKS7_EEEEE4typeES9_, symObjAddr: 0x16230, symBinAddr: 0x1000662C0, symSize: 0x20 }
  - { offsetInCU: 0x16A75, offset: 0x16A75, size: 0x8, addend: 0x0, symName: __ZNSt3__115__debug_db_swapB7v160006INS_6vectorIP6WeightNS_9allocatorIS3_EEEEEEvPT_S8_, symObjAddr: 0x16450, symBinAddr: 0x1000664E0, symSize: 0x10 }
  - { offsetInCU: 0x16AB4, offset: 0x16AB4, size: 0x8, addend: 0x0, symName: __ZNSt3__16removeB7v160006INS_11__wrap_iterIPP6EntityEES3_EET_S6_S6_RKT0_, symObjAddr: 0x16710, symBinAddr: 0x1000667A0, symSize: 0xF0 }
  - { offsetInCU: 0x16B2A, offset: 0x16B2A, size: 0x8, addend: 0x0, symName: __ZNSt3__110make_tupleB7v160006IJRP4WallfEEENS_5tupleIJDpNS_18__unwrap_ref_decayIT_E4typeEEEEDpOS6_, symObjAddr: 0x16D50, symBinAddr: 0x100066DE0, symSize: 0x30 }
  - { offsetInCU: 0x16B77, offset: 0x16B77, size: 0x8, addend: 0x0, symName: __ZNSt3__110make_tupleB7v160006IJDnfEEENS_5tupleIJDpNS_18__unwrap_ref_decayIT_E4typeEEEEDpOS3_, symObjAddr: 0x16DC0, symBinAddr: 0x100066E50, symSize: 0x30 }
  - { offsetInCU: 0x16D99, offset: 0x16D99, size: 0x8, addend: 0x0, symName: __ZNSt3__110make_tupleB7v160006IJRP4FoodfEEENS_5tupleIJDpNS_18__unwrap_ref_decayIT_E4typeEEEEDpOS6_, symObjAddr: 0x16E30, symBinAddr: 0x100066EC0, symSize: 0x30 }
  - { offsetInCU: 0x16DE6, offset: 0x16DE6, size: 0x8, addend: 0x0, symName: __ZNSt3__110make_tupleB7v160006IJRP6EntityfEEENS_5tupleIJDpNS_18__unwrap_ref_decayIT_E4typeEEEEDpOS6_, symObjAddr: 0x16FA0, symBinAddr: 0x100067030, symSize: 0x30 }
  - { offsetInCU: 0x16E33, offset: 0x16E33, size: 0x8, addend: 0x0, symName: __ZNSt3__14findB7v160006INS_11__wrap_iterIPP6EntityEES3_EET_S6_S6_RKT0_, symObjAddr: 0x17050, symBinAddr: 0x1000670E0, symSize: 0x80 }
  - { offsetInCU: 0x16EA7, offset: 0x16EA7, size: 0x8, addend: 0x0, symName: __ZNSt3__127__memberwise_forward_assignB7v160006INS_5tupleIJP4WallfEEES4_JS3_fEJLm0ELm1EEEEvRT_OT0_NS_13__tuple_typesIJDpT1_EEENS_15__tuple_indicesIJXspT2_EEEE, symObjAddr: 0x17200, symBinAddr: 0x100067290, symSize: 0x80 }
  - { offsetInCU: 0x16F44, offset: 0x16F44, size: 0x8, addend: 0x0, symName: __ZNSt3__127__memberwise_forward_assignB7v160006INS_5tupleIJP4WallfEEENS1_IJDnfEEEJDnfEJLm0ELm1EEEEvRT_OT0_NS_13__tuple_typesIJDpT1_EEENS_15__tuple_indicesIJXspT2_EEEE, symObjAddr: 0x17350, symBinAddr: 0x1000673E0, symSize: 0x70 }
  - { offsetInCU: 0x16FC7, offset: 0x16FC7, size: 0x8, addend: 0x0, symName: __ZNSt3__13getB7v160006ILm0EJDnfEEERNS_13tuple_elementIXT_ENS_5tupleIJDpT0_EEEE4typeERS5_, symObjAddr: 0x173C0, symBinAddr: 0x100067450, symSize: 0x20 }
  - { offsetInCU: 0x1700E, offset: 0x1700E, size: 0x8, addend: 0x0, symName: __ZNSt3__13getB7v160006ILm1EJDnfEEERNS_13tuple_elementIXT_ENS_5tupleIJDpT0_EEEE4typeERS5_, symObjAddr: 0x173E0, symBinAddr: 0x100067470, symSize: 0x20 }
  - { offsetInCU: 0x1706F, offset: 0x1706F, size: 0x8, addend: 0x0, symName: __ZNSt3__127__memberwise_forward_assignB7v160006INS_5tupleIJP4FoodfEEES4_JS3_fEJLm0ELm1EEEEvRT_OT0_NS_13__tuple_typesIJDpT1_EEENS_15__tuple_indicesIJXspT2_EEEE, symObjAddr: 0x174F0, symBinAddr: 0x100067580, symSize: 0x80 }
  - { offsetInCU: 0x170F2, offset: 0x170F2, size: 0x8, addend: 0x0, symName: __ZNSt3__127__memberwise_forward_assignB7v160006INS_5tupleIJP4FoodfEEENS1_IJDnfEEEJDnfEJLm0ELm1EEEEvRT_OT0_NS_13__tuple_typesIJDpT1_EEENS_15__tuple_indicesIJXspT2_EEEE, symObjAddr: 0x17570, symBinAddr: 0x100067600, symSize: 0x70 }
  - { offsetInCU: 0x1718F, offset: 0x1718F, size: 0x8, addend: 0x0, symName: __ZNSt3__127__memberwise_forward_assignB7v160006INS_5tupleIJP6EntityfEEES4_JS3_fEJLm0ELm1EEEEvRT_OT0_NS_13__tuple_typesIJDpT1_EEENS_15__tuple_indicesIJXspT2_EEEE, symObjAddr: 0x177B0, symBinAddr: 0x100067840, symSize: 0x80 }
  - { offsetInCU: 0x17212, offset: 0x17212, size: 0x8, addend: 0x0, symName: __ZNSt3__127__memberwise_forward_assignB7v160006INS_5tupleIJP6EntityfEEENS1_IJDnfEEEJDnfEJLm0ELm1EEEEvRT_OT0_NS_13__tuple_typesIJDpT1_EEENS_15__tuple_indicesIJXspT2_EEEE, symObjAddr: 0x17830, symBinAddr: 0x1000678C0, symSize: 0x70 }
  - { offsetInCU: 0x17295, offset: 0x17295, size: 0x8, addend: 0x0, symName: __ZNSt3__122__make_exception_guardB7v160006INS_6vectorIP6EntityNS_9allocatorIS3_EEE16__destroy_vectorEEENS_28__exception_guard_exceptionsIT_EES9_, symObjAddr: 0x179F0, symBinAddr: 0x100067A80, symSize: 0x40 }
  - { offsetInCU: 0x172CA, offset: 0x172CA, size: 0x8, addend: 0x0, symName: __ZNSt3__130__uninitialized_allocator_copyB7v160006INS_9allocatorIP6EntityEEPS3_S5_S5_EET2_RT_T0_T1_S6_, symObjAddr: 0x17C90, symBinAddr: 0x100067D20, symSize: 0x100 }
  - { offsetInCU: 0x17368, offset: 0x17368, size: 0x8, addend: 0x0, symName: __ZNSt3__118__debug_db_erase_cB7v160006INS_6vectorIP6EntityNS_9allocatorIS3_EEEEEEvPT_, symObjAddr: 0x17E60, symBinAddr: 0x100067EF0, symSize: 0x10 }
  - { offsetInCU: 0x17399, offset: 0x17399, size: 0x8, addend: 0x0, symName: __ZNSt3__119__debug_db_insert_cB7v160006INS_6vectorIfNS_9allocatorIfEEEEEEvPT_, symObjAddr: 0x18300, symBinAddr: 0x100068390, symSize: 0x10 }
  - { offsetInCU: 0x173CA, offset: 0x173CA, size: 0x8, addend: 0x0, symName: __ZNSt3__112__to_addressB7v160006IfEEPT_S2_, symObjAddr: 0x185F0, symBinAddr: 0x100068680, symSize: 0x10 }
  - { offsetInCU: 0x173FF, offset: 0x173FF, size: 0x8, addend: 0x0, symName: __ZNSt3__119__allocate_at_leastB7v160006INS_9allocatorIfEEEENS_19__allocation_resultINS_16allocator_traitsIT_E7pointerEEERS5_m, symObjAddr: 0x18BC0, symBinAddr: 0x100068C50, symSize: 0x40 }
  - { offsetInCU: 0x17442, offset: 0x17442, size: 0x8, addend: 0x0, symName: __ZNSt3__142__uninitialized_allocator_move_if_noexceptB7v160006INS_9allocatorIfEENS_16reverse_iteratorIPfEES5_fvEET1_RT_T0_S9_S6_, symObjAddr: 0x18E00, symBinAddr: 0x100068E90, symSize: 0x70 }
  - { offsetInCU: 0x174BE, offset: 0x174BE, size: 0x8, addend: 0x0, symName: __ZNSt3__14swapB7v160006IPfEENS_9enable_ifIXaasr21is_move_constructibleIT_EE5valuesr18is_move_assignableIS3_EE5valueEvE4typeERS3_S6_, symObjAddr: 0x18EC0, symBinAddr: 0x100068F50, symSize: 0x40 }
  - { offsetInCU: 0x1750F, offset: 0x1750F, size: 0x8, addend: 0x0, symName: __ZNSt3__125__debug_db_invalidate_allB7v160006INS_6vectorIfNS_9allocatorIfEEEEEEvPT_, symObjAddr: 0x18FB0, symBinAddr: 0x100069040, symSize: 0x10 }
  - { offsetInCU: 0x17540, offset: 0x17540, size: 0x8, addend: 0x0, symName: __ZNSt3__14moveB7v160006INS_16reverse_iteratorIPfEES3_EET0_T_S5_S4_, symObjAddr: 0x19000, symBinAddr: 0x100069090, symSize: 0x80 }
  - { offsetInCU: 0x1759A, offset: 0x1759A, size: 0x8, addend: 0x0, symName: __ZNSt3__16__moveB7v160006INS_17_ClassicAlgPolicyENS_16reverse_iteratorIPfEES4_S4_EENS_4pairIT0_T2_EES6_T1_S7_, symObjAddr: 0x19080, symBinAddr: 0x100069110, symSize: 0x90 }
  - { offsetInCU: 0x17606, offset: 0x17606, size: 0x8, addend: 0x0, symName: __ZNSt3__123__dispatch_copy_or_moveB7v160006INS_17_ClassicAlgPolicyENS_11__move_loopIS1_EENS_14__move_trivialENS_16reverse_iteratorIPfEES7_S7_EENS_4pairIT2_T4_EES9_T3_SA_, symObjAddr: 0x19110, symBinAddr: 0x1000691A0, symSize: 0x90 }
  - { offsetInCU: 0x17684, offset: 0x17684, size: 0x8, addend: 0x0, symName: __ZNSt3__121__unwrap_and_dispatchB7v160006INS_10__overloadINS_11__move_loopINS_17_ClassicAlgPolicyEEENS_14__move_trivialEEENS_16reverse_iteratorIPfEES9_S9_Li0EEENS_4pairIT0_T2_EESB_T1_SC_, symObjAddr: 0x191A0, symBinAddr: 0x100069230, symSize: 0x210 }
  - { offsetInCU: 0x17713, offset: 0x17713, size: 0x8, addend: 0x0, symName: __ZNSt3__114__unwrap_rangeB7v160006INS_16reverse_iteratorIPfEES3_EENS_4pairIT0_S5_EET_S7_, symObjAddr: 0x193B0, symBinAddr: 0x100069440, symSize: 0x90 }
  - { offsetInCU: 0x17833, offset: 0x17833, size: 0x8, addend: 0x0, symName: __ZNSt3__113__unwrap_iterB7v160006INS_16reverse_iteratorIPfEENS_18__unwrap_iter_implIS3_Lb0EEELi0EEEDTclsrT0_8__unwrapclsr3stdE7declvalIT_EEEES7_, symObjAddr: 0x194E0, symBinAddr: 0x100069570, symSize: 0x40 }
  - { offsetInCU: 0x17877, offset: 0x17877, size: 0x8, addend: 0x0, symName: __ZNSt3__19make_pairB7v160006INS_16reverse_iteratorIPfEES3_EENS_4pairINS_18__unwrap_ref_decayIT_E4typeENS5_IT0_E4typeEEEOS6_OS9_, symObjAddr: 0x19520, symBinAddr: 0x1000695B0, symSize: 0x30 }
  - { offsetInCU: 0x178C6, offset: 0x178C6, size: 0x8, addend: 0x0, symName: __ZNSt3__114__rewrap_rangeB7v160006INS_16reverse_iteratorIPfEES3_EET_S4_T0_, symObjAddr: 0x19550, symBinAddr: 0x1000695E0, symSize: 0x60 }
  - { offsetInCU: 0x17912, offset: 0x17912, size: 0x8, addend: 0x0, symName: __ZNSt3__113__rewrap_iterB7v160006INS_16reverse_iteratorIPfEES3_NS_18__unwrap_iter_implIS3_Lb0EEEEET_S6_T0_, symObjAddr: 0x195B0, symBinAddr: 0x100069640, symSize: 0x70 }
  - { offsetInCU: 0x17967, offset: 0x17967, size: 0x8, addend: 0x0, symName: __ZNSt3__1neB7v160006IPfS1_EEbRKNS_16reverse_iteratorIT_EERKNS2_IT0_EE, symObjAddr: 0x19620, symBinAddr: 0x1000696B0, symSize: 0x40 }
  - { offsetInCU: 0x17A1F, offset: 0x17A1F, size: 0x8, addend: 0x0, symName: __ZNSt3__122__make_exception_guardB7v160006INS_6vectorIfNS_9allocatorIfEEE16__destroy_vectorEEENS_28__exception_guard_exceptionsIT_EES7_, symObjAddr: 0x19F00, symBinAddr: 0x100069F90, symSize: 0x40 }
  - { offsetInCU: 0x17A54, offset: 0x17A54, size: 0x8, addend: 0x0, symName: __ZNSt3__130__uninitialized_allocator_copyB7v160006INS_9allocatorIfEEPfS3_S3_EET2_RT_T0_T1_S4_, symObjAddr: 0x1A1A0, symBinAddr: 0x10006A230, symSize: 0x100 }
  - { offsetInCU: 0x17AF2, offset: 0x17AF2, size: 0x8, addend: 0x0, symName: __ZNSt3__122__make_exception_guardB7v160006INS_29_AllocatorDestroyRangeReverseINS_9allocatorIfEEPfEEEENS_28__exception_guard_exceptionsIT_EES7_, symObjAddr: 0x1A2A0, symBinAddr: 0x10006A330, symSize: 0x60 }
  - { offsetInCU: 0x17B27, offset: 0x17B27, size: 0x8, addend: 0x0, symName: __ZNSt3__119__allocator_destroyB7v160006INS_9allocatorIfEENS_16reverse_iteratorIPfEES5_EEvRT_T0_T1_, symObjAddr: 0x1A530, symBinAddr: 0x10006A5C0, symSize: 0x70 }
  - { offsetInCU: 0x17B8A, offset: 0x17B8A, size: 0x8, addend: 0x0, symName: __ZNSt3__112__to_addressB7v160006INS_16reverse_iteratorIPfEEvEENS_5decayIDTclsr19__to_address_helperIT_EE6__callclsr3stdE7declvalIRKS5_EEEEE4typeES7_, symObjAddr: 0x1A5A0, symBinAddr: 0x10006A630, symSize: 0x20 }
  - { offsetInCU: 0x17BE9, offset: 0x17BE9, size: 0x8, addend: 0x0, symName: __ZNSt3__118__debug_db_erase_cB7v160006INS_6vectorIfNS_9allocatorIfEEEEEEvPT_, symObjAddr: 0x1A6F0, symBinAddr: 0x10006A780, symSize: 0x10 }
  - { offsetInCU: 0x17C1A, offset: 0x17C1A, size: 0x8, addend: 0x0, symName: __ZNSt3__1miB7v160006IPKP4FoodPS2_EEDTmicldtfp_4baseEcldtfp0_4baseEERKNS_11__wrap_iterIT_EERKNS7_IT0_EE, symObjAddr: 0x1A7E0, symBinAddr: 0x10006A870, symSize: 0x40 }
  - { offsetInCU: 0x17C66, offset: 0x17C66, size: 0x8, addend: 0x0, symName: __ZNSt3__1neB7v160006IPKP4FoodEEbRKNS_11__wrap_iterIT_EES9_, symObjAddr: 0x1A820, symBinAddr: 0x10006A8B0, symSize: 0x30 }
  - { offsetInCU: 0x17CA9, offset: 0x17CA9, size: 0x8, addend: 0x0, symName: __ZNSt3__14moveB7v160006IPP4FoodS3_EET0_T_S5_S4_, symObjAddr: 0x1A8B0, symBinAddr: 0x10006A940, symSize: 0x40 }
  - { offsetInCU: 0x17D03, offset: 0x17D03, size: 0x8, addend: 0x0, symName: __ZNSt3__1miB7v160006IPKP4FoodS4_EEDTmicldtfp_4baseEcldtfp0_4baseEERKNS_11__wrap_iterIT_EERKNS6_IT0_EE, symObjAddr: 0x1A8F0, symBinAddr: 0x10006A980, symSize: 0x40 }
  - { offsetInCU: 0x17D4F, offset: 0x17D4F, size: 0x8, addend: 0x0, symName: __ZNSt3__1eqB7v160006IPKP4FoodEEbRKNS_11__wrap_iterIT_EES9_, symObjAddr: 0x1A9B0, symBinAddr: 0x10006AA40, symSize: 0x40 }
  - { offsetInCU: 0x17D92, offset: 0x17D92, size: 0x8, addend: 0x0, symName: __ZNSt3__16__moveB7v160006INS_17_ClassicAlgPolicyEPP4FoodS4_S4_EENS_4pairIT0_T2_EES6_T1_S7_, symObjAddr: 0x1AA90, symBinAddr: 0x10006AB20, symSize: 0x40 }
  - { offsetInCU: 0x17DFE, offset: 0x17DFE, size: 0x8, addend: 0x0, symName: __ZNSt3__123__dispatch_copy_or_moveB7v160006INS_17_ClassicAlgPolicyENS_11__move_loopIS1_EENS_14__move_trivialEPP4FoodS7_S7_EENS_4pairIT2_T4_EES9_T3_SA_, symObjAddr: 0x1AAD0, symBinAddr: 0x10006AB60, symSize: 0x40 }
  - { offsetInCU: 0x17E7C, offset: 0x17E7C, size: 0x8, addend: 0x0, symName: __ZNSt3__121__unwrap_and_dispatchB7v160006INS_10__overloadINS_11__move_loopINS_17_ClassicAlgPolicyEEENS_14__move_trivialEEEPP4FoodS9_S9_Li0EEENS_4pairIT0_T2_EESB_T1_SC_, symObjAddr: 0x1AB10, symBinAddr: 0x10006ABA0, symSize: 0xB0 }
  - { offsetInCU: 0x17F0B, offset: 0x17F0B, size: 0x8, addend: 0x0, symName: __ZNSt3__114__unwrap_rangeB7v160006IPP4FoodS3_EENS_4pairIT0_S5_EET_S7_, symObjAddr: 0x1ABC0, symBinAddr: 0x10006AC50, symSize: 0x50 }
  - { offsetInCU: 0x1805A, offset: 0x1805A, size: 0x8, addend: 0x0, symName: __ZNSt3__113__unwrap_iterB7v160006IPP4FoodNS_18__unwrap_iter_implIS3_Lb1EEELi0EEEDTclsrT0_8__unwrapclsr3stdE7declvalIT_EEEES7_, symObjAddr: 0x1AC50, symBinAddr: 0x10006ACE0, symSize: 0x20 }
  - { offsetInCU: 0x1809E, offset: 0x1809E, size: 0x8, addend: 0x0, symName: __ZNSt3__19make_pairB7v160006IPP4FoodS3_EENS_4pairINS_18__unwrap_ref_decayIT_E4typeENS5_IT0_E4typeEEEOS6_OS9_, symObjAddr: 0x1AC70, symBinAddr: 0x10006AD00, symSize: 0x30 }
  - { offsetInCU: 0x180ED, offset: 0x180ED, size: 0x8, addend: 0x0, symName: __ZNSt3__114__rewrap_rangeB7v160006IPP4FoodS3_EET_S4_T0_, symObjAddr: 0x1ACA0, symBinAddr: 0x10006AD30, symSize: 0x30 }
  - { offsetInCU: 0x18139, offset: 0x18139, size: 0x8, addend: 0x0, symName: __ZNSt3__113__rewrap_iterB7v160006IPP4FoodS3_NS_18__unwrap_iter_implIS3_Lb1EEEEET_S6_T0_, symObjAddr: 0x1ACD0, symBinAddr: 0x10006AD60, symSize: 0x40 }
  - { offsetInCU: 0x1818E, offset: 0x1818E, size: 0x8, addend: 0x0, symName: __ZNSt3__119__copy_trivial_implB7v160006IP4FoodS2_EENS_4pairIPT_PT0_EES5_S5_S7_, symObjAddr: 0x1AD10, symBinAddr: 0x10006ADA0, symSize: 0x70 }
  - { offsetInCU: 0x181F6, offset: 0x181F6, size: 0x8, addend: 0x0, symName: __ZNSt3__19make_pairB7v160006IRPP4FoodS3_EENS_4pairINS_18__unwrap_ref_decayIT_E4typeENS6_IT0_E4typeEEEOS7_OSA_, symObjAddr: 0x1AD80, symBinAddr: 0x10006AE10, symSize: 0x30 }
  - { offsetInCU: 0x18298, offset: 0x18298, size: 0x8, addend: 0x0, symName: __ZNSt3__14findB7v160006INS_11__wrap_iterIPP4FoodEEDnEET_S6_S6_RKT0_, symObjAddr: 0x1AF30, symBinAddr: 0x10006AFC0, symSize: 0x70 }
  - { offsetInCU: 0x182F2, offset: 0x182F2, size: 0x8, addend: 0x0, symName: __ZNSt3__1neB7v160006IPKP6EntityEEbRKNS_11__wrap_iterIT_EES9_, symObjAddr: 0x1B380, symBinAddr: 0x10006B410, symSize: 0x30 }
  - { offsetInCU: 0x18335, offset: 0x18335, size: 0x8, addend: 0x0, symName: __ZNSt3__1miB7v160006IPKP6EntityS4_EEDTmicldtfp_4baseEcldtfp0_4baseEERKNS_11__wrap_iterIT_EERKNS6_IT0_EE, symObjAddr: 0x1B410, symBinAddr: 0x10006B4A0, symSize: 0x40 }
  - { offsetInCU: 0x18381, offset: 0x18381, size: 0x8, addend: 0x0, symName: __ZNSt3__1eqB7v160006IPKP6EntityEEbRKNS_11__wrap_iterIT_EES9_, symObjAddr: 0x1B460, symBinAddr: 0x10006B4F0, symSize: 0x40 }
  - { offsetInCU: 0x183C4, offset: 0x183C4, size: 0x8, addend: 0x0, symName: __ZNSt3__14findB7v160006INS_11__wrap_iterIPP6EntityEEDnEET_S6_S6_RKT0_, symObjAddr: 0x1B540, symBinAddr: 0x10006B5D0, symSize: 0x70 }
  - { offsetInCU: 0x1841E, offset: 0x1841E, size: 0x8, addend: 0x0, symName: __ZNSt3__1eqB7v160006IPP4WallEEbRKNS_11__wrap_iterIT_EES8_, symObjAddr: 0x1C800, symBinAddr: 0x10006C890, symSize: 0x40 }
  - { offsetInCU: 0x18461, offset: 0x18461, size: 0x8, addend: 0x0, symName: __ZNSt3__1eqB7v160006IPP4FoodEEbRKNS_11__wrap_iterIT_EES8_, symObjAddr: 0x1C860, symBinAddr: 0x10006C8F0, symSize: 0x40 }
  - { offsetInCU: 0x184A4, offset: 0x184A4, size: 0x8, addend: 0x0, symName: __ZNSt3__112__to_addressB7v160006IKcEEPT_S3_, symObjAddr: 0x1C8D0, symBinAddr: 0x10006C960, symSize: 0x10 }
  - { offsetInCU: 0x18D05, offset: 0x18D05, size: 0x8, addend: 0x0, symName: __ZSt28__throw_bad_array_new_lengthB7v160006v, symObjAddr: 0x6410, symBinAddr: 0x1000564A0, symSize: 0x40 }
  - { offsetInCU: 0x1A73D, offset: 0x1A73D, size: 0x8, addend: 0x0, symName: _walls, symObjAddr: 0xC3B38, symBinAddr: 0x1000F0EB8, symSize: 0x0 }
  - { offsetInCU: 0x1A752, offset: 0x1A752, size: 0x8, addend: 0x0, symName: _foods, symObjAddr: 0xC3B50, symBinAddr: 0x1000F0ED0, symSize: 0x0 }
  - { offsetInCU: 0x1A99F, offset: 0x1A99F, size: 0x8, addend: 0x0, symName: __ZNSt3__16vectorIP6NeuronNS_9allocatorIS2_EEE26__swap_out_circular_bufferERNS_14__split_bufferIS2_RS4_EE, symObjAddr: 0x5CD0, symBinAddr: 0x100055D60, symSize: 0x130 }
  - { offsetInCU: 0x1AA3A, offset: 0x1AA3A, size: 0x8, addend: 0x0, symName: __ZNSt3__16vectorINS0_IP6NeuronNS_9allocatorIS2_EEEENS3_IS5_EEE26__swap_out_circular_bufferERNS_14__split_bufferIS5_RS6_EE, symObjAddr: 0x8080, symBinAddr: 0x100058110, symSize: 0x130 }
  - { offsetInCU: 0x1AACB, offset: 0x1AACB, size: 0x8, addend: 0x0, symName: __ZNSt3__16vectorIP6WeightNS_9allocatorIS2_EEE26__swap_out_circular_bufferERNS_14__split_bufferIS2_RS4_EE, symObjAddr: 0x9DC0, symBinAddr: 0x100059E50, symSize: 0x130 }
  - { offsetInCU: 0x1AB70, offset: 0x1AB70, size: 0x8, addend: 0x0, symName: __ZNSt3__124uniform_int_distributionIiEclINS_23mersenne_twister_engineIjLm32ELm624ELm397ELm31ELj2567483615ELm11ELj4294967295ELm7ELj2636928640ELm15ELj4022730752ELm18ELj1812433253EEEEEiRT_RKNS1_10param_typeE, symObjAddr: 0xB500, symBinAddr: 0x10005B590, symSize: 0x150 }
  - { offsetInCU: 0x1AC23, offset: 0x1AC23, size: 0x8, addend: 0x0, symName: __ZNSt3__16vectorIP6EntityNS_9allocatorIS2_EEE26__swap_out_circular_bufferERNS_14__split_bufferIS2_RS4_EE, symObjAddr: 0xBD40, symBinAddr: 0x10005BDD0, symSize: 0x130 }
  - { offsetInCU: 0x1AC7F, offset: 0x1AC7F, size: 0x8, addend: 0x0, symName: __ZNSt3__16vectorIP4FoodNS_9allocatorIS2_EEE26__swap_out_circular_bufferERNS_14__split_bufferIS2_RS4_EE, symObjAddr: 0xD590, symBinAddr: 0x10005D620, symSize: 0x130 }
  - { offsetInCU: 0x1ACD4, offset: 0x1ACD4, size: 0x8, addend: 0x0, symName: __ZNSt3__16vectorIP4WallNS_9allocatorIS2_EEE26__swap_out_circular_bufferERNS_14__split_bufferIS2_RS4_EE, symObjAddr: 0xEBF0, symBinAddr: 0x10005EC80, symSize: 0x130 }
  - { offsetInCU: 0x1ADE2, offset: 0x1ADE2, size: 0x8, addend: 0x0, symName: __ZNSt3__16vectorIP6EntityNS_9allocatorIS2_EEE26__swap_out_circular_bufferERNS_14__split_bufferIS2_RS4_EEPS2_, symObjAddr: 0x14270, symBinAddr: 0x100064300, symSize: 0x170 }
  - { offsetInCU: 0x1AEA0, offset: 0x1AEA0, size: 0x8, addend: 0x0, symName: __ZNSt3__16vectorIfNS_9allocatorIfEEE26__swap_out_circular_bufferERNS_14__split_bufferIfRS2_EE, symObjAddr: 0x187E0, symBinAddr: 0x100068870, symSize: 0x130 }
  - { offsetInCU: 0x1AF3B, offset: 0x1AF3B, size: 0x8, addend: 0x0, symName: __Z3powB7v160006IfiENSt3__19enable_ifIXaasr3std13is_arithmeticIT_EE5valuesr3std13is_arithmeticIT0_EE5valueENS0_9__promoteIS2_S3_vEEE4type4typeES2_S3_, symObjAddr: 0x13230, symBinAddr: 0x1000632C0, symSize: 0x30 }
  - { offsetInCU: 0x1D0E2, offset: 0x1D0E2, size: 0x8, addend: 0x0, symName: __ZN10SimulationC1Eiiii, symObjAddr: 0x0, symBinAddr: 0x100050090, symSize: 0x40 }
  - { offsetInCU: 0x1D143, offset: 0x1D143, size: 0x8, addend: 0x0, symName: __ZN10SimulationD1Ev, symObjAddr: 0x40, symBinAddr: 0x1000500D0, symSize: 0x20 }
  - { offsetInCU: 0x1D16E, offset: 0x1D16E, size: 0x8, addend: 0x0, symName: __ZN10Simulation8GetWallsEv, symObjAddr: 0x60, symBinAddr: 0x1000500F0, symSize: 0x40 }
  - { offsetInCU: 0x1D193, offset: 0x1D193, size: 0x8, addend: 0x0, symName: __ZNSt3__16vectorIP4WallNS_9allocatorIS2_EEED1B7v160006Ev, symObjAddr: 0xA0, symBinAddr: 0x100050130, symSize: 0x20 }
  - { offsetInCU: 0x1D1BC, offset: 0x1D1BC, size: 0x8, addend: 0x0, symName: __ZN10Simulation11GetFoodListEv, symObjAddr: 0xC0, symBinAddr: 0x100050150, symSize: 0x30 }
  - { offsetInCU: 0x1D1E1, offset: 0x1D1E1, size: 0x8, addend: 0x0, symName: __ZNSt3__16vectorIP4FoodNS_9allocatorIS2_EEED1B7v160006Ev, symObjAddr: 0xF0, symBinAddr: 0x100050180, symSize: 0x20 }
  - { offsetInCU: 0x1D20A, offset: 0x1D20A, size: 0x8, addend: 0x0, symName: _main, symObjAddr: 0x110, symBinAddr: 0x1000501A0, symSize: 0x5E0 }
  - { offsetInCU: 0x1D325, offset: 0x1D325, size: 0x8, addend: 0x0, symName: __ZNSt3__112basic_stringIcNS_11char_traitsIcEENS_9allocatorIcEEEC1B7v160006Ev, symObjAddr: 0x6F0, symBinAddr: 0x100050780, symSize: 0x20 }
  - { offsetInCU: 0x1D34E, offset: 0x1D34E, size: 0x8, addend: 0x0, symName: __ZN10Simulation10DoGameTickEv, symObjAddr: 0x710, symBinAddr: 0x1000507A0, symSize: 0x2080 }
  - { offsetInCU: 0x1D5BC, offset: 0x1D5BC, size: 0x8, addend: 0x0, symName: __ZNSt3__16vectorIP4WallNS_9allocatorIS2_EEE5beginB7v160006Ev, symObjAddr: 0x2790, symBinAddr: 0x100052820, symSize: 0x30 }
  - { offsetInCU: 0x1D5E2, offset: 0x1D5E2, size: 0x8, addend: 0x0, symName: __ZNSt3__16vectorIP4WallNS_9allocatorIS2_EEE3endB7v160006Ev, symObjAddr: 0x27C0, symBinAddr: 0x100052850, symSize: 0x30 }
  - { offsetInCU: 0x1D609, offset: 0x1D609, size: 0x8, addend: 0x0, symName: __ZNKSt3__111__wrap_iterIPP4WallEdeB7v160006Ev, symObjAddr: 0x2820, symBinAddr: 0x1000528B0, symSize: 0x20 }
  - { offsetInCU: 0x1D62E, offset: 0x1D62E, size: 0x8, addend: 0x0, symName: __ZN4Wall8DrawWallEv, symObjAddr: 0x2840, symBinAddr: 0x1000528D0, symSize: 0xA0 }
  - { offsetInCU: 0x1D653, offset: 0x1D653, size: 0x8, addend: 0x0, symName: __ZNSt3__111__wrap_iterIPP4WallEppB7v160006Ev, symObjAddr: 0x28E0, symBinAddr: 0x100052970, symSize: 0x20 }
  - { offsetInCU: 0x1D677, offset: 0x1D677, size: 0x8, addend: 0x0, symName: __ZNSt3__16vectorIP4FoodNS_9allocatorIS2_EEE5beginB7v160006Ev, symObjAddr: 0x2900, symBinAddr: 0x100052990, symSize: 0x30 }
  - { offsetInCU: 0x1D69D, offset: 0x1D69D, size: 0x8, addend: 0x0, symName: __ZNSt3__16vectorIP4FoodNS_9allocatorIS2_EEE3endB7v160006Ev, symObjAddr: 0x2930, symBinAddr: 0x1000529C0, symSize: 0x30 }
  - { offsetInCU: 0x1D6C4, offset: 0x1D6C4, size: 0x8, addend: 0x0, symName: __ZNKSt3__111__wrap_iterIPP4FoodEdeB7v160006Ev, symObjAddr: 0x2990, symBinAddr: 0x100052A20, symSize: 0x20 }
  - { offsetInCU: 0x1D6E9, offset: 0x1D6E9, size: 0x8, addend: 0x0, symName: __ZN4Food8DrawFoodEv, symObjAddr: 0x29B0, symBinAddr: 0x100052A40, symSize: 0xE0 }
  - { offsetInCU: 0x1D71C, offset: 0x1D71C, size: 0x8, addend: 0x0, symName: __ZNSt3__111__wrap_iterIPP4FoodEppB7v160006Ev, symObjAddr: 0x2A90, symBinAddr: 0x100052B20, symSize: 0x20 }
  - { offsetInCU: 0x1D741, offset: 0x1D741, size: 0x8, addend: 0x0, symName: __ZN10Simulation11GetPredListEv, symObjAddr: 0x2AB0, symBinAddr: 0x100052B40, symSize: 0x30 }
  - { offsetInCU: 0x1D766, offset: 0x1D766, size: 0x8, addend: 0x0, symName: __ZNKSt3__16vectorIP6EntityNS_9allocatorIS2_EEE4sizeB7v160006Ev, symObjAddr: 0x2AE0, symBinAddr: 0x100052B70, symSize: 0x20 }
  - { offsetInCU: 0x1D78B, offset: 0x1D78B, size: 0x8, addend: 0x0, symName: __ZNSt3__16vectorIP6EntityNS_9allocatorIS2_EEED1B7v160006Ev, symObjAddr: 0x2B00, symBinAddr: 0x100052B90, symSize: 0x20 }
  - { offsetInCU: 0x1D7B3, offset: 0x1D7B3, size: 0x8, addend: 0x0, symName: __ZNSt3__16vectorIP6EntityNS_9allocatorIS2_EEEixB7v160006Em, symObjAddr: 0x2B20, symBinAddr: 0x100052BB0, symSize: 0x20 }
  - { offsetInCU: 0x1D7E9, offset: 0x1D7E9, size: 0x8, addend: 0x0, symName: __ZN6Entity10drawEntityEv, symObjAddr: 0x2B40, symBinAddr: 0x100052BD0, symSize: 0x490 }
  - { offsetInCU: 0x1D86B, offset: 0x1D86B, size: 0x8, addend: 0x0, symName: __ZN10Simulation11GetPreyListEv, symObjAddr: 0x2FD0, symBinAddr: 0x100053060, symSize: 0x30 }
  - { offsetInCU: 0x1D890, offset: 0x1D890, size: 0x8, addend: 0x0, symName: __ZNSt3__112basic_stringIcNS_11char_traitsIcEENS_9allocatorIcEEEaSB7v160006EOS5_, symObjAddr: 0x3000, symBinAddr: 0x100053090, symSize: 0x30 }
  - { offsetInCU: 0x1D8C4, offset: 0x1D8C4, size: 0x8, addend: 0x0, symName: __ZNKSt3__112basic_stringIcNS_11char_traitsIcEENS_9allocatorIcEEE5c_strB7v160006Ev, symObjAddr: 0x3030, symBinAddr: 0x1000530C0, symSize: 0x20 }
  - { offsetInCU: 0x1D8E9, offset: 0x1D8E9, size: 0x8, addend: 0x0, symName: __ZN10SimulationC2Eiiii, symObjAddr: 0x3050, symBinAddr: 0x1000530E0, symSize: 0x530 }
  - { offsetInCU: 0x1D9E0, offset: 0x1D9E0, size: 0x8, addend: 0x0, symName: __ZNSt3__16vectorIP6EntityNS_9allocatorIS2_EEEC1B7v160006Ev, symObjAddr: 0x3580, symBinAddr: 0x100053610, symSize: 0x20 }
  - { offsetInCU: 0x1DA09, offset: 0x1DA09, size: 0x8, addend: 0x0, symName: __ZNSt3__16vectorIP4FoodNS_9allocatorIS2_EEEC1B7v160006Ev, symObjAddr: 0x35A0, symBinAddr: 0x100053630, symSize: 0x20 }
  - { offsetInCU: 0x1DA32, offset: 0x1DA32, size: 0x8, addend: 0x0, symName: __ZNSt3__16vectorIP6NeuronNS_9allocatorIS2_EEEC1B7v160006Ev, symObjAddr: 0x35C0, symBinAddr: 0x100053650, symSize: 0x20 }
  - { offsetInCU: 0x1DA5B, offset: 0x1DA5B, size: 0x8, addend: 0x0, symName: __ZNSt3__16vectorIP6WeightNS_9allocatorIS2_EEEC1B7v160006Ev, symObjAddr: 0x35E0, symBinAddr: 0x100053670, symSize: 0x20 }
  - { offsetInCU: 0x1DA84, offset: 0x1DA84, size: 0x8, addend: 0x0, symName: __ZNSt3__16vectorIP4WallNS_9allocatorIS2_EEEC1B7v160006Ev, symObjAddr: 0x3600, symBinAddr: 0x100053690, symSize: 0x20 }
  - { offsetInCU: 0x1DAAD, offset: 0x1DAAD, size: 0x8, addend: 0x0, symName: __ZN6EntityC1Ebii, symObjAddr: 0x3620, symBinAddr: 0x1000536B0, symSize: 0x40 }
  - { offsetInCU: 0x1DAFF, offset: 0x1DAFF, size: 0x8, addend: 0x0, symName: __ZNSt3__16vectorIP6EntityNS_9allocatorIS2_EEE9push_backB7v160006ERKS2_, symObjAddr: 0x3660, symBinAddr: 0x1000536F0, symSize: 0x60 }
  - { offsetInCU: 0x1DB35, offset: 0x1DB35, size: 0x8, addend: 0x0, symName: __ZN4FoodC1Eii, symObjAddr: 0x36C0, symBinAddr: 0x100053750, symSize: 0x30 }
  - { offsetInCU: 0x1DB79, offset: 0x1DB79, size: 0x8, addend: 0x0, symName: __ZNSt3__16vectorIP4FoodNS_9allocatorIS2_EEE9push_backB7v160006ERKS2_, symObjAddr: 0x36F0, symBinAddr: 0x100053780, symSize: 0x60 }
  - { offsetInCU: 0x1DBAE, offset: 0x1DBAE, size: 0x8, addend: 0x0, symName: __ZNSt3__16vectorIP4WallNS_9allocatorIS2_EEE9push_backB7v160006EOS2_, symObjAddr: 0x3750, symBinAddr: 0x1000537E0, symSize: 0x60 }
  - { offsetInCU: 0x1DBE4, offset: 0x1DBE4, size: 0x8, addend: 0x0, symName: __ZN4WallC1Eiiiii, symObjAddr: 0x37B0, symBinAddr: 0x100053840, symSize: 0x40 }
  - { offsetInCU: 0x1DC53, offset: 0x1DC53, size: 0x8, addend: 0x0, symName: __ZNSt3__16vectorIP6WeightNS_9allocatorIS2_EEED1B7v160006Ev, symObjAddr: 0x37F0, symBinAddr: 0x100053880, symSize: 0x20 }
  - { offsetInCU: 0x1DC7C, offset: 0x1DC7C, size: 0x8, addend: 0x0, symName: __ZNSt3__16vectorIP6NeuronNS_9allocatorIS2_EEED1B7v160006Ev, symObjAddr: 0x3810, symBinAddr: 0x1000538A0, symSize: 0x20 }
  - { offsetInCU: 0x1DCA5, offset: 0x1DCA5, size: 0x8, addend: 0x0, symName: __ZNSt3__16vectorIP6EntityNS_9allocatorIS2_EEEC2B7v160006Ev, symObjAddr: 0x3830, symBinAddr: 0x1000538C0, symSize: 0x60 }
  - { offsetInCU: 0x1DCD8, offset: 0x1DCD8, size: 0x8, addend: 0x0, symName: __ZNSt3__117__compressed_pairIPP6EntityNS_9allocatorIS2_EEEC1B7v160006IDnNS_18__default_init_tagEEEOT_OT0_, symObjAddr: 0x3890, symBinAddr: 0x100053920, symSize: 0x30 }
  - { offsetInCU: 0x1DD2F, offset: 0x1DD2F, size: 0x8, addend: 0x0, symName: __ZNSt3__117__compressed_pairIPP6EntityNS_9allocatorIS2_EEEC2B7v160006IDnNS_18__default_init_tagEEEOT_OT0_, symObjAddr: 0x38E0, symBinAddr: 0x100053970, symSize: 0x40 }
  - { offsetInCU: 0x1DD86, offset: 0x1DD86, size: 0x8, addend: 0x0, symName: __ZNSt3__122__compressed_pair_elemIPP6EntityLi0ELb0EEC2B7v160006IDnvEEOT_, symObjAddr: 0x3920, symBinAddr: 0x1000539B0, symSize: 0x20 }
  - { offsetInCU: 0x1DDC7, offset: 0x1DDC7, size: 0x8, addend: 0x0, symName: __ZNSt3__122__compressed_pair_elemINS_9allocatorIP6EntityEELi1ELb1EEC2B7v160006ENS_18__default_init_tagE, symObjAddr: 0x3940, symBinAddr: 0x1000539D0, symSize: 0x20 }
  - { offsetInCU: 0x1DDFA, offset: 0x1DDFA, size: 0x8, addend: 0x0, symName: __ZNSt3__19allocatorIP6EntityEC2B7v160006Ev, symObjAddr: 0x3960, symBinAddr: 0x1000539F0, symSize: 0x20 }
  - { offsetInCU: 0x1DE23, offset: 0x1DE23, size: 0x8, addend: 0x0, symName: __ZNSt3__116__non_trivial_ifILb1ENS_9allocatorIP6EntityEEEC2B7v160006Ev, symObjAddr: 0x3980, symBinAddr: 0x100053A10, symSize: 0x10 }
  - { offsetInCU: 0x1DE4C, offset: 0x1DE4C, size: 0x8, addend: 0x0, symName: __ZNSt3__16vectorIP4FoodNS_9allocatorIS2_EEEC2B7v160006Ev, symObjAddr: 0x3990, symBinAddr: 0x100053A20, symSize: 0x60 }
  - { offsetInCU: 0x1DE75, offset: 0x1DE75, size: 0x8, addend: 0x0, symName: __ZNSt3__117__compressed_pairIPP4FoodNS_9allocatorIS2_EEEC1B7v160006IDnNS_18__default_init_tagEEEOT_OT0_, symObjAddr: 0x39F0, symBinAddr: 0x100053A80, symSize: 0x30 }
  - { offsetInCU: 0x1DECC, offset: 0x1DECC, size: 0x8, addend: 0x0, symName: __ZNSt3__117__compressed_pairIPP4FoodNS_9allocatorIS2_EEEC2B7v160006IDnNS_18__default_init_tagEEEOT_OT0_, symObjAddr: 0x3A30, symBinAddr: 0x100053AC0, symSize: 0x40 }
  - { offsetInCU: 0x1DF23, offset: 0x1DF23, size: 0x8, addend: 0x0, symName: __ZNSt3__122__compressed_pair_elemIPP4FoodLi0ELb0EEC2B7v160006IDnvEEOT_, symObjAddr: 0x3A70, symBinAddr: 0x100053B00, symSize: 0x20 }
  - { offsetInCU: 0x1DF64, offset: 0x1DF64, size: 0x8, addend: 0x0, symName: __ZNSt3__122__compressed_pair_elemINS_9allocatorIP4FoodEELi1ELb1EEC2B7v160006ENS_18__default_init_tagE, symObjAddr: 0x3A90, symBinAddr: 0x100053B20, symSize: 0x20 }
  - { offsetInCU: 0x1DF97, offset: 0x1DF97, size: 0x8, addend: 0x0, symName: __ZNSt3__19allocatorIP4FoodEC2B7v160006Ev, symObjAddr: 0x3AB0, symBinAddr: 0x100053B40, symSize: 0x20 }
  - { offsetInCU: 0x1DFC0, offset: 0x1DFC0, size: 0x8, addend: 0x0, symName: __ZNSt3__116__non_trivial_ifILb1ENS_9allocatorIP4FoodEEEC2B7v160006Ev, symObjAddr: 0x3AD0, symBinAddr: 0x100053B60, symSize: 0x10 }
  - { offsetInCU: 0x1DFE9, offset: 0x1DFE9, size: 0x8, addend: 0x0, symName: __ZNSt3__16vectorIP6NeuronNS_9allocatorIS2_EEEC2B7v160006Ev, symObjAddr: 0x3AE0, symBinAddr: 0x100053B70, symSize: 0x60 }
  - { offsetInCU: 0x1E012, offset: 0x1E012, size: 0x8, addend: 0x0, symName: __ZNSt3__117__compressed_pairIPP6NeuronNS_9allocatorIS2_EEEC1B7v160006IDnNS_18__default_init_tagEEEOT_OT0_, symObjAddr: 0x3B40, symBinAddr: 0x100053BD0, symSize: 0x30 }
  - { offsetInCU: 0x1E069, offset: 0x1E069, size: 0x8, addend: 0x0, symName: __ZNSt3__117__compressed_pairIPP6NeuronNS_9allocatorIS2_EEEC2B7v160006IDnNS_18__default_init_tagEEEOT_OT0_, symObjAddr: 0x3B80, symBinAddr: 0x100053C10, symSize: 0x40 }
  - { offsetInCU: 0x1E0C0, offset: 0x1E0C0, size: 0x8, addend: 0x0, symName: __ZNSt3__122__compressed_pair_elemIPP6NeuronLi0ELb0EEC2B7v160006IDnvEEOT_, symObjAddr: 0x3BC0, symBinAddr: 0x100053C50, symSize: 0x20 }
  - { offsetInCU: 0x1E101, offset: 0x1E101, size: 0x8, addend: 0x0, symName: __ZNSt3__122__compressed_pair_elemINS_9allocatorIP6NeuronEELi1ELb1EEC2B7v160006ENS_18__default_init_tagE, symObjAddr: 0x3BE0, symBinAddr: 0x100053C70, symSize: 0x20 }
  - { offsetInCU: 0x1E134, offset: 0x1E134, size: 0x8, addend: 0x0, symName: __ZNSt3__19allocatorIP6NeuronEC2B7v160006Ev, symObjAddr: 0x3C00, symBinAddr: 0x100053C90, symSize: 0x20 }
  - { offsetInCU: 0x1E15D, offset: 0x1E15D, size: 0x8, addend: 0x0, symName: __ZNSt3__116__non_trivial_ifILb1ENS_9allocatorIP6NeuronEEEC2B7v160006Ev, symObjAddr: 0x3C20, symBinAddr: 0x100053CB0, symSize: 0x10 }
  - { offsetInCU: 0x1E186, offset: 0x1E186, size: 0x8, addend: 0x0, symName: __ZNSt3__16vectorIP6WeightNS_9allocatorIS2_EEEC2B7v160006Ev, symObjAddr: 0x3C30, symBinAddr: 0x100053CC0, symSize: 0x60 }
  - { offsetInCU: 0x1E1AF, offset: 0x1E1AF, size: 0x8, addend: 0x0, symName: __ZNSt3__117__compressed_pairIPP6WeightNS_9allocatorIS2_EEEC1B7v160006IDnNS_18__default_init_tagEEEOT_OT0_, symObjAddr: 0x3C90, symBinAddr: 0x100053D20, symSize: 0x30 }
  - { offsetInCU: 0x1E206, offset: 0x1E206, size: 0x8, addend: 0x0, symName: __ZNSt3__117__compressed_pairIPP6WeightNS_9allocatorIS2_EEEC2B7v160006IDnNS_18__default_init_tagEEEOT_OT0_, symObjAddr: 0x3CD0, symBinAddr: 0x100053D60, symSize: 0x40 }
  - { offsetInCU: 0x1E25D, offset: 0x1E25D, size: 0x8, addend: 0x0, symName: __ZNSt3__122__compressed_pair_elemIPP6WeightLi0ELb0EEC2B7v160006IDnvEEOT_, symObjAddr: 0x3D10, symBinAddr: 0x100053DA0, symSize: 0x20 }
  - { offsetInCU: 0x1E29E, offset: 0x1E29E, size: 0x8, addend: 0x0, symName: __ZNSt3__122__compressed_pair_elemINS_9allocatorIP6WeightEELi1ELb1EEC2B7v160006ENS_18__default_init_tagE, symObjAddr: 0x3D30, symBinAddr: 0x100053DC0, symSize: 0x20 }
  - { offsetInCU: 0x1E2D1, offset: 0x1E2D1, size: 0x8, addend: 0x0, symName: __ZNSt3__19allocatorIP6WeightEC2B7v160006Ev, symObjAddr: 0x3D50, symBinAddr: 0x100053DE0, symSize: 0x20 }
  - { offsetInCU: 0x1E2FA, offset: 0x1E2FA, size: 0x8, addend: 0x0, symName: __ZNSt3__116__non_trivial_ifILb1ENS_9allocatorIP6WeightEEEC2B7v160006Ev, symObjAddr: 0x3D70, symBinAddr: 0x100053E00, symSize: 0x10 }
  - { offsetInCU: 0x1E323, offset: 0x1E323, size: 0x8, addend: 0x0, symName: __ZNSt3__16vectorIP4WallNS_9allocatorIS2_EEEC2B7v160006Ev, symObjAddr: 0x3D80, symBinAddr: 0x100053E10, symSize: 0x60 }
  - { offsetInCU: 0x1E34C, offset: 0x1E34C, size: 0x8, addend: 0x0, symName: __ZNSt3__117__compressed_pairIPP4WallNS_9allocatorIS2_EEEC1B7v160006IDnNS_18__default_init_tagEEEOT_OT0_, symObjAddr: 0x3DE0, symBinAddr: 0x100053E70, symSize: 0x30 }
  - { offsetInCU: 0x1E3A3, offset: 0x1E3A3, size: 0x8, addend: 0x0, symName: __ZNSt3__117__compressed_pairIPP4WallNS_9allocatorIS2_EEEC2B7v160006IDnNS_18__default_init_tagEEEOT_OT0_, symObjAddr: 0x3E20, symBinAddr: 0x100053EB0, symSize: 0x40 }
  - { offsetInCU: 0x1E3FA, offset: 0x1E3FA, size: 0x8, addend: 0x0, symName: __ZNSt3__122__compressed_pair_elemIPP4WallLi0ELb0EEC2B7v160006IDnvEEOT_, symObjAddr: 0x3E60, symBinAddr: 0x100053EF0, symSize: 0x20 }
  - { offsetInCU: 0x1E43B, offset: 0x1E43B, size: 0x8, addend: 0x0, symName: __ZNSt3__122__compressed_pair_elemINS_9allocatorIP4WallEELi1ELb1EEC2B7v160006ENS_18__default_init_tagE, symObjAddr: 0x3E80, symBinAddr: 0x100053F10, symSize: 0x20 }
  - { offsetInCU: 0x1E46E, offset: 0x1E46E, size: 0x8, addend: 0x0, symName: __ZNSt3__19allocatorIP4WallEC2B7v160006Ev, symObjAddr: 0x3EA0, symBinAddr: 0x100053F30, symSize: 0x20 }
  - { offsetInCU: 0x1E497, offset: 0x1E497, size: 0x8, addend: 0x0, symName: __ZNSt3__116__non_trivial_ifILb1ENS_9allocatorIP4WallEEEC2B7v160006Ev, symObjAddr: 0x3EC0, symBinAddr: 0x100053F50, symSize: 0x10 }
  - { offsetInCU: 0x1E4C0, offset: 0x1E4C0, size: 0x8, addend: 0x0, symName: __ZN6EntityC2Ebii, symObjAddr: 0x3ED0, symBinAddr: 0x100053F60, symSize: 0x5A0 }
  - { offsetInCU: 0x1E581, offset: 0x1E581, size: 0x8, addend: 0x0, symName: __ZNSt3__15tupleIJP6EntityfEEC1B7v160006INS_37__is_implicitly_default_constructibleELi0EEEv, symObjAddr: 0x4470, symBinAddr: 0x100054500, symSize: 0x20 }
  - { offsetInCU: 0x1E5B9, offset: 0x1E5B9, size: 0x8, addend: 0x0, symName: __ZNSt3__15tupleIJP4WallfEEC1B7v160006INS_37__is_implicitly_default_constructibleELi0EEEv, symObjAddr: 0x4490, symBinAddr: 0x100054520, symSize: 0x20 }
  - { offsetInCU: 0x1E5F1, offset: 0x1E5F1, size: 0x8, addend: 0x0, symName: __ZNSt3__15tupleIJP4FoodfEEC1B7v160006INS_37__is_implicitly_default_constructibleELi0EEEv, symObjAddr: 0x44B0, symBinAddr: 0x100054540, symSize: 0x20 }
  - { offsetInCU: 0x1E6B5, offset: 0x1E6B5, size: 0x8, addend: 0x0, symName: __ZNSt3__15tupleIJP6EntityfEEaSB7v160006IJDniELi0EEERS3_ONS0_IJDpT_EEE, symObjAddr: 0x4500, symBinAddr: 0x100054590, symSize: 0x40 }
  - { offsetInCU: 0x1E6FF, offset: 0x1E6FF, size: 0x8, addend: 0x0, symName: __ZNSt3__15tupleIJP4WallfEEaSB7v160006IJDniELi0EEERS3_ONS0_IJDpT_EEE, symObjAddr: 0x4540, symBinAddr: 0x1000545D0, symSize: 0x40 }
  - { offsetInCU: 0x1E749, offset: 0x1E749, size: 0x8, addend: 0x0, symName: __ZNSt3__15tupleIJP4FoodfEEaSB7v160006IJDniELi0EEERS3_ONS0_IJDpT_EEE, symObjAddr: 0x4580, symBinAddr: 0x100054610, symSize: 0x40 }
  - { offsetInCU: 0x1E793, offset: 0x1E793, size: 0x8, addend: 0x0, symName: __ZN13NeuralNetworkC1Eiiii, symObjAddr: 0x45C0, symBinAddr: 0x100054650, symSize: 0x40 }
  - { offsetInCU: 0x1E80D, offset: 0x1E80D, size: 0x8, addend: 0x0, symName: __ZNSt3__113random_deviceC1Ev, symObjAddr: 0x4600, symBinAddr: 0x100054690, symSize: 0x70 }
  - { offsetInCU: 0x1E836, offset: 0x1E836, size: 0x8, addend: 0x0, symName: __ZNSt3__123mersenne_twister_engineIjLm32ELm624ELm397ELm31ELj2567483615ELm11ELj4294967295ELm7ELj2636928640ELm15ELj4022730752ELm18ELj1812433253EEC1B7v160006Ej, symObjAddr: 0x4670, symBinAddr: 0x100054700, symSize: 0x30 }
  - { offsetInCU: 0x1E86D, offset: 0x1E86D, size: 0x8, addend: 0x0, symName: __ZNSt3__124uniform_int_distributionIiEC1Eii, symObjAddr: 0x46A0, symBinAddr: 0x100054730, symSize: 0x30 }
  - { offsetInCU: 0x1E8B2, offset: 0x1E8B2, size: 0x8, addend: 0x0, symName: __ZNSt3__124uniform_int_distributionIiEclINS_23mersenne_twister_engineIjLm32ELm624ELm397ELm31ELj2567483615ELm11ELj4294967295ELm7ELj2636928640ELm15ELj4022730752ELm18ELj1812433253EEEEEiRT_, symObjAddr: 0x46D0, symBinAddr: 0x100054760, symSize: 0x30 }
  - { offsetInCU: 0x1E8EE, offset: 0x1E8EE, size: 0x8, addend: 0x0, symName: __ZNSt3__15tupleIJP6EntityfEEC2B7v160006INS_37__is_implicitly_default_constructibleELi0EEEv, symObjAddr: 0x4700, symBinAddr: 0x100054790, symSize: 0x20 }
  - { offsetInCU: 0x1E926, offset: 0x1E926, size: 0x8, addend: 0x0, symName: __ZNSt3__112__tuple_implINS_15__tuple_indicesIJLm0ELm1EEEEJP6EntityfEEC1B7v160006Ev, symObjAddr: 0x4720, symBinAddr: 0x1000547B0, symSize: 0x20 }
  - { offsetInCU: 0x1E94F, offset: 0x1E94F, size: 0x8, addend: 0x0, symName: __ZNSt3__112__tuple_implINS_15__tuple_indicesIJLm0ELm1EEEEJP6EntityfEEC2B7v160006Ev, symObjAddr: 0x4740, symBinAddr: 0x1000547D0, symSize: 0x30 }
  - { offsetInCU: 0x1E978, offset: 0x1E978, size: 0x8, addend: 0x0, symName: __ZNSt3__112__tuple_leafILm0EP6EntityLb0EEC2B7v160006Ev, symObjAddr: 0x4770, symBinAddr: 0x100054800, symSize: 0x20 }
  - { offsetInCU: 0x1E9A1, offset: 0x1E9A1, size: 0x8, addend: 0x0, symName: __ZNSt3__112__tuple_leafILm1EfLb0EEC2B7v160006Ev, symObjAddr: 0x4790, symBinAddr: 0x100054820, symSize: 0x20 }
  - { offsetInCU: 0x1E9CA, offset: 0x1E9CA, size: 0x8, addend: 0x0, symName: __ZNSt3__15tupleIJP4WallfEEC2B7v160006INS_37__is_implicitly_default_constructibleELi0EEEv, symObjAddr: 0x47B0, symBinAddr: 0x100054840, symSize: 0x20 }
  - { offsetInCU: 0x1EA02, offset: 0x1EA02, size: 0x8, addend: 0x0, symName: __ZNSt3__112__tuple_implINS_15__tuple_indicesIJLm0ELm1EEEEJP4WallfEEC1B7v160006Ev, symObjAddr: 0x47D0, symBinAddr: 0x100054860, symSize: 0x20 }
  - { offsetInCU: 0x1EA2B, offset: 0x1EA2B, size: 0x8, addend: 0x0, symName: __ZNSt3__112__tuple_implINS_15__tuple_indicesIJLm0ELm1EEEEJP4WallfEEC2B7v160006Ev, symObjAddr: 0x47F0, symBinAddr: 0x100054880, symSize: 0x30 }
  - { offsetInCU: 0x1EA54, offset: 0x1EA54, size: 0x8, addend: 0x0, symName: __ZNSt3__112__tuple_leafILm0EP4WallLb0EEC2B7v160006Ev, symObjAddr: 0x4820, symBinAddr: 0x1000548B0, symSize: 0x20 }
  - { offsetInCU: 0x1EA7D, offset: 0x1EA7D, size: 0x8, addend: 0x0, symName: __ZNSt3__15tupleIJP4FoodfEEC2B7v160006INS_37__is_implicitly_default_constructibleELi0EEEv, symObjAddr: 0x4840, symBinAddr: 0x1000548D0, symSize: 0x20 }
  - { offsetInCU: 0x1EAB5, offset: 0x1EAB5, size: 0x8, addend: 0x0, symName: __ZNSt3__112__tuple_implINS_15__tuple_indicesIJLm0ELm1EEEEJP4FoodfEEC1B7v160006Ev, symObjAddr: 0x4860, symBinAddr: 0x1000548F0, symSize: 0x20 }
  - { offsetInCU: 0x1EADE, offset: 0x1EADE, size: 0x8, addend: 0x0, symName: __ZNSt3__112__tuple_implINS_15__tuple_indicesIJLm0ELm1EEEEJP4FoodfEEC2B7v160006Ev, symObjAddr: 0x4880, symBinAddr: 0x100054910, symSize: 0x30 }
  - { offsetInCU: 0x1EB07, offset: 0x1EB07, size: 0x8, addend: 0x0, symName: __ZNSt3__112__tuple_leafILm0EP4FoodLb0EEC2B7v160006Ev, symObjAddr: 0x48B0, symBinAddr: 0x100054940, symSize: 0x20 }
  - { offsetInCU: 0x1EB35, offset: 0x1EB35, size: 0x8, addend: 0x0, symName: __ZNSt3__15tupleIJDniEEC1B7v160006IJDniELi0EEEDpOT_, symObjAddr: 0x48D0, symBinAddr: 0x100054960, symSize: 0x30 }
  - { offsetInCU: 0x1EB92, offset: 0x1EB92, size: 0x8, addend: 0x0, symName: __ZNSt3__15tupleIJDniEEC2B7v160006IJDniELi0EEEDpOT_, symObjAddr: 0x4900, symBinAddr: 0x100054990, symSize: 0x30 }
  - { offsetInCU: 0x1EBEF, offset: 0x1EBEF, size: 0x8, addend: 0x0, symName: __ZNSt3__112__tuple_implINS_15__tuple_indicesIJLm0ELm1EEEEJDniEEC1B7v160006IJLm0ELm1EEJDniEJEJEJDniEEENS1_IJXspT_EEEENS_13__tuple_typesIJDpT0_EEENS1_IJXspT1_EEEENS6_IJDpT2_EEEDpOT3_, symObjAddr: 0x4930, symBinAddr: 0x1000549C0, symSize: 0x30 }
  - { offsetInCU: 0x1EC9E, offset: 0x1EC9E, size: 0x8, addend: 0x0, symName: __ZNSt3__112__tuple_implINS_15__tuple_indicesIJLm0ELm1EEEEJDniEEC2B7v160006IJLm0ELm1EEJDniEJEJEJDniEEENS1_IJXspT_EEEENS_13__tuple_typesIJDpT0_EEENS1_IJXspT1_EEEENS6_IJDpT2_EEEDpOT3_, symObjAddr: 0x4960, symBinAddr: 0x1000549F0, symSize: 0x40 }
  - { offsetInCU: 0x1ED4D, offset: 0x1ED4D, size: 0x8, addend: 0x0, symName: __ZNSt3__112__tuple_leafILm0EDnLb0EEC2B7v160006IDnvEEOT_, symObjAddr: 0x49A0, symBinAddr: 0x100054A30, symSize: 0x20 }
  - { offsetInCU: 0x1ED8F, offset: 0x1ED8F, size: 0x8, addend: 0x0, symName: __ZNSt3__112__tuple_leafILm1EiLb0EEC2B7v160006IivEEOT_, symObjAddr: 0x49C0, symBinAddr: 0x100054A50, symSize: 0x20 }
  - { offsetInCU: 0x1EDD1, offset: 0x1EDD1, size: 0x8, addend: 0x0, symName: __ZNSt3__112__tuple_leafILm0EDnLb0EE3getB7v160006Ev, symObjAddr: 0x4AE0, symBinAddr: 0x100054B70, symSize: 0x10 }
  - { offsetInCU: 0x1EDF6, offset: 0x1EDF6, size: 0x8, addend: 0x0, symName: __ZNSt3__112__tuple_leafILm0EP6EntityLb0EE3getB7v160006Ev, symObjAddr: 0x4AF0, symBinAddr: 0x100054B80, symSize: 0x10 }
  - { offsetInCU: 0x1EE1B, offset: 0x1EE1B, size: 0x8, addend: 0x0, symName: __ZNSt3__112__tuple_leafILm1EiLb0EE3getB7v160006Ev, symObjAddr: 0x4B00, symBinAddr: 0x100054B90, symSize: 0x10 }
  - { offsetInCU: 0x1EE40, offset: 0x1EE40, size: 0x8, addend: 0x0, symName: __ZNSt3__112__tuple_leafILm1EfLb0EE3getB7v160006Ev, symObjAddr: 0x4B10, symBinAddr: 0x100054BA0, symSize: 0x10 }
  - { offsetInCU: 0x1EE65, offset: 0x1EE65, size: 0x8, addend: 0x0, symName: __ZNSt3__112__tuple_leafILm0EP4WallLb0EE3getB7v160006Ev, symObjAddr: 0x4BD0, symBinAddr: 0x100054C60, symSize: 0x10 }
  - { offsetInCU: 0x1EE8A, offset: 0x1EE8A, size: 0x8, addend: 0x0, symName: __ZNSt3__112__tuple_leafILm0EP4FoodLb0EE3getB7v160006Ev, symObjAddr: 0x4C90, symBinAddr: 0x100054D20, symSize: 0x10 }
  - { offsetInCU: 0x1EEAF, offset: 0x1EEAF, size: 0x8, addend: 0x0, symName: __ZN13NeuralNetworkC2Eiiii, symObjAddr: 0x4CA0, symBinAddr: 0x100054D30, symSize: 0xE0 }
  - { offsetInCU: 0x1EF10, offset: 0x1EF10, size: 0x8, addend: 0x0, symName: __ZNSt3__16vectorINS0_IP6NeuronNS_9allocatorIS2_EEEENS3_IS5_EEEC1B7v160006Ev, symObjAddr: 0x4D80, symBinAddr: 0x100054E10, symSize: 0x20 }
  - { offsetInCU: 0x1EF39, offset: 0x1EF39, size: 0x8, addend: 0x0, symName: __ZN13NeuralNetwork18buildNeuralNetworkEv, symObjAddr: 0x4DA0, symBinAddr: 0x100054E30, symSize: 0x620 }
  - { offsetInCU: 0x1F133, offset: 0x1F133, size: 0x8, addend: 0x0, symName: __ZNSt3__16vectorINS0_IP6NeuronNS_9allocatorIS2_EEEENS3_IS5_EEED1B7v160006Ev, symObjAddr: 0x53C0, symBinAddr: 0x100055450, symSize: 0x20 }
  - { offsetInCU: 0x1F15C, offset: 0x1F15C, size: 0x8, addend: 0x0, symName: __ZNSt3__16vectorINS0_IP6NeuronNS_9allocatorIS2_EEEENS3_IS5_EEEC2B7v160006Ev, symObjAddr: 0x53E0, symBinAddr: 0x100055470, symSize: 0x60 }
  - { offsetInCU: 0x1F185, offset: 0x1F185, size: 0x8, addend: 0x0, symName: __ZNSt3__117__compressed_pairIPNS_6vectorIP6NeuronNS_9allocatorIS3_EEEENS4_IS6_EEEC1B7v160006IDnNS_18__default_init_tagEEEOT_OT0_, symObjAddr: 0x5440, symBinAddr: 0x1000554D0, symSize: 0x30 }
  - { offsetInCU: 0x1F1DC, offset: 0x1F1DC, size: 0x8, addend: 0x0, symName: __ZNSt3__117__compressed_pairIPNS_6vectorIP6NeuronNS_9allocatorIS3_EEEENS4_IS6_EEEC2B7v160006IDnNS_18__default_init_tagEEEOT_OT0_, symObjAddr: 0x5480, symBinAddr: 0x100055510, symSize: 0x40 }
  - { offsetInCU: 0x1F233, offset: 0x1F233, size: 0x8, addend: 0x0, symName: __ZNSt3__122__compressed_pair_elemIPNS_6vectorIP6NeuronNS_9allocatorIS3_EEEELi0ELb0EEC2B7v160006IDnvEEOT_, symObjAddr: 0x54C0, symBinAddr: 0x100055550, symSize: 0x20 }
  - { offsetInCU: 0x1F274, offset: 0x1F274, size: 0x8, addend: 0x0, symName: __ZNSt3__122__compressed_pair_elemINS_9allocatorINS_6vectorIP6NeuronNS1_IS4_EEEEEELi1ELb1EEC2B7v160006ENS_18__default_init_tagE, symObjAddr: 0x54E0, symBinAddr: 0x100055570, symSize: 0x20 }
  - { offsetInCU: 0x1F2A7, offset: 0x1F2A7, size: 0x8, addend: 0x0, symName: __ZNSt3__19allocatorINS_6vectorIP6NeuronNS0_IS3_EEEEEC2B7v160006Ev, symObjAddr: 0x5500, symBinAddr: 0x100055590, symSize: 0x20 }
  - { offsetInCU: 0x1F2D0, offset: 0x1F2D0, size: 0x8, addend: 0x0, symName: __ZNSt3__116__non_trivial_ifILb1ENS_9allocatorINS_6vectorIP6NeuronNS1_IS4_EEEEEEEC2B7v160006Ev, symObjAddr: 0x5520, symBinAddr: 0x1000555B0, symSize: 0x10 }
  - { offsetInCU: 0x1F2F9, offset: 0x1F2F9, size: 0x8, addend: 0x0, symName: __ZN6NeuronC1Ev, symObjAddr: 0x5530, symBinAddr: 0x1000555C0, symSize: 0x20 }
  - { offsetInCU: 0x1F321, offset: 0x1F321, size: 0x8, addend: 0x0, symName: __ZNSt3__16vectorIP6NeuronNS_9allocatorIS2_EEE9push_backB7v160006ERKS2_, symObjAddr: 0x5550, symBinAddr: 0x1000555E0, symSize: 0x60 }
  - { offsetInCU: 0x1F356, offset: 0x1F356, size: 0x8, addend: 0x0, symName: __ZNSt3__16vectorINS0_IP6NeuronNS_9allocatorIS2_EEEENS3_IS5_EEE9push_backB7v160006ERKS5_, symObjAddr: 0x55B0, symBinAddr: 0x100055640, symSize: 0x60 }
  - { offsetInCU: 0x1F38C, offset: 0x1F38C, size: 0x8, addend: 0x0, symName: __ZN6WeightC1Ev, symObjAddr: 0x5610, symBinAddr: 0x1000556A0, symSize: 0x20 }
  - { offsetInCU: 0x1F3B4, offset: 0x1F3B4, size: 0x8, addend: 0x0, symName: __ZNSt3__16vectorINS0_IP6NeuronNS_9allocatorIS2_EEEENS3_IS5_EEEixB7v160006Em, symObjAddr: 0x5630, symBinAddr: 0x1000556C0, symSize: 0x20 }
  - { offsetInCU: 0x1F3E9, offset: 0x1F3E9, size: 0x8, addend: 0x0, symName: __ZNSt3__16vectorIP6NeuronNS_9allocatorIS2_EEEixB7v160006Em, symObjAddr: 0x5650, symBinAddr: 0x1000556E0, symSize: 0x20 }
  - { offsetInCU: 0x1F41F, offset: 0x1F41F, size: 0x8, addend: 0x0, symName: __ZN6Neuron13setConnectionEPS_P6Weightb, symObjAddr: 0x5670, symBinAddr: 0x100055700, symSize: 0xB0 }
  - { offsetInCU: 0x1F46D, offset: 0x1F46D, size: 0x8, addend: 0x0, symName: __ZNSt3__16vectorIP6WeightNS_9allocatorIS2_EEE9push_backB7v160006ERKS2_, symObjAddr: 0x5720, symBinAddr: 0x1000557B0, symSize: 0x60 }
  - { offsetInCU: 0x1F4A3, offset: 0x1F4A3, size: 0x8, addend: 0x0, symName: __ZN6NeuronC2Ev, symObjAddr: 0x5780, symBinAddr: 0x100055810, symSize: 0x140 }
  - { offsetInCU: 0x1F4FF, offset: 0x1F4FF, size: 0x8, addend: 0x0, symName: __ZNSt3__16vectorIP6NeuronNS_9allocatorIS2_EEE9__end_capB7v160006Ev, symObjAddr: 0x58C0, symBinAddr: 0x100055950, symSize: 0x20 }
  - { offsetInCU: 0x1F524, offset: 0x1F524, size: 0x8, addend: 0x0, symName: __ZNSt3__16vectorIP6NeuronNS_9allocatorIS2_EEE22__construct_one_at_endB7v160006IJRKS2_EEEvDpOT_, symObjAddr: 0x58E0, symBinAddr: 0x100055970, symSize: 0x90 }
  - { offsetInCU: 0x1F571, offset: 0x1F571, size: 0x8, addend: 0x0, symName: __ZNSt3__16vectorIP6NeuronNS_9allocatorIS2_EEE21__push_back_slow_pathIRKS2_EEvOT_, symObjAddr: 0x5970, symBinAddr: 0x100055A00, symSize: 0xD0 }
  - { offsetInCU: 0x1F5CE, offset: 0x1F5CE, size: 0x8, addend: 0x0, symName: __ZNSt3__117__compressed_pairIPP6NeuronNS_9allocatorIS2_EEE5firstB7v160006Ev, symObjAddr: 0x5A40, symBinAddr: 0x100055AD0, symSize: 0x20 }
  - { offsetInCU: 0x1F5F3, offset: 0x1F5F3, size: 0x8, addend: 0x0, symName: __ZNSt3__122__compressed_pair_elemIPP6NeuronLi0ELb0EE5__getB7v160006Ev, symObjAddr: 0x5A60, symBinAddr: 0x100055AF0, symSize: 0x10 }
  - { offsetInCU: 0x1F631, offset: 0x1F631, size: 0x8, addend: 0x0, symName: __ZNSt3__16vectorIP6NeuronNS_9allocatorIS2_EEE21_ConstructTransactionC1B7v160006ERS5_m, symObjAddr: 0x5A70, symBinAddr: 0x100055B00, symSize: 0x30 }
  - { offsetInCU: 0x1F678, offset: 0x1F678, size: 0x8, addend: 0x0, symName: __ZNSt3__116allocator_traitsINS_9allocatorIP6NeuronEEE9constructB7v160006IS3_JRKS3_EvEEvRS4_PT_DpOT0_, symObjAddr: 0x5AA0, symBinAddr: 0x100055B30, symSize: 0x30 }
  - { offsetInCU: 0x1F6CF, offset: 0x1F6CF, size: 0x8, addend: 0x0, symName: __ZNSt3__16vectorIP6NeuronNS_9allocatorIS2_EEE7__allocB7v160006Ev, symObjAddr: 0x5AD0, symBinAddr: 0x100055B60, symSize: 0x20 }
  - { offsetInCU: 0x1F6F4, offset: 0x1F6F4, size: 0x8, addend: 0x0, symName: __ZNSt3__16vectorIP6NeuronNS_9allocatorIS2_EEE21_ConstructTransactionD1B7v160006Ev, symObjAddr: 0x5B00, symBinAddr: 0x100055B90, symSize: 0x20 }
  - { offsetInCU: 0x1F71D, offset: 0x1F71D, size: 0x8, addend: 0x0, symName: __ZNSt3__16vectorIP6NeuronNS_9allocatorIS2_EEE21_ConstructTransactionC2B7v160006ERS5_m, symObjAddr: 0x5B20, symBinAddr: 0x100055BB0, symSize: 0x40 }
  - { offsetInCU: 0x1F764, offset: 0x1F764, size: 0x8, addend: 0x0, symName: __ZNSt3__19allocatorIP6NeuronE9constructB7v160006IS2_JRKS2_EEEvPT_DpOT0_, symObjAddr: 0x5B60, symBinAddr: 0x100055BF0, symSize: 0x20 }
  - { offsetInCU: 0x1F7B9, offset: 0x1F7B9, size: 0x8, addend: 0x0, symName: __ZNSt3__117__compressed_pairIPP6NeuronNS_9allocatorIS2_EEE6secondB7v160006Ev, symObjAddr: 0x5B80, symBinAddr: 0x100055C10, symSize: 0x20 }
  - { offsetInCU: 0x1F7DE, offset: 0x1F7DE, size: 0x8, addend: 0x0, symName: __ZNSt3__122__compressed_pair_elemINS_9allocatorIP6NeuronEELi1ELb1EE5__getB7v160006Ev, symObjAddr: 0x5BA0, symBinAddr: 0x100055C30, symSize: 0x10 }
  - { offsetInCU: 0x1F803, offset: 0x1F803, size: 0x8, addend: 0x0, symName: __ZNSt3__16vectorIP6NeuronNS_9allocatorIS2_EEE21_ConstructTransactionD2B7v160006Ev, symObjAddr: 0x5BB0, symBinAddr: 0x100055C40, symSize: 0x20 }
  - { offsetInCU: 0x1F82B, offset: 0x1F82B, size: 0x8, addend: 0x0, symName: __ZNKSt3__16vectorIP6NeuronNS_9allocatorIS2_EEE11__recommendB7v160006Em, symObjAddr: 0x5BD0, symBinAddr: 0x100055C60, symSize: 0xA0 }
  - { offsetInCU: 0x1F87F, offset: 0x1F87F, size: 0x8, addend: 0x0, symName: __ZNKSt3__16vectorIP6NeuronNS_9allocatorIS2_EEE4sizeB7v160006Ev, symObjAddr: 0x5C70, symBinAddr: 0x100055D00, symSize: 0x20 }
  - { offsetInCU: 0x1F8A4, offset: 0x1F8A4, size: 0x8, addend: 0x0, symName: __ZNSt3__114__split_bufferIP6NeuronRNS_9allocatorIS2_EEEC1EmmS5_, symObjAddr: 0x5C90, symBinAddr: 0x100055D20, symSize: 0x40 }
  - { offsetInCU: 0x1F8F9, offset: 0x1F8F9, size: 0x8, addend: 0x0, symName: __ZNSt3__114__split_bufferIP6NeuronRNS_9allocatorIS2_EEED1Ev, symObjAddr: 0x5E00, symBinAddr: 0x100055E90, symSize: 0x20 }
  - { offsetInCU: 0x1F923, offset: 0x1F923, size: 0x8, addend: 0x0, symName: __ZNKSt3__16vectorIP6NeuronNS_9allocatorIS2_EEE8max_sizeEv, symObjAddr: 0x5E20, symBinAddr: 0x100055EB0, symSize: 0x60 }
  - { offsetInCU: 0x1F94A, offset: 0x1F94A, size: 0x8, addend: 0x0, symName: __ZNKSt3__16vectorIP6NeuronNS_9allocatorIS2_EEE20__throw_length_errorB7v160006Ev, symObjAddr: 0x5E80, symBinAddr: 0x100055F10, symSize: 0x20 }
  - { offsetInCU: 0x1F96F, offset: 0x1F96F, size: 0x8, addend: 0x0, symName: __ZNKSt3__16vectorIP6NeuronNS_9allocatorIS2_EEE8capacityB7v160006Ev, symObjAddr: 0x5EA0, symBinAddr: 0x100055F30, symSize: 0x30 }
  - { offsetInCU: 0x1F99E, offset: 0x1F99E, size: 0x8, addend: 0x0, symName: __ZNSt3__116allocator_traitsINS_9allocatorIP6NeuronEEE8max_sizeB7v160006IS4_vEEmRKS4_, symObjAddr: 0x5F30, symBinAddr: 0x100055FC0, symSize: 0x20 }
  - { offsetInCU: 0x1F9CC, offset: 0x1F9CC, size: 0x8, addend: 0x0, symName: __ZNKSt3__16vectorIP6NeuronNS_9allocatorIS2_EEE7__allocB7v160006Ev, symObjAddr: 0x5F50, symBinAddr: 0x100055FE0, symSize: 0x20 }
  - { offsetInCU: 0x1F9F1, offset: 0x1F9F1, size: 0x8, addend: 0x0, symName: __ZNSt3__114numeric_limitsIlE3maxB7v160006Ev, symObjAddr: 0x5F70, symBinAddr: 0x100056000, symSize: 0x10 }
  - { offsetInCU: 0x1FA19, offset: 0x1FA19, size: 0x8, addend: 0x0, symName: __ZNKSt3__16__lessImmEclB7v160006ERKmS3_, symObjAddr: 0x5FD0, symBinAddr: 0x100056060, symSize: 0x30 }
  - { offsetInCU: 0x1FA5A, offset: 0x1FA5A, size: 0x8, addend: 0x0, symName: __ZNKSt3__19allocatorIP6NeuronE8max_sizeB7v160006Ev, symObjAddr: 0x6000, symBinAddr: 0x100056090, symSize: 0x20 }
  - { offsetInCU: 0x1FA7F, offset: 0x1FA7F, size: 0x8, addend: 0x0, symName: __ZNKSt3__117__compressed_pairIPP6NeuronNS_9allocatorIS2_EEE6secondB7v160006Ev, symObjAddr: 0x6020, symBinAddr: 0x1000560B0, symSize: 0x20 }
  - { offsetInCU: 0x1FAA4, offset: 0x1FAA4, size: 0x8, addend: 0x0, symName: __ZNKSt3__122__compressed_pair_elemINS_9allocatorIP6NeuronEELi1ELb1EE5__getB7v160006Ev, symObjAddr: 0x6040, symBinAddr: 0x1000560D0, symSize: 0x10 }
  - { offsetInCU: 0x1FAC9, offset: 0x1FAC9, size: 0x8, addend: 0x0, symName: __ZNSt3__123__libcpp_numeric_limitsIlLb1EE3maxB7v160006Ev, symObjAddr: 0x6050, symBinAddr: 0x1000560E0, symSize: 0x10 }
  - { offsetInCU: 0x1FADD, offset: 0x1FADD, size: 0x8, addend: 0x0, symName: __ZNSt12length_errorC1B7v160006EPKc, symObjAddr: 0x60D0, symBinAddr: 0x100056160, symSize: 0x30 }
  - { offsetInCU: 0x1FB14, offset: 0x1FB14, size: 0x8, addend: 0x0, symName: __ZNSt12length_errorC2B7v160006EPKc, symObjAddr: 0x6100, symBinAddr: 0x100056190, symSize: 0x40 }
  - { offsetInCU: 0x1FB4B, offset: 0x1FB4B, size: 0x8, addend: 0x0, symName: __ZNKSt3__16vectorIP6NeuronNS_9allocatorIS2_EEE9__end_capB7v160006Ev, symObjAddr: 0x6140, symBinAddr: 0x1000561D0, symSize: 0x20 }
  - { offsetInCU: 0x1FB70, offset: 0x1FB70, size: 0x8, addend: 0x0, symName: __ZNKSt3__117__compressed_pairIPP6NeuronNS_9allocatorIS2_EEE5firstB7v160006Ev, symObjAddr: 0x6160, symBinAddr: 0x1000561F0, symSize: 0x20 }
  - { offsetInCU: 0x1FB95, offset: 0x1FB95, size: 0x8, addend: 0x0, symName: __ZNKSt3__122__compressed_pair_elemIPP6NeuronLi0ELb0EE5__getB7v160006Ev, symObjAddr: 0x6180, symBinAddr: 0x100056210, symSize: 0x10 }
  - { offsetInCU: 0x1FBBA, offset: 0x1FBBA, size: 0x8, addend: 0x0, symName: __ZNSt3__114__split_bufferIP6NeuronRNS_9allocatorIS2_EEEC2EmmS5_, symObjAddr: 0x61E0, symBinAddr: 0x100056270, symSize: 0xD0 }
  - { offsetInCU: 0x1FC2C, offset: 0x1FC2C, size: 0x8, addend: 0x0, symName: __ZNSt3__117__compressed_pairIPP6NeuronRNS_9allocatorIS2_EEEC1B7v160006IDnS6_EEOT_OT0_, symObjAddr: 0x62B0, symBinAddr: 0x100056340, symSize: 0x30 }
  - { offsetInCU: 0x1FC83, offset: 0x1FC83, size: 0x8, addend: 0x0, symName: __ZNSt3__114__split_bufferIP6NeuronRNS_9allocatorIS2_EEE7__allocB7v160006Ev, symObjAddr: 0x6320, symBinAddr: 0x1000563B0, symSize: 0x20 }
  - { offsetInCU: 0x1FCA8, offset: 0x1FCA8, size: 0x8, addend: 0x0, symName: __ZNSt3__114__split_bufferIP6NeuronRNS_9allocatorIS2_EEE9__end_capB7v160006Ev, symObjAddr: 0x6340, symBinAddr: 0x1000563D0, symSize: 0x20 }
  - { offsetInCU: 0x1FCCD, offset: 0x1FCCD, size: 0x8, addend: 0x0, symName: __ZNSt3__117__compressed_pairIPP6NeuronRNS_9allocatorIS2_EEEC2B7v160006IDnS6_EEOT_OT0_, symObjAddr: 0x6360, symBinAddr: 0x1000563F0, symSize: 0x40 }
  - { offsetInCU: 0x1FD24, offset: 0x1FD24, size: 0x8, addend: 0x0, symName: __ZNSt3__122__compressed_pair_elemIRNS_9allocatorIP6NeuronEELi1ELb0EEC2B7v160006IS5_vEEOT_, symObjAddr: 0x63A0, symBinAddr: 0x100056430, symSize: 0x20 }
  - { offsetInCU: 0x1FD65, offset: 0x1FD65, size: 0x8, addend: 0x0, symName: __ZNSt3__19allocatorIP6NeuronE8allocateB7v160006Em, symObjAddr: 0x63C0, symBinAddr: 0x100056450, symSize: 0x50 }
  - { offsetInCU: 0x1FD98, offset: 0x1FD98, size: 0x8, addend: 0x0, symName: __ZNSt3__117__compressed_pairIPP6NeuronRNS_9allocatorIS2_EEE6secondB7v160006Ev, symObjAddr: 0x6490, symBinAddr: 0x100056520, symSize: 0x20 }
  - { offsetInCU: 0x1FDBD, offset: 0x1FDBD, size: 0x8, addend: 0x0, symName: __ZNSt3__122__compressed_pair_elemIRNS_9allocatorIP6NeuronEELi1ELb0EE5__getB7v160006Ev, symObjAddr: 0x64B0, symBinAddr: 0x100056540, symSize: 0x20 }
  - { offsetInCU: 0x1FDE2, offset: 0x1FDE2, size: 0x8, addend: 0x0, symName: __ZNSt3__117__compressed_pairIPP6NeuronRNS_9allocatorIS2_EEE5firstB7v160006Ev, symObjAddr: 0x64D0, symBinAddr: 0x100056560, symSize: 0x20 }
  - { offsetInCU: 0x1FE07, offset: 0x1FE07, size: 0x8, addend: 0x0, symName: __ZNKSt3__16vectorIP6NeuronNS_9allocatorIS2_EEE17__annotate_deleteB7v160006Ev, symObjAddr: 0x64F0, symBinAddr: 0x100056580, symSize: 0xB0 }
  - { offsetInCU: 0x1FE2C, offset: 0x1FE2C, size: 0x8, addend: 0x0, symName: __ZNSt3__116reverse_iteratorIPP6NeuronEC1B7v160006ES3_, symObjAddr: 0x6610, symBinAddr: 0x1000566A0, symSize: 0x30 }
  - { offsetInCU: 0x1FE63, offset: 0x1FE63, size: 0x8, addend: 0x0, symName: __ZNKSt3__116reverse_iteratorIPP6NeuronE4baseB7v160006Ev, symObjAddr: 0x6640, symBinAddr: 0x1000566D0, symSize: 0x20 }
  - { offsetInCU: 0x1FE88, offset: 0x1FE88, size: 0x8, addend: 0x0, symName: __ZNKSt3__16vectorIP6NeuronNS_9allocatorIS2_EEE14__annotate_newB7v160006Em, symObjAddr: 0x66A0, symBinAddr: 0x100056730, symSize: 0xB0 }
  - { offsetInCU: 0x1FEBC, offset: 0x1FEBC, size: 0x8, addend: 0x0, symName: __ZNKSt3__16vectorIP6NeuronNS_9allocatorIS2_EEE31__annotate_contiguous_containerB7v160006EPKvS7_S7_S7_, symObjAddr: 0x6760, symBinAddr: 0x1000567F0, symSize: 0x20 }
  - { offsetInCU: 0x1FF0D, offset: 0x1FF0D, size: 0x8, addend: 0x0, symName: __ZNKSt3__16vectorIP6NeuronNS_9allocatorIS2_EEE4dataB7v160006Ev, symObjAddr: 0x6780, symBinAddr: 0x100056810, symSize: 0x20 }
  - { offsetInCU: 0x1FF55, offset: 0x1FF55, size: 0x8, addend: 0x0, symName: __ZNKSt3__111__move_loopINS_17_ClassicAlgPolicyEEclB7v160006INS_16reverse_iteratorIPP6NeuronEES8_S8_EENS_4pairIT_T1_EESA_T0_SB_, symObjAddr: 0x6BE0, symBinAddr: 0x100056C70, symSize: 0xA0 }
  - { offsetInCU: 0x1FFC4, offset: 0x1FFC4, size: 0x8, addend: 0x0, symName: __ZNSt3__18_IterOpsINS_17_ClassicAlgPolicyEE11__iter_moveB7v160006IRNS_16reverse_iteratorIPP6NeuronEEEENS_9enable_ifIXsr12is_referenceIDTdeclsr3stdE7declvalIRT_EEEEE5valueEDTclsr3stdE4movedeclsr3stdE7declvalISC_EEEEE4typeEOSB_, symObjAddr: 0x6E00, symBinAddr: 0x100056E90, symSize: 0x20 }
  - { offsetInCU: 0x1FFF0, offset: 0x1FFF0, size: 0x8, addend: 0x0, symName: __ZNKSt3__116reverse_iteratorIPP6NeuronEdeB7v160006Ev, symObjAddr: 0x6E20, symBinAddr: 0x100056EB0, symSize: 0x30 }
  - { offsetInCU: 0x20023, offset: 0x20023, size: 0x8, addend: 0x0, symName: __ZNSt3__116reverse_iteratorIPP6NeuronEppB7v160006Ev, symObjAddr: 0x6E50, symBinAddr: 0x100056EE0, symSize: 0x20 }
  - { offsetInCU: 0x20048, offset: 0x20048, size: 0x8, addend: 0x0, symName: __ZNSt3__18_IterOpsINS_17_ClassicAlgPolicyEE25__validate_iter_referenceB7v160006IRNS_16reverse_iteratorIPP6NeuronEEEEvv, symObjAddr: 0x6E70, symBinAddr: 0x100056F00, symSize: 0x10 }
  - { offsetInCU: 0x20066, offset: 0x20066, size: 0x8, addend: 0x0, symName: __ZNSt3__118__unwrap_iter_implINS_16reverse_iteratorIPP6NeuronEELb0EE8__unwrapB7v160006ES5_, symObjAddr: 0x6E80, symBinAddr: 0x100056F10, symSize: 0x20 }
  - { offsetInCU: 0x2008E, offset: 0x2008E, size: 0x8, addend: 0x0, symName: __ZNSt3__14pairINS_16reverse_iteratorIPP6NeuronEES5_EC1B7v160006IS5_S5_LPv0EEEOT_OT0_, symObjAddr: 0x6EA0, symBinAddr: 0x100056F30, symSize: 0x30 }
  - { offsetInCU: 0x200EB, offset: 0x200EB, size: 0x8, addend: 0x0, symName: __ZNSt3__14pairINS_16reverse_iteratorIPP6NeuronEES5_EC2B7v160006IS5_S5_LPv0EEEOT_OT0_, symObjAddr: 0x6ED0, symBinAddr: 0x100056F60, symSize: 0x40 }
  - { offsetInCU: 0x20148, offset: 0x20148, size: 0x8, addend: 0x0, symName: __ZNSt3__118__unwrap_iter_implINS_16reverse_iteratorIPP6NeuronEELb0EE8__rewrapB7v160006ES5_S5_, symObjAddr: 0x6F10, symBinAddr: 0x100056FA0, symSize: 0x30 }
  - { offsetInCU: 0x20175, offset: 0x20175, size: 0x8, addend: 0x0, symName: __ZNSt3__116reverse_iteratorIPP6NeuronEC2B7v160006ES3_, symObjAddr: 0x6F40, symBinAddr: 0x100056FD0, symSize: 0x30 }
  - { offsetInCU: 0x201AC, offset: 0x201AC, size: 0x8, addend: 0x0, symName: __ZNSt3__114__split_bufferIP6NeuronRNS_9allocatorIS2_EEED2Ev, symObjAddr: 0x6F70, symBinAddr: 0x100057000, symSize: 0x70 }
  - { offsetInCU: 0x201D7, offset: 0x201D7, size: 0x8, addend: 0x0, symName: __ZNSt3__114__split_bufferIP6NeuronRNS_9allocatorIS2_EEE5clearB7v160006Ev, symObjAddr: 0x6FE0, symBinAddr: 0x100057070, symSize: 0x20 }
  - { offsetInCU: 0x201FC, offset: 0x201FC, size: 0x8, addend: 0x0, symName: __ZNSt3__116allocator_traitsINS_9allocatorIP6NeuronEEE10deallocateB7v160006ERS4_PS3_m, symObjAddr: 0x7000, symBinAddr: 0x100057090, symSize: 0x30 }
  - { offsetInCU: 0x2023E, offset: 0x2023E, size: 0x8, addend: 0x0, symName: __ZNKSt3__114__split_bufferIP6NeuronRNS_9allocatorIS2_EEE8capacityB7v160006Ev, symObjAddr: 0x7030, symBinAddr: 0x1000570C0, symSize: 0x30 }
  - { offsetInCU: 0x20263, offset: 0x20263, size: 0x8, addend: 0x0, symName: __ZNSt3__114__split_bufferIP6NeuronRNS_9allocatorIS2_EEE17__destruct_at_endB7v160006EPS2_, symObjAddr: 0x7060, symBinAddr: 0x1000570F0, symSize: 0x30 }
  - { offsetInCU: 0x20295, offset: 0x20295, size: 0x8, addend: 0x0, symName: __ZNSt3__114__split_bufferIP6NeuronRNS_9allocatorIS2_EEE17__destruct_at_endB7v160006EPS2_NS_17integral_constantIbLb0EEE, symObjAddr: 0x7090, symBinAddr: 0x100057120, symSize: 0x80 }
  - { offsetInCU: 0x202D4, offset: 0x202D4, size: 0x8, addend: 0x0, symName: __ZNSt3__116allocator_traitsINS_9allocatorIP6NeuronEEE7destroyB7v160006IS3_vEEvRS4_PT_, symObjAddr: 0x7110, symBinAddr: 0x1000571A0, symSize: 0x30 }
  - { offsetInCU: 0x20311, offset: 0x20311, size: 0x8, addend: 0x0, symName: __ZNSt3__19allocatorIP6NeuronE7destroyB7v160006EPS2_, symObjAddr: 0x7140, symBinAddr: 0x1000571D0, symSize: 0x10 }
  - { offsetInCU: 0x20344, offset: 0x20344, size: 0x8, addend: 0x0, symName: __ZNSt3__19allocatorIP6NeuronE10deallocateB7v160006EPS2_m, symObjAddr: 0x7150, symBinAddr: 0x1000571E0, symSize: 0x40 }
  - { offsetInCU: 0x20385, offset: 0x20385, size: 0x8, addend: 0x0, symName: __ZNKSt3__114__split_bufferIP6NeuronRNS_9allocatorIS2_EEE9__end_capB7v160006Ev, symObjAddr: 0x7200, symBinAddr: 0x100057290, symSize: 0x20 }
  - { offsetInCU: 0x203AA, offset: 0x203AA, size: 0x8, addend: 0x0, symName: __ZNKSt3__117__compressed_pairIPP6NeuronRNS_9allocatorIS2_EEE5firstB7v160006Ev, symObjAddr: 0x7220, symBinAddr: 0x1000572B0, symSize: 0x20 }
  - { offsetInCU: 0x203CF, offset: 0x203CF, size: 0x8, addend: 0x0, symName: __ZNSt3__16vectorINS0_IP6NeuronNS_9allocatorIS2_EEEENS3_IS5_EEE9__end_capB7v160006Ev, symObjAddr: 0x7240, symBinAddr: 0x1000572D0, symSize: 0x20 }
  - { offsetInCU: 0x203F4, offset: 0x203F4, size: 0x8, addend: 0x0, symName: __ZNSt3__16vectorINS0_IP6NeuronNS_9allocatorIS2_EEEENS3_IS5_EEE22__construct_one_at_endB7v160006IJRKS5_EEEvDpOT_, symObjAddr: 0x7260, symBinAddr: 0x1000572F0, symSize: 0x90 }
  - { offsetInCU: 0x20441, offset: 0x20441, size: 0x8, addend: 0x0, symName: __ZNSt3__16vectorINS0_IP6NeuronNS_9allocatorIS2_EEEENS3_IS5_EEE21__push_back_slow_pathIRKS5_EEvOT_, symObjAddr: 0x72F0, symBinAddr: 0x100057380, symSize: 0xD0 }
  - { offsetInCU: 0x2049E, offset: 0x2049E, size: 0x8, addend: 0x0, symName: __ZNSt3__117__compressed_pairIPNS_6vectorIP6NeuronNS_9allocatorIS3_EEEENS4_IS6_EEE5firstB7v160006Ev, symObjAddr: 0x73C0, symBinAddr: 0x100057450, symSize: 0x20 }
  - { offsetInCU: 0x204C3, offset: 0x204C3, size: 0x8, addend: 0x0, symName: __ZNSt3__122__compressed_pair_elemIPNS_6vectorIP6NeuronNS_9allocatorIS3_EEEELi0ELb0EE5__getB7v160006Ev, symObjAddr: 0x73E0, symBinAddr: 0x100057470, symSize: 0x10 }
  - { offsetInCU: 0x20501, offset: 0x20501, size: 0x8, addend: 0x0, symName: __ZNSt3__16vectorINS0_IP6NeuronNS_9allocatorIS2_EEEENS3_IS5_EEE21_ConstructTransactionC1B7v160006ERS7_m, symObjAddr: 0x73F0, symBinAddr: 0x100057480, symSize: 0x30 }
  - { offsetInCU: 0x20548, offset: 0x20548, size: 0x8, addend: 0x0, symName: __ZNSt3__116allocator_traitsINS_9allocatorINS_6vectorIP6NeuronNS1_IS4_EEEEEEE9constructB7v160006IS6_JRKS6_EvEEvRS7_PT_DpOT0_, symObjAddr: 0x7420, symBinAddr: 0x1000574B0, symSize: 0x30 }
  - { offsetInCU: 0x2059F, offset: 0x2059F, size: 0x8, addend: 0x0, symName: __ZNSt3__16vectorINS0_IP6NeuronNS_9allocatorIS2_EEEENS3_IS5_EEE7__allocB7v160006Ev, symObjAddr: 0x7450, symBinAddr: 0x1000574E0, symSize: 0x20 }
  - { offsetInCU: 0x205C4, offset: 0x205C4, size: 0x8, addend: 0x0, symName: __ZNSt3__16vectorINS0_IP6NeuronNS_9allocatorIS2_EEEENS3_IS5_EEE21_ConstructTransactionD1B7v160006Ev, symObjAddr: 0x7480, symBinAddr: 0x100057510, symSize: 0x20 }
  - { offsetInCU: 0x205ED, offset: 0x205ED, size: 0x8, addend: 0x0, symName: __ZNSt3__16vectorINS0_IP6NeuronNS_9allocatorIS2_EEEENS3_IS5_EEE21_ConstructTransactionC2B7v160006ERS7_m, symObjAddr: 0x74A0, symBinAddr: 0x100057530, symSize: 0x40 }
  - { offsetInCU: 0x20634, offset: 0x20634, size: 0x8, addend: 0x0, symName: __ZNSt3__19allocatorINS_6vectorIP6NeuronNS0_IS3_EEEEE9constructB7v160006IS5_JRKS5_EEEvPT_DpOT0_, symObjAddr: 0x74E0, symBinAddr: 0x100057570, symSize: 0x30 }
  - { offsetInCU: 0x20689, offset: 0x20689, size: 0x8, addend: 0x0, symName: __ZNSt3__16vectorIP6NeuronNS_9allocatorIS2_EEEC1ERKS5_, symObjAddr: 0x7510, symBinAddr: 0x1000575A0, symSize: 0x30 }
  - { offsetInCU: 0x206C3, offset: 0x206C3, size: 0x8, addend: 0x0, symName: __ZNSt3__16vectorIP6NeuronNS_9allocatorIS2_EEEC2ERKS5_, symObjAddr: 0x7540, symBinAddr: 0x1000575D0, symSize: 0x110 }
  - { offsetInCU: 0x20723, offset: 0x20723, size: 0x8, addend: 0x0, symName: __ZNSt3__116allocator_traitsINS_9allocatorIP6NeuronEEE37select_on_container_copy_constructionB7v160006IS4_vvEES4_RKS4_, symObjAddr: 0x7650, symBinAddr: 0x1000576E0, symSize: 0x10 }
  - { offsetInCU: 0x20757, offset: 0x20757, size: 0x8, addend: 0x0, symName: __ZNSt3__117__compressed_pairIPP6NeuronNS_9allocatorIS2_EEEC1B7v160006IDnS5_EEOT_OT0_, symObjAddr: 0x7660, symBinAddr: 0x1000576F0, symSize: 0x30 }
  - { offsetInCU: 0x207AE, offset: 0x207AE, size: 0x8, addend: 0x0, symName: __ZNSt3__16vectorIP6NeuronNS_9allocatorIS2_EEE16__destroy_vectorC1ERS5_, symObjAddr: 0x76D0, symBinAddr: 0x100057760, symSize: 0x30 }
  - { offsetInCU: 0x207E6, offset: 0x207E6, size: 0x8, addend: 0x0, symName: __ZNSt3__16vectorIP6NeuronNS_9allocatorIS2_EEE11__vallocateB7v160006Em, symObjAddr: 0x7700, symBinAddr: 0x100057790, symSize: 0xA0 }
  - { offsetInCU: 0x20828, offset: 0x20828, size: 0x8, addend: 0x0, symName: __ZNSt3__16vectorIP6NeuronNS_9allocatorIS2_EEE18__construct_at_endIPS2_Li0EEEvT_S8_m, symObjAddr: 0x77A0, symBinAddr: 0x100057830, symSize: 0x90 }
  - { offsetInCU: 0x2089A, offset: 0x2089A, size: 0x8, addend: 0x0, symName: __ZNSt3__128__exception_guard_exceptionsINS_6vectorIP6NeuronNS_9allocatorIS3_EEE16__destroy_vectorEE10__completeB7v160006Ev, symObjAddr: 0x7830, symBinAddr: 0x1000578C0, symSize: 0x20 }
  - { offsetInCU: 0x208BF, offset: 0x208BF, size: 0x8, addend: 0x0, symName: __ZNSt3__128__exception_guard_exceptionsINS_6vectorIP6NeuronNS_9allocatorIS3_EEE16__destroy_vectorEED1B7v160006Ev, symObjAddr: 0x7850, symBinAddr: 0x1000578E0, symSize: 0x20 }
  - { offsetInCU: 0x208E8, offset: 0x208E8, size: 0x8, addend: 0x0, symName: __ZNSt3__117__compressed_pairIPP6NeuronNS_9allocatorIS2_EEEC2B7v160006IDnS5_EEOT_OT0_, symObjAddr: 0x7870, symBinAddr: 0x100057900, symSize: 0x40 }
  - { offsetInCU: 0x2093F, offset: 0x2093F, size: 0x8, addend: 0x0, symName: __ZNSt3__122__compressed_pair_elemINS_9allocatorIP6NeuronEELi1ELb1EEC2B7v160006IS4_vEEOT_, symObjAddr: 0x78B0, symBinAddr: 0x100057940, symSize: 0x10 }
  - { offsetInCU: 0x20980, offset: 0x20980, size: 0x8, addend: 0x0, symName: __ZNSt3__128__exception_guard_exceptionsINS_6vectorIP6NeuronNS_9allocatorIS3_EEE16__destroy_vectorEEC1B7v160006ES7_, symObjAddr: 0x78C0, symBinAddr: 0x100057950, symSize: 0x30 }
  - { offsetInCU: 0x209B7, offset: 0x209B7, size: 0x8, addend: 0x0, symName: __ZNSt3__128__exception_guard_exceptionsINS_6vectorIP6NeuronNS_9allocatorIS3_EEE16__destroy_vectorEEC2B7v160006ES7_, symObjAddr: 0x78F0, symBinAddr: 0x100057980, symSize: 0x20 }
  - { offsetInCU: 0x209EE, offset: 0x209EE, size: 0x8, addend: 0x0, symName: __ZNSt3__16vectorIP6NeuronNS_9allocatorIS2_EEE16__destroy_vectorC2ERS5_, symObjAddr: 0x7910, symBinAddr: 0x1000579A0, symSize: 0x20 }
  - { offsetInCU: 0x20A26, offset: 0x20A26, size: 0x8, addend: 0x0, symName: __ZNSt3__129_AllocatorDestroyRangeReverseINS_9allocatorIP6NeuronEEPS3_EC1B7v160006ERS4_RS5_S8_, symObjAddr: 0x7A90, symBinAddr: 0x100057B20, symSize: 0x40 }
  - { offsetInCU: 0x20A7C, offset: 0x20A7C, size: 0x8, addend: 0x0, symName: __ZNSt3__116allocator_traitsINS_9allocatorIP6NeuronEEE9constructB7v160006IS3_JRS3_EvEEvRS4_PT_DpOT0_, symObjAddr: 0x7AD0, symBinAddr: 0x100057B60, symSize: 0x30 }
  - { offsetInCU: 0x20AD3, offset: 0x20AD3, size: 0x8, addend: 0x0, symName: __ZNSt3__128__exception_guard_exceptionsINS_29_AllocatorDestroyRangeReverseINS_9allocatorIP6NeuronEEPS4_EEE10__completeB7v160006Ev, symObjAddr: 0x7B00, symBinAddr: 0x100057B90, symSize: 0x20 }
  - { offsetInCU: 0x20AF8, offset: 0x20AF8, size: 0x8, addend: 0x0, symName: __ZNSt3__128__exception_guard_exceptionsINS_29_AllocatorDestroyRangeReverseINS_9allocatorIP6NeuronEEPS4_EEED1B7v160006Ev, symObjAddr: 0x7B20, symBinAddr: 0x100057BB0, symSize: 0x20 }
  - { offsetInCU: 0x20B21, offset: 0x20B21, size: 0x8, addend: 0x0, symName: __ZNSt3__128__exception_guard_exceptionsINS_29_AllocatorDestroyRangeReverseINS_9allocatorIP6NeuronEEPS4_EEEC1B7v160006ES7_, symObjAddr: 0x7B40, symBinAddr: 0x100057BD0, symSize: 0x40 }
  - { offsetInCU: 0x20B58, offset: 0x20B58, size: 0x8, addend: 0x0, symName: __ZNSt3__128__exception_guard_exceptionsINS_29_AllocatorDestroyRangeReverseINS_9allocatorIP6NeuronEEPS4_EEEC2B7v160006ES7_, symObjAddr: 0x7B80, symBinAddr: 0x100057C10, symSize: 0x30 }
  - { offsetInCU: 0x20B8F, offset: 0x20B8F, size: 0x8, addend: 0x0, symName: __ZNSt3__129_AllocatorDestroyRangeReverseINS_9allocatorIP6NeuronEEPS3_EC2B7v160006ERS4_RS5_S8_, symObjAddr: 0x7BB0, symBinAddr: 0x100057C40, symSize: 0x40 }
  - { offsetInCU: 0x20BE5, offset: 0x20BE5, size: 0x8, addend: 0x0, symName: __ZNSt3__19allocatorIP6NeuronE9constructB7v160006IS2_JRS2_EEEvPT_DpOT0_, symObjAddr: 0x7BF0, symBinAddr: 0x100057C80, symSize: 0x20 }
  - { offsetInCU: 0x20C3A, offset: 0x20C3A, size: 0x8, addend: 0x0, symName: __ZNSt3__128__exception_guard_exceptionsINS_29_AllocatorDestroyRangeReverseINS_9allocatorIP6NeuronEEPS4_EEED2B7v160006Ev, symObjAddr: 0x7C10, symBinAddr: 0x100057CA0, symSize: 0x40 }
  - { offsetInCU: 0x20C63, offset: 0x20C63, size: 0x8, addend: 0x0, symName: __ZNKSt3__129_AllocatorDestroyRangeReverseINS_9allocatorIP6NeuronEEPS3_EclB7v160006Ev, symObjAddr: 0x7C50, symBinAddr: 0x100057CE0, symSize: 0x60 }
  - { offsetInCU: 0x20C8D, offset: 0x20C8D, size: 0x8, addend: 0x0, symName: __ZNSt3__119__to_address_helperINS_16reverse_iteratorIPP6NeuronEEvE6__callB7v160006ERKS5_, symObjAddr: 0x7D40, symBinAddr: 0x100057DD0, symSize: 0x40 }
  - { offsetInCU: 0x20CB0, offset: 0x20CB0, size: 0x8, addend: 0x0, symName: __ZNKSt3__116reverse_iteratorIPP6NeuronEptB7v160006Ev, symObjAddr: 0x7D80, symBinAddr: 0x100057E10, symSize: 0x20 }
  - { offsetInCU: 0x20CD5, offset: 0x20CD5, size: 0x8, addend: 0x0, symName: __ZNSt3__128__exception_guard_exceptionsINS_6vectorIP6NeuronNS_9allocatorIS3_EEE16__destroy_vectorEED2B7v160006Ev, symObjAddr: 0x7DA0, symBinAddr: 0x100057E30, symSize: 0x40 }
  - { offsetInCU: 0x20CFE, offset: 0x20CFE, size: 0x8, addend: 0x0, symName: __ZNSt3__16vectorIP6NeuronNS_9allocatorIS2_EEE16__destroy_vectorclB7v160006Ev, symObjAddr: 0x7DE0, symBinAddr: 0x100057E70, symSize: 0x90 }
  - { offsetInCU: 0x20D23, offset: 0x20D23, size: 0x8, addend: 0x0, symName: __ZNSt3__16vectorIP6NeuronNS_9allocatorIS2_EEE7__clearB7v160006Ev, symObjAddr: 0x7E80, symBinAddr: 0x100057F10, symSize: 0x20 }
  - { offsetInCU: 0x20D48, offset: 0x20D48, size: 0x8, addend: 0x0, symName: __ZNSt3__16vectorIP6NeuronNS_9allocatorIS2_EEE22__base_destruct_at_endB7v160006EPS2_, symObjAddr: 0x7EA0, symBinAddr: 0x100057F30, symSize: 0x80 }
  - { offsetInCU: 0x20D8B, offset: 0x20D8B, size: 0x8, addend: 0x0, symName: __ZNSt3__117__compressed_pairIPNS_6vectorIP6NeuronNS_9allocatorIS3_EEEENS4_IS6_EEE6secondB7v160006Ev, symObjAddr: 0x7F20, symBinAddr: 0x100057FB0, symSize: 0x20 }
  - { offsetInCU: 0x20DB0, offset: 0x20DB0, size: 0x8, addend: 0x0, symName: __ZNSt3__122__compressed_pair_elemINS_9allocatorINS_6vectorIP6NeuronNS1_IS4_EEEEEELi1ELb1EE5__getB7v160006Ev, symObjAddr: 0x7F40, symBinAddr: 0x100057FD0, symSize: 0x10 }
  - { offsetInCU: 0x20DD5, offset: 0x20DD5, size: 0x8, addend: 0x0, symName: __ZNSt3__16vectorINS0_IP6NeuronNS_9allocatorIS2_EEEENS3_IS5_EEE21_ConstructTransactionD2B7v160006Ev, symObjAddr: 0x7F50, symBinAddr: 0x100057FE0, symSize: 0x20 }
  - { offsetInCU: 0x20DFD, offset: 0x20DFD, size: 0x8, addend: 0x0, symName: __ZNKSt3__16vectorINS0_IP6NeuronNS_9allocatorIS2_EEEENS3_IS5_EEE11__recommendB7v160006Em, symObjAddr: 0x7F70, symBinAddr: 0x100058000, symSize: 0xA0 }
  - { offsetInCU: 0x20E51, offset: 0x20E51, size: 0x8, addend: 0x0, symName: __ZNKSt3__16vectorINS0_IP6NeuronNS_9allocatorIS2_EEEENS3_IS5_EEE4sizeB7v160006Ev, symObjAddr: 0x8010, symBinAddr: 0x1000580A0, symSize: 0x30 }
  - { offsetInCU: 0x20E76, offset: 0x20E76, size: 0x8, addend: 0x0, symName: __ZNSt3__114__split_bufferINS_6vectorIP6NeuronNS_9allocatorIS3_EEEERNS4_IS6_EEEC1EmmS8_, symObjAddr: 0x8040, symBinAddr: 0x1000580D0, symSize: 0x40 }
  - { offsetInCU: 0x20ECB, offset: 0x20ECB, size: 0x8, addend: 0x0, symName: __ZNSt3__114__split_bufferINS_6vectorIP6NeuronNS_9allocatorIS3_EEEERNS4_IS6_EEED1Ev, symObjAddr: 0x81B0, symBinAddr: 0x100058240, symSize: 0x20 }
  - { offsetInCU: 0x20EF5, offset: 0x20EF5, size: 0x8, addend: 0x0, symName: __ZNKSt3__16vectorINS0_IP6NeuronNS_9allocatorIS2_EEEENS3_IS5_EEE8max_sizeEv, symObjAddr: 0x81D0, symBinAddr: 0x100058260, symSize: 0x60 }
  - { offsetInCU: 0x20F1C, offset: 0x20F1C, size: 0x8, addend: 0x0, symName: __ZNKSt3__16vectorINS0_IP6NeuronNS_9allocatorIS2_EEEENS3_IS5_EEE20__throw_length_errorB7v160006Ev, symObjAddr: 0x8230, symBinAddr: 0x1000582C0, symSize: 0x20 }
  - { offsetInCU: 0x20F41, offset: 0x20F41, size: 0x8, addend: 0x0, symName: __ZNKSt3__16vectorINS0_IP6NeuronNS_9allocatorIS2_EEEENS3_IS5_EEE8capacityB7v160006Ev, symObjAddr: 0x8250, symBinAddr: 0x1000582E0, symSize: 0x40 }
  - { offsetInCU: 0x20F70, offset: 0x20F70, size: 0x8, addend: 0x0, symName: __ZNSt3__116allocator_traitsINS_9allocatorINS_6vectorIP6NeuronNS1_IS4_EEEEEEE8max_sizeB7v160006IS7_vEEmRKS7_, symObjAddr: 0x8290, symBinAddr: 0x100058320, symSize: 0x20 }
  - { offsetInCU: 0x20F9E, offset: 0x20F9E, size: 0x8, addend: 0x0, symName: __ZNKSt3__16vectorINS0_IP6NeuronNS_9allocatorIS2_EEEENS3_IS5_EEE7__allocB7v160006Ev, symObjAddr: 0x82B0, symBinAddr: 0x100058340, symSize: 0x20 }
  - { offsetInCU: 0x20FC3, offset: 0x20FC3, size: 0x8, addend: 0x0, symName: __ZNKSt3__19allocatorINS_6vectorIP6NeuronNS0_IS3_EEEEE8max_sizeB7v160006Ev, symObjAddr: 0x82D0, symBinAddr: 0x100058360, symSize: 0x20 }
  - { offsetInCU: 0x20FE8, offset: 0x20FE8, size: 0x8, addend: 0x0, symName: __ZNKSt3__117__compressed_pairIPNS_6vectorIP6NeuronNS_9allocatorIS3_EEEENS4_IS6_EEE6secondB7v160006Ev, symObjAddr: 0x82F0, symBinAddr: 0x100058380, symSize: 0x20 }
  - { offsetInCU: 0x2100D, offset: 0x2100D, size: 0x8, addend: 0x0, symName: __ZNKSt3__122__compressed_pair_elemINS_9allocatorINS_6vectorIP6NeuronNS1_IS4_EEEEEELi1ELb1EE5__getB7v160006Ev, symObjAddr: 0x8310, symBinAddr: 0x1000583A0, symSize: 0x10 }
  - { offsetInCU: 0x21032, offset: 0x21032, size: 0x8, addend: 0x0, symName: __ZNKSt3__16vectorINS0_IP6NeuronNS_9allocatorIS2_EEEENS3_IS5_EEE9__end_capB7v160006Ev, symObjAddr: 0x8320, symBinAddr: 0x1000583B0, symSize: 0x20 }
  - { offsetInCU: 0x21057, offset: 0x21057, size: 0x8, addend: 0x0, symName: __ZNKSt3__117__compressed_pairIPNS_6vectorIP6NeuronNS_9allocatorIS3_EEEENS4_IS6_EEE5firstB7v160006Ev, symObjAddr: 0x8340, symBinAddr: 0x1000583D0, symSize: 0x20 }
  - { offsetInCU: 0x2107C, offset: 0x2107C, size: 0x8, addend: 0x0, symName: __ZNKSt3__122__compressed_pair_elemIPNS_6vectorIP6NeuronNS_9allocatorIS3_EEEELi0ELb0EE5__getB7v160006Ev, symObjAddr: 0x8360, symBinAddr: 0x1000583F0, symSize: 0x10 }
  - { offsetInCU: 0x210A1, offset: 0x210A1, size: 0x8, addend: 0x0, symName: __ZNSt3__114__split_bufferINS_6vectorIP6NeuronNS_9allocatorIS3_EEEERNS4_IS6_EEEC2EmmS8_, symObjAddr: 0x8370, symBinAddr: 0x100058400, symSize: 0xC0 }
  - { offsetInCU: 0x21113, offset: 0x21113, size: 0x8, addend: 0x0, symName: __ZNSt3__117__compressed_pairIPNS_6vectorIP6NeuronNS_9allocatorIS3_EEEERNS4_IS6_EEEC1B7v160006IDnS9_EEOT_OT0_, symObjAddr: 0x8430, symBinAddr: 0x1000584C0, symSize: 0x30 }
  - { offsetInCU: 0x2116A, offset: 0x2116A, size: 0x8, addend: 0x0, symName: __ZNSt3__114__split_bufferINS_6vectorIP6NeuronNS_9allocatorIS3_EEEERNS4_IS6_EEE7__allocB7v160006Ev, symObjAddr: 0x84A0, symBinAddr: 0x100058530, symSize: 0x20 }
  - { offsetInCU: 0x2118F, offset: 0x2118F, size: 0x8, addend: 0x0, symName: __ZNSt3__114__split_bufferINS_6vectorIP6NeuronNS_9allocatorIS3_EEEERNS4_IS6_EEE9__end_capB7v160006Ev, symObjAddr: 0x84C0, symBinAddr: 0x100058550, symSize: 0x20 }
  - { offsetInCU: 0x211B4, offset: 0x211B4, size: 0x8, addend: 0x0, symName: __ZNSt3__117__compressed_pairIPNS_6vectorIP6NeuronNS_9allocatorIS3_EEEERNS4_IS6_EEEC2B7v160006IDnS9_EEOT_OT0_, symObjAddr: 0x84E0, symBinAddr: 0x100058570, symSize: 0x40 }
  - { offsetInCU: 0x2120B, offset: 0x2120B, size: 0x8, addend: 0x0, symName: __ZNSt3__122__compressed_pair_elemIRNS_9allocatorINS_6vectorIP6NeuronNS1_IS4_EEEEEELi1ELb0EEC2B7v160006IS8_vEEOT_, symObjAddr: 0x8520, symBinAddr: 0x1000585B0, symSize: 0x20 }
  - { offsetInCU: 0x2124C, offset: 0x2124C, size: 0x8, addend: 0x0, symName: __ZNSt3__19allocatorINS_6vectorIP6NeuronNS0_IS3_EEEEE8allocateB7v160006Em, symObjAddr: 0x8540, symBinAddr: 0x1000585D0, symSize: 0x50 }
  - { offsetInCU: 0x2127F, offset: 0x2127F, size: 0x8, addend: 0x0, symName: __ZNSt3__117__compressed_pairIPNS_6vectorIP6NeuronNS_9allocatorIS3_EEEERNS4_IS6_EEE6secondB7v160006Ev, symObjAddr: 0x8590, symBinAddr: 0x100058620, symSize: 0x20 }
  - { offsetInCU: 0x212A4, offset: 0x212A4, size: 0x8, addend: 0x0, symName: __ZNSt3__122__compressed_pair_elemIRNS_9allocatorINS_6vectorIP6NeuronNS1_IS4_EEEEEELi1ELb0EE5__getB7v160006Ev, symObjAddr: 0x85B0, symBinAddr: 0x100058640, symSize: 0x20 }
  - { offsetInCU: 0x212C9, offset: 0x212C9, size: 0x8, addend: 0x0, symName: __ZNSt3__117__compressed_pairIPNS_6vectorIP6NeuronNS_9allocatorIS3_EEEERNS4_IS6_EEE5firstB7v160006Ev, symObjAddr: 0x85D0, symBinAddr: 0x100058660, symSize: 0x20 }
  - { offsetInCU: 0x212EE, offset: 0x212EE, size: 0x8, addend: 0x0, symName: __ZNKSt3__16vectorINS0_IP6NeuronNS_9allocatorIS2_EEEENS3_IS5_EEE17__annotate_deleteB7v160006Ev, symObjAddr: 0x85F0, symBinAddr: 0x100058680, symSize: 0xB0 }
  - { offsetInCU: 0x21313, offset: 0x21313, size: 0x8, addend: 0x0, symName: __ZNSt3__116reverse_iteratorIPNS_6vectorIP6NeuronNS_9allocatorIS3_EEEEEC1B7v160006ES7_, symObjAddr: 0x8820, symBinAddr: 0x1000588B0, symSize: 0x30 }
  - { offsetInCU: 0x2134A, offset: 0x2134A, size: 0x8, addend: 0x0, symName: __ZNKSt3__116reverse_iteratorIPNS_6vectorIP6NeuronNS_9allocatorIS3_EEEEE4baseB7v160006Ev, symObjAddr: 0x8850, symBinAddr: 0x1000588E0, symSize: 0x20 }
  - { offsetInCU: 0x2136F, offset: 0x2136F, size: 0x8, addend: 0x0, symName: __ZNKSt3__16vectorINS0_IP6NeuronNS_9allocatorIS2_EEEENS3_IS5_EEE14__annotate_newB7v160006Em, symObjAddr: 0x88B0, symBinAddr: 0x100058940, symSize: 0xA0 }
  - { offsetInCU: 0x213A3, offset: 0x213A3, size: 0x8, addend: 0x0, symName: __ZNKSt3__16vectorINS0_IP6NeuronNS_9allocatorIS2_EEEENS3_IS5_EEE31__annotate_contiguous_containerB7v160006EPKvS9_S9_S9_, symObjAddr: 0x8960, symBinAddr: 0x1000589F0, symSize: 0x20 }
  - { offsetInCU: 0x213F4, offset: 0x213F4, size: 0x8, addend: 0x0, symName: __ZNKSt3__16vectorINS0_IP6NeuronNS_9allocatorIS2_EEEENS3_IS5_EEE4dataB7v160006Ev, symObjAddr: 0x8980, symBinAddr: 0x100058A10, symSize: 0x20 }
  - { offsetInCU: 0x21419, offset: 0x21419, size: 0x8, addend: 0x0, symName: __ZNSt3__129_AllocatorDestroyRangeReverseINS_9allocatorINS_6vectorIP6NeuronNS1_IS4_EEEEEENS_16reverse_iteratorIPS6_EEEC1B7v160006ERS7_RSA_SD_, symObjAddr: 0x8A00, symBinAddr: 0x100058A90, symSize: 0x40 }
  - { offsetInCU: 0x2146F, offset: 0x2146F, size: 0x8, addend: 0x0, symName: __ZNSt3__116allocator_traitsINS_9allocatorINS_6vectorIP6NeuronNS1_IS4_EEEEEEE9constructB7v160006IS6_JS6_EvEEvRS7_PT_DpOT0_, symObjAddr: 0x8A80, symBinAddr: 0x100058B10, symSize: 0x30 }
  - { offsetInCU: 0x214C6, offset: 0x214C6, size: 0x8, addend: 0x0, symName: __ZNKSt3__116reverse_iteratorIPNS_6vectorIP6NeuronNS_9allocatorIS3_EEEEEdeB7v160006Ev, symObjAddr: 0x8AD0, symBinAddr: 0x100058B60, symSize: 0x30 }
  - { offsetInCU: 0x214F9, offset: 0x214F9, size: 0x8, addend: 0x0, symName: __ZNSt3__116reverse_iteratorIPNS_6vectorIP6NeuronNS_9allocatorIS3_EEEEEppB7v160006Ev, symObjAddr: 0x8B00, symBinAddr: 0x100058B90, symSize: 0x20 }
  - { offsetInCU: 0x2151E, offset: 0x2151E, size: 0x8, addend: 0x0, symName: __ZNSt3__128__exception_guard_exceptionsINS_29_AllocatorDestroyRangeReverseINS_9allocatorINS_6vectorIP6NeuronNS2_IS5_EEEEEENS_16reverse_iteratorIPS7_EEEEE10__completeB7v160006Ev, symObjAddr: 0x8B20, symBinAddr: 0x100058BB0, symSize: 0x20 }
  - { offsetInCU: 0x21543, offset: 0x21543, size: 0x8, addend: 0x0, symName: __ZNSt3__128__exception_guard_exceptionsINS_29_AllocatorDestroyRangeReverseINS_9allocatorINS_6vectorIP6NeuronNS2_IS5_EEEEEENS_16reverse_iteratorIPS7_EEEEED1B7v160006Ev, symObjAddr: 0x8B40, symBinAddr: 0x100058BD0, symSize: 0x20 }
  - { offsetInCU: 0x2156C, offset: 0x2156C, size: 0x8, addend: 0x0, symName: __ZNSt3__128__exception_guard_exceptionsINS_29_AllocatorDestroyRangeReverseINS_9allocatorINS_6vectorIP6NeuronNS2_IS5_EEEEEENS_16reverse_iteratorIPS7_EEEEEC1B7v160006ESC_, symObjAddr: 0x8B60, symBinAddr: 0x100058BF0, symSize: 0x40 }
  - { offsetInCU: 0x215A3, offset: 0x215A3, size: 0x8, addend: 0x0, symName: __ZNSt3__128__exception_guard_exceptionsINS_29_AllocatorDestroyRangeReverseINS_9allocatorINS_6vectorIP6NeuronNS2_IS5_EEEEEENS_16reverse_iteratorIPS7_EEEEEC2B7v160006ESC_, symObjAddr: 0x8BA0, symBinAddr: 0x100058C30, symSize: 0x30 }
  - { offsetInCU: 0x215DA, offset: 0x215DA, size: 0x8, addend: 0x0, symName: __ZNSt3__129_AllocatorDestroyRangeReverseINS_9allocatorINS_6vectorIP6NeuronNS1_IS4_EEEEEENS_16reverse_iteratorIPS6_EEEC2B7v160006ERS7_RSA_SD_, symObjAddr: 0x8BD0, symBinAddr: 0x100058C60, symSize: 0x40 }
  - { offsetInCU: 0x21630, offset: 0x21630, size: 0x8, addend: 0x0, symName: __ZNSt3__19allocatorINS_6vectorIP6NeuronNS0_IS3_EEEEE9constructB7v160006IS5_JS5_EEEvPT_DpOT0_, symObjAddr: 0x8C10, symBinAddr: 0x100058CA0, symSize: 0x30 }
  - { offsetInCU: 0x21685, offset: 0x21685, size: 0x8, addend: 0x0, symName: __ZNSt3__16vectorIP6NeuronNS_9allocatorIS2_EEEC1B7v160006EOS5_, symObjAddr: 0x8C40, symBinAddr: 0x100058CD0, symSize: 0x30 }
  - { offsetInCU: 0x216BF, offset: 0x216BF, size: 0x8, addend: 0x0, symName: __ZNSt3__16vectorIP6NeuronNS_9allocatorIS2_EEEC2B7v160006EOS5_, symObjAddr: 0x8C70, symBinAddr: 0x100058D00, symSize: 0xE0 }
  - { offsetInCU: 0x216FE, offset: 0x216FE, size: 0x8, addend: 0x0, symName: __ZNSt3__119__to_address_helperINS_16reverse_iteratorIPNS_6vectorIP6NeuronNS_9allocatorIS4_EEEEEEvE6__callB7v160006ERKS9_, symObjAddr: 0x8D60, symBinAddr: 0x100058DF0, symSize: 0x40 }
  - { offsetInCU: 0x21721, offset: 0x21721, size: 0x8, addend: 0x0, symName: __ZNKSt3__116reverse_iteratorIPNS_6vectorIP6NeuronNS_9allocatorIS3_EEEEEptB7v160006Ev, symObjAddr: 0x8DA0, symBinAddr: 0x100058E30, symSize: 0x20 }
  - { offsetInCU: 0x21746, offset: 0x21746, size: 0x8, addend: 0x0, symName: __ZNSt3__128__exception_guard_exceptionsINS_29_AllocatorDestroyRangeReverseINS_9allocatorINS_6vectorIP6NeuronNS2_IS5_EEEEEENS_16reverse_iteratorIPS7_EEEEED2B7v160006Ev, symObjAddr: 0x8DC0, symBinAddr: 0x100058E50, symSize: 0x40 }
  - { offsetInCU: 0x2176F, offset: 0x2176F, size: 0x8, addend: 0x0, symName: __ZNKSt3__129_AllocatorDestroyRangeReverseINS_9allocatorINS_6vectorIP6NeuronNS1_IS4_EEEEEENS_16reverse_iteratorIPS6_EEEclB7v160006Ev, symObjAddr: 0x8E00, symBinAddr: 0x100058E90, symSize: 0xF0 }
  - { offsetInCU: 0x21795, offset: 0x21795, size: 0x8, addend: 0x0, symName: __ZNSt3__116reverse_iteratorINS0_IPNS_6vectorIP6NeuronNS_9allocatorIS3_EEEEEEEC1B7v160006ES8_, symObjAddr: 0x8F60, symBinAddr: 0x100058FF0, symSize: 0x30 }
  - { offsetInCU: 0x217CC, offset: 0x217CC, size: 0x8, addend: 0x0, symName: __ZNSt3__116allocator_traitsINS_9allocatorINS_6vectorIP6NeuronNS1_IS4_EEEEEEE7destroyB7v160006IS6_vEEvRS7_PT_, symObjAddr: 0x8FE0, symBinAddr: 0x100059070, symSize: 0x30 }
  - { offsetInCU: 0x21809, offset: 0x21809, size: 0x8, addend: 0x0, symName: __ZNSt3__116reverse_iteratorINS0_IPNS_6vectorIP6NeuronNS_9allocatorIS3_EEEEEEEppB7v160006Ev, symObjAddr: 0x9030, symBinAddr: 0x1000590C0, symSize: 0x30 }
  - { offsetInCU: 0x2182E, offset: 0x2182E, size: 0x8, addend: 0x0, symName: __ZNKSt3__116reverse_iteratorINS0_IPNS_6vectorIP6NeuronNS_9allocatorIS3_EEEEEEE4baseB7v160006Ev, symObjAddr: 0x9060, symBinAddr: 0x1000590F0, symSize: 0x20 }
  - { offsetInCU: 0x21853, offset: 0x21853, size: 0x8, addend: 0x0, symName: __ZNSt3__19allocatorINS_6vectorIP6NeuronNS0_IS3_EEEEE7destroyB7v160006EPS5_, symObjAddr: 0x9080, symBinAddr: 0x100059110, symSize: 0x20 }
  - { offsetInCU: 0x2188B, offset: 0x2188B, size: 0x8, addend: 0x0, symName: __ZNSt3__119__to_address_helperINS_16reverse_iteratorINS1_IPNS_6vectorIP6NeuronNS_9allocatorIS4_EEEEEEEEvE6__callB7v160006ERKSA_, symObjAddr: 0x90A0, symBinAddr: 0x100059130, symSize: 0x40 }
  - { offsetInCU: 0x218AE, offset: 0x218AE, size: 0x8, addend: 0x0, symName: __ZNKSt3__116reverse_iteratorINS0_IPNS_6vectorIP6NeuronNS_9allocatorIS3_EEEEEEEptB7v160006Ev, symObjAddr: 0x90E0, symBinAddr: 0x100059170, symSize: 0x20 }
  - { offsetInCU: 0x218D3, offset: 0x218D3, size: 0x8, addend: 0x0, symName: __ZNKSt3__116reverse_iteratorINS0_IPNS_6vectorIP6NeuronNS_9allocatorIS3_EEEEEEEdeB7v160006Ev, symObjAddr: 0x9100, symBinAddr: 0x100059190, symSize: 0x40 }
  - { offsetInCU: 0x21906, offset: 0x21906, size: 0x8, addend: 0x0, symName: __ZNSt3__116reverse_iteratorIPNS_6vectorIP6NeuronNS_9allocatorIS3_EEEEEmmB7v160006Ev, symObjAddr: 0x9140, symBinAddr: 0x1000591D0, symSize: 0x20 }
  - { offsetInCU: 0x2192B, offset: 0x2192B, size: 0x8, addend: 0x0, symName: __ZNSt3__116reverse_iteratorINS0_IPNS_6vectorIP6NeuronNS_9allocatorIS3_EEEEEEEC2B7v160006ES8_, symObjAddr: 0x9160, symBinAddr: 0x1000591F0, symSize: 0x40 }
  - { offsetInCU: 0x21962, offset: 0x21962, size: 0x8, addend: 0x0, symName: __ZNSt3__116reverse_iteratorIPNS_6vectorIP6NeuronNS_9allocatorIS3_EEEEEC2B7v160006ES7_, symObjAddr: 0x91A0, symBinAddr: 0x100059230, symSize: 0x30 }
  - { offsetInCU: 0x21999, offset: 0x21999, size: 0x8, addend: 0x0, symName: __ZNSt3__114__split_bufferINS_6vectorIP6NeuronNS_9allocatorIS3_EEEERNS4_IS6_EEED2Ev, symObjAddr: 0x91D0, symBinAddr: 0x100059260, symSize: 0x70 }
  - { offsetInCU: 0x219C4, offset: 0x219C4, size: 0x8, addend: 0x0, symName: __ZNSt3__114__split_bufferINS_6vectorIP6NeuronNS_9allocatorIS3_EEEERNS4_IS6_EEE5clearB7v160006Ev, symObjAddr: 0x9240, symBinAddr: 0x1000592D0, symSize: 0x20 }
  - { offsetInCU: 0x219E9, offset: 0x219E9, size: 0x8, addend: 0x0, symName: __ZNSt3__116allocator_traitsINS_9allocatorINS_6vectorIP6NeuronNS1_IS4_EEEEEEE10deallocateB7v160006ERS7_PS6_m, symObjAddr: 0x9260, symBinAddr: 0x1000592F0, symSize: 0x30 }
  - { offsetInCU: 0x21A2B, offset: 0x21A2B, size: 0x8, addend: 0x0, symName: __ZNKSt3__114__split_bufferINS_6vectorIP6NeuronNS_9allocatorIS3_EEEERNS4_IS6_EEE8capacityB7v160006Ev, symObjAddr: 0x9290, symBinAddr: 0x100059320, symSize: 0x40 }
  - { offsetInCU: 0x21A50, offset: 0x21A50, size: 0x8, addend: 0x0, symName: __ZNSt3__114__split_bufferINS_6vectorIP6NeuronNS_9allocatorIS3_EEEERNS4_IS6_EEE17__destruct_at_endB7v160006EPS6_, symObjAddr: 0x92D0, symBinAddr: 0x100059360, symSize: 0x30 }
  - { offsetInCU: 0x21A82, offset: 0x21A82, size: 0x8, addend: 0x0, symName: __ZNSt3__114__split_bufferINS_6vectorIP6NeuronNS_9allocatorIS3_EEEERNS4_IS6_EEE17__destruct_at_endB7v160006EPS6_NS_17integral_constantIbLb0EEE, symObjAddr: 0x9300, symBinAddr: 0x100059390, symSize: 0x80 }
  - { offsetInCU: 0x21AC1, offset: 0x21AC1, size: 0x8, addend: 0x0, symName: __ZNSt3__19allocatorINS_6vectorIP6NeuronNS0_IS3_EEEEE10deallocateB7v160006EPS5_m, symObjAddr: 0x9380, symBinAddr: 0x100059410, symSize: 0x50 }
  - { offsetInCU: 0x21B02, offset: 0x21B02, size: 0x8, addend: 0x0, symName: __ZNKSt3__114__split_bufferINS_6vectorIP6NeuronNS_9allocatorIS3_EEEERNS4_IS6_EEE9__end_capB7v160006Ev, symObjAddr: 0x93D0, symBinAddr: 0x100059460, symSize: 0x20 }
  - { offsetInCU: 0x21B27, offset: 0x21B27, size: 0x8, addend: 0x0, symName: __ZNKSt3__117__compressed_pairIPNS_6vectorIP6NeuronNS_9allocatorIS3_EEEERNS4_IS6_EEE5firstB7v160006Ev, symObjAddr: 0x93F0, symBinAddr: 0x100059480, symSize: 0x20 }
  - { offsetInCU: 0x21B4C, offset: 0x21B4C, size: 0x8, addend: 0x0, symName: __ZN6WeightC2Ev, symObjAddr: 0x9410, symBinAddr: 0x1000594A0, symSize: 0x100 }
  - { offsetInCU: 0x21BCB, offset: 0x21BCB, size: 0x8, addend: 0x0, symName: __ZNSt3__125uniform_real_distributionIfEC1Eff, symObjAddr: 0x9510, symBinAddr: 0x1000595A0, symSize: 0x30 }
  - { offsetInCU: 0x21C10, offset: 0x21C10, size: 0x8, addend: 0x0, symName: __ZNSt3__125uniform_real_distributionIfEclB7v160006INS_23mersenne_twister_engineIjLm32ELm624ELm397ELm31ELj2567483615ELm11ELj4294967295ELm7ELj2636928640ELm15ELj4022730752ELm18ELj1812433253EEEEEfRT_, symObjAddr: 0x9540, symBinAddr: 0x1000595D0, symSize: 0x30 }
  - { offsetInCU: 0x21C4C, offset: 0x21C4C, size: 0x8, addend: 0x0, symName: __ZNSt3__125uniform_real_distributionIfEC2Eff, symObjAddr: 0x9570, symBinAddr: 0x100059600, symSize: 0x30 }
  - { offsetInCU: 0x21C91, offset: 0x21C91, size: 0x8, addend: 0x0, symName: __ZNSt3__125uniform_real_distributionIfE10param_typeC1B7v160006Eff, symObjAddr: 0x95A0, symBinAddr: 0x100059630, symSize: 0x30 }
  - { offsetInCU: 0x21CD6, offset: 0x21CD6, size: 0x8, addend: 0x0, symName: __ZNSt3__125uniform_real_distributionIfE10param_typeC2B7v160006Eff, symObjAddr: 0x95D0, symBinAddr: 0x100059660, symSize: 0x30 }
  - { offsetInCU: 0x21D1A, offset: 0x21D1A, size: 0x8, addend: 0x0, symName: __ZNSt3__125uniform_real_distributionIfEclINS_23mersenne_twister_engineIjLm32ELm624ELm397ELm31ELj2567483615ELm11ELj4294967295ELm7ELj2636928640ELm15ELj4022730752ELm18ELj1812433253EEEEEfRT_RKNS1_10param_typeE, symObjAddr: 0x9600, symBinAddr: 0x100059690, symSize: 0x70 }
  - { offsetInCU: 0x21D65, offset: 0x21D65, size: 0x8, addend: 0x0, symName: __ZNKSt3__125uniform_real_distributionIfE10param_type1bB7v160006Ev, symObjAddr: 0x9670, symBinAddr: 0x100059700, symSize: 0x20 }
  - { offsetInCU: 0x21D8A, offset: 0x21D8A, size: 0x8, addend: 0x0, symName: __ZNKSt3__125uniform_real_distributionIfE10param_type1aB7v160006Ev, symObjAddr: 0x9690, symBinAddr: 0x100059720, symSize: 0x20 }
  - { offsetInCU: 0x21DAF, offset: 0x21DAF, size: 0x8, addend: 0x0, symName: __ZNSt3__123mersenne_twister_engineIjLm32ELm624ELm397ELm31ELj2567483615ELm11ELj4294967295ELm7ELj2636928640ELm15ELj4022730752ELm18ELj1812433253EE3maxB7v160006Ev, symObjAddr: 0x97B0, symBinAddr: 0x100059840, symSize: 0x10 }
  - { offsetInCU: 0x21DC3, offset: 0x21DC3, size: 0x8, addend: 0x0, symName: __ZNSt3__123mersenne_twister_engineIjLm32ELm624ELm397ELm31ELj2567483615ELm11ELj4294967295ELm7ELj2636928640ELm15ELj4022730752ELm18ELj1812433253EE3minB7v160006Ev, symObjAddr: 0x97C0, symBinAddr: 0x100059850, symSize: 0x10 }
  - { offsetInCU: 0x21DD6, offset: 0x21DD6, size: 0x8, addend: 0x0, symName: __ZNSt3__123mersenne_twister_engineIjLm32ELm624ELm397ELm31ELj2567483615ELm11ELj4294967295ELm7ELj2636928640ELm15ELj4022730752ELm18ELj1812433253EEclEv, symObjAddr: 0x97D0, symBinAddr: 0x100059860, symSize: 0x130 }
  - { offsetInCU: 0x21E48, offset: 0x21E48, size: 0x8, addend: 0x0, symName: __ZNSt3__123mersenne_twister_engineIjLm32ELm624ELm397ELm31ELj2567483615ELm11ELj4294967295ELm7ELj2636928640ELm15ELj4022730752ELm18ELj1812433253EE8__rshiftB7v160006ILm1EEENS_9enable_ifIXltT_L_ZNS1_3_DtEEEjE4typeEj, symObjAddr: 0x9900, symBinAddr: 0x100059990, symSize: 0x10 }
  - { offsetInCU: 0x21E75, offset: 0x21E75, size: 0x8, addend: 0x0, symName: __ZNSt3__123mersenne_twister_engineIjLm32ELm624ELm397ELm31ELj2567483615ELm11ELj4294967295ELm7ELj2636928640ELm15ELj4022730752ELm18ELj1812433253EE8__rshiftB7v160006ILm11EEENS_9enable_ifIXltT_L_ZNS1_3_DtEEEjE4typeEj, symObjAddr: 0x9910, symBinAddr: 0x1000599A0, symSize: 0x10 }
  - { offsetInCU: 0x21EA2, offset: 0x21EA2, size: 0x8, addend: 0x0, symName: __ZNSt3__123mersenne_twister_engineIjLm32ELm624ELm397ELm31ELj2567483615ELm11ELj4294967295ELm7ELj2636928640ELm15ELj4022730752ELm18ELj1812433253EE8__lshiftB7v160006ILm7EEENS_9enable_ifIXltT_Lm32EEjE4typeEj, symObjAddr: 0x9920, symBinAddr: 0x1000599B0, symSize: 0x20 }
  - { offsetInCU: 0x21ECF, offset: 0x21ECF, size: 0x8, addend: 0x0, symName: __ZNSt3__123mersenne_twister_engineIjLm32ELm624ELm397ELm31ELj2567483615ELm11ELj4294967295ELm7ELj2636928640ELm15ELj4022730752ELm18ELj1812433253EE8__lshiftB7v160006ILm15EEENS_9enable_ifIXltT_Lm32EEjE4typeEj, symObjAddr: 0x9940, symBinAddr: 0x1000599D0, symSize: 0x20 }
  - { offsetInCU: 0x21EFC, offset: 0x21EFC, size: 0x8, addend: 0x0, symName: __ZNSt3__123mersenne_twister_engineIjLm32ELm624ELm397ELm31ELj2567483615ELm11ELj4294967295ELm7ELj2636928640ELm15ELj4022730752ELm18ELj1812433253EE8__rshiftB7v160006ILm18EEENS_9enable_ifIXltT_L_ZNS1_3_DtEEEjE4typeEj, symObjAddr: 0x9960, symBinAddr: 0x1000599F0, symSize: 0x10 }
  - { offsetInCU: 0x21F29, offset: 0x21F29, size: 0x8, addend: 0x0, symName: __ZN6Weight5setInEP6Neuron, symObjAddr: 0x9970, symBinAddr: 0x100059A00, symSize: 0x20 }
  - { offsetInCU: 0x21F5C, offset: 0x21F5C, size: 0x8, addend: 0x0, symName: __ZN6Weight6setOutEP6Neuron, symObjAddr: 0x9990, symBinAddr: 0x100059A20, symSize: 0x20 }
  - { offsetInCU: 0x21F8F, offset: 0x21F8F, size: 0x8, addend: 0x0, symName: __ZNSt3__16vectorIP6WeightNS_9allocatorIS2_EEE9__end_capB7v160006Ev, symObjAddr: 0x99B0, symBinAddr: 0x100059A40, symSize: 0x20 }
  - { offsetInCU: 0x21FB4, offset: 0x21FB4, size: 0x8, addend: 0x0, symName: __ZNSt3__16vectorIP6WeightNS_9allocatorIS2_EEE22__construct_one_at_endB7v160006IJRKS2_EEEvDpOT_, symObjAddr: 0x99D0, symBinAddr: 0x100059A60, symSize: 0x90 }
  - { offsetInCU: 0x22001, offset: 0x22001, size: 0x8, addend: 0x0, symName: __ZNSt3__16vectorIP6WeightNS_9allocatorIS2_EEE21__push_back_slow_pathIRKS2_EEvOT_, symObjAddr: 0x9A60, symBinAddr: 0x100059AF0, symSize: 0xD0 }
  - { offsetInCU: 0x2205E, offset: 0x2205E, size: 0x8, addend: 0x0, symName: __ZNSt3__117__compressed_pairIPP6WeightNS_9allocatorIS2_EEE5firstB7v160006Ev, symObjAddr: 0x9B30, symBinAddr: 0x100059BC0, symSize: 0x20 }
  - { offsetInCU: 0x22083, offset: 0x22083, size: 0x8, addend: 0x0, symName: __ZNSt3__122__compressed_pair_elemIPP6WeightLi0ELb0EE5__getB7v160006Ev, symObjAddr: 0x9B50, symBinAddr: 0x100059BE0, symSize: 0x10 }
  - { offsetInCU: 0x220C1, offset: 0x220C1, size: 0x8, addend: 0x0, symName: __ZNSt3__16vectorIP6WeightNS_9allocatorIS2_EEE21_ConstructTransactionC1B7v160006ERS5_m, symObjAddr: 0x9B60, symBinAddr: 0x100059BF0, symSize: 0x30 }
  - { offsetInCU: 0x22108, offset: 0x22108, size: 0x8, addend: 0x0, symName: __ZNSt3__116allocator_traitsINS_9allocatorIP6WeightEEE9constructB7v160006IS3_JRKS3_EvEEvRS4_PT_DpOT0_, symObjAddr: 0x9B90, symBinAddr: 0x100059C20, symSize: 0x30 }
  - { offsetInCU: 0x2215F, offset: 0x2215F, size: 0x8, addend: 0x0, symName: __ZNSt3__16vectorIP6WeightNS_9allocatorIS2_EEE7__allocB7v160006Ev, symObjAddr: 0x9BC0, symBinAddr: 0x100059C50, symSize: 0x20 }
  - { offsetInCU: 0x22184, offset: 0x22184, size: 0x8, addend: 0x0, symName: __ZNSt3__16vectorIP6WeightNS_9allocatorIS2_EEE21_ConstructTransactionD1B7v160006Ev, symObjAddr: 0x9BF0, symBinAddr: 0x100059C80, symSize: 0x20 }
  - { offsetInCU: 0x221AD, offset: 0x221AD, size: 0x8, addend: 0x0, symName: __ZNSt3__16vectorIP6WeightNS_9allocatorIS2_EEE21_ConstructTransactionC2B7v160006ERS5_m, symObjAddr: 0x9C10, symBinAddr: 0x100059CA0, symSize: 0x40 }
  - { offsetInCU: 0x221F4, offset: 0x221F4, size: 0x8, addend: 0x0, symName: __ZNSt3__19allocatorIP6WeightE9constructB7v160006IS2_JRKS2_EEEvPT_DpOT0_, symObjAddr: 0x9C50, symBinAddr: 0x100059CE0, symSize: 0x20 }
  - { offsetInCU: 0x22249, offset: 0x22249, size: 0x8, addend: 0x0, symName: __ZNSt3__117__compressed_pairIPP6WeightNS_9allocatorIS2_EEE6secondB7v160006Ev, symObjAddr: 0x9C70, symBinAddr: 0x100059D00, symSize: 0x20 }
  - { offsetInCU: 0x2226E, offset: 0x2226E, size: 0x8, addend: 0x0, symName: __ZNSt3__122__compressed_pair_elemINS_9allocatorIP6WeightEELi1ELb1EE5__getB7v160006Ev, symObjAddr: 0x9C90, symBinAddr: 0x100059D20, symSize: 0x10 }
  - { offsetInCU: 0x22293, offset: 0x22293, size: 0x8, addend: 0x0, symName: __ZNSt3__16vectorIP6WeightNS_9allocatorIS2_EEE21_ConstructTransactionD2B7v160006Ev, symObjAddr: 0x9CA0, symBinAddr: 0x100059D30, symSize: 0x20 }
  - { offsetInCU: 0x222BB, offset: 0x222BB, size: 0x8, addend: 0x0, symName: __ZNKSt3__16vectorIP6WeightNS_9allocatorIS2_EEE11__recommendB7v160006Em, symObjAddr: 0x9CC0, symBinAddr: 0x100059D50, symSize: 0xA0 }
  - { offsetInCU: 0x2230F, offset: 0x2230F, size: 0x8, addend: 0x0, symName: __ZNKSt3__16vectorIP6WeightNS_9allocatorIS2_EEE4sizeB7v160006Ev, symObjAddr: 0x9D60, symBinAddr: 0x100059DF0, symSize: 0x20 }
  - { offsetInCU: 0x22334, offset: 0x22334, size: 0x8, addend: 0x0, symName: __ZNSt3__114__split_bufferIP6WeightRNS_9allocatorIS2_EEEC1EmmS5_, symObjAddr: 0x9D80, symBinAddr: 0x100059E10, symSize: 0x40 }
  - { offsetInCU: 0x22389, offset: 0x22389, size: 0x8, addend: 0x0, symName: __ZNSt3__114__split_bufferIP6WeightRNS_9allocatorIS2_EEED1Ev, symObjAddr: 0x9EF0, symBinAddr: 0x100059F80, symSize: 0x20 }
  - { offsetInCU: 0x223B3, offset: 0x223B3, size: 0x8, addend: 0x0, symName: __ZNKSt3__16vectorIP6WeightNS_9allocatorIS2_EEE8max_sizeEv, symObjAddr: 0x9F10, symBinAddr: 0x100059FA0, symSize: 0x60 }
  - { offsetInCU: 0x223DA, offset: 0x223DA, size: 0x8, addend: 0x0, symName: __ZNKSt3__16vectorIP6WeightNS_9allocatorIS2_EEE20__throw_length_errorB7v160006Ev, symObjAddr: 0x9F70, symBinAddr: 0x10005A000, symSize: 0x20 }
  - { offsetInCU: 0x223FF, offset: 0x223FF, size: 0x8, addend: 0x0, symName: __ZNKSt3__16vectorIP6WeightNS_9allocatorIS2_EEE8capacityB7v160006Ev, symObjAddr: 0x9F90, symBinAddr: 0x10005A020, symSize: 0x30 }
  - { offsetInCU: 0x2242E, offset: 0x2242E, size: 0x8, addend: 0x0, symName: __ZNSt3__116allocator_traitsINS_9allocatorIP6WeightEEE8max_sizeB7v160006IS4_vEEmRKS4_, symObjAddr: 0x9FC0, symBinAddr: 0x10005A050, symSize: 0x20 }
  - { offsetInCU: 0x2245C, offset: 0x2245C, size: 0x8, addend: 0x0, symName: __ZNKSt3__16vectorIP6WeightNS_9allocatorIS2_EEE7__allocB7v160006Ev, symObjAddr: 0x9FE0, symBinAddr: 0x10005A070, symSize: 0x20 }
  - { offsetInCU: 0x22481, offset: 0x22481, size: 0x8, addend: 0x0, symName: __ZNKSt3__19allocatorIP6WeightE8max_sizeB7v160006Ev, symObjAddr: 0xA000, symBinAddr: 0x10005A090, symSize: 0x20 }
  - { offsetInCU: 0x224A6, offset: 0x224A6, size: 0x8, addend: 0x0, symName: __ZNKSt3__117__compressed_pairIPP6WeightNS_9allocatorIS2_EEE6secondB7v160006Ev, symObjAddr: 0xA020, symBinAddr: 0x10005A0B0, symSize: 0x20 }
  - { offsetInCU: 0x224CB, offset: 0x224CB, size: 0x8, addend: 0x0, symName: __ZNKSt3__122__compressed_pair_elemINS_9allocatorIP6WeightEELi1ELb1EE5__getB7v160006Ev, symObjAddr: 0xA040, symBinAddr: 0x10005A0D0, symSize: 0x10 }
  - { offsetInCU: 0x224F0, offset: 0x224F0, size: 0x8, addend: 0x0, symName: __ZNKSt3__16vectorIP6WeightNS_9allocatorIS2_EEE9__end_capB7v160006Ev, symObjAddr: 0xA050, symBinAddr: 0x10005A0E0, symSize: 0x20 }
  - { offsetInCU: 0x22515, offset: 0x22515, size: 0x8, addend: 0x0, symName: __ZNKSt3__117__compressed_pairIPP6WeightNS_9allocatorIS2_EEE5firstB7v160006Ev, symObjAddr: 0xA070, symBinAddr: 0x10005A100, symSize: 0x20 }
  - { offsetInCU: 0x2253A, offset: 0x2253A, size: 0x8, addend: 0x0, symName: __ZNKSt3__122__compressed_pair_elemIPP6WeightLi0ELb0EE5__getB7v160006Ev, symObjAddr: 0xA090, symBinAddr: 0x10005A120, symSize: 0x10 }
  - { offsetInCU: 0x2255F, offset: 0x2255F, size: 0x8, addend: 0x0, symName: __ZNSt3__114__split_bufferIP6WeightRNS_9allocatorIS2_EEEC2EmmS5_, symObjAddr: 0xA0A0, symBinAddr: 0x10005A130, symSize: 0xD0 }
  - { offsetInCU: 0x225D1, offset: 0x225D1, size: 0x8, addend: 0x0, symName: __ZNSt3__117__compressed_pairIPP6WeightRNS_9allocatorIS2_EEEC1B7v160006IDnS6_EEOT_OT0_, symObjAddr: 0xA170, symBinAddr: 0x10005A200, symSize: 0x30 }
  - { offsetInCU: 0x22628, offset: 0x22628, size: 0x8, addend: 0x0, symName: __ZNSt3__114__split_bufferIP6WeightRNS_9allocatorIS2_EEE7__allocB7v160006Ev, symObjAddr: 0xA1E0, symBinAddr: 0x10005A270, symSize: 0x20 }
  - { offsetInCU: 0x2264D, offset: 0x2264D, size: 0x8, addend: 0x0, symName: __ZNSt3__114__split_bufferIP6WeightRNS_9allocatorIS2_EEE9__end_capB7v160006Ev, symObjAddr: 0xA200, symBinAddr: 0x10005A290, symSize: 0x20 }
  - { offsetInCU: 0x22672, offset: 0x22672, size: 0x8, addend: 0x0, symName: __ZNSt3__117__compressed_pairIPP6WeightRNS_9allocatorIS2_EEEC2B7v160006IDnS6_EEOT_OT0_, symObjAddr: 0xA220, symBinAddr: 0x10005A2B0, symSize: 0x40 }
  - { offsetInCU: 0x226C9, offset: 0x226C9, size: 0x8, addend: 0x0, symName: __ZNSt3__122__compressed_pair_elemIRNS_9allocatorIP6WeightEELi1ELb0EEC2B7v160006IS5_vEEOT_, symObjAddr: 0xA260, symBinAddr: 0x10005A2F0, symSize: 0x20 }
  - { offsetInCU: 0x2270A, offset: 0x2270A, size: 0x8, addend: 0x0, symName: __ZNSt3__19allocatorIP6WeightE8allocateB7v160006Em, symObjAddr: 0xA280, symBinAddr: 0x10005A310, symSize: 0x50 }
  - { offsetInCU: 0x2273D, offset: 0x2273D, size: 0x8, addend: 0x0, symName: __ZNSt3__117__compressed_pairIPP6WeightRNS_9allocatorIS2_EEE6secondB7v160006Ev, symObjAddr: 0xA2D0, symBinAddr: 0x10005A360, symSize: 0x20 }
  - { offsetInCU: 0x22762, offset: 0x22762, size: 0x8, addend: 0x0, symName: __ZNSt3__122__compressed_pair_elemIRNS_9allocatorIP6WeightEELi1ELb0EE5__getB7v160006Ev, symObjAddr: 0xA2F0, symBinAddr: 0x10005A380, symSize: 0x20 }
  - { offsetInCU: 0x22787, offset: 0x22787, size: 0x8, addend: 0x0, symName: __ZNSt3__117__compressed_pairIPP6WeightRNS_9allocatorIS2_EEE5firstB7v160006Ev, symObjAddr: 0xA310, symBinAddr: 0x10005A3A0, symSize: 0x20 }
  - { offsetInCU: 0x227AC, offset: 0x227AC, size: 0x8, addend: 0x0, symName: __ZNKSt3__16vectorIP6WeightNS_9allocatorIS2_EEE17__annotate_deleteB7v160006Ev, symObjAddr: 0xA330, symBinAddr: 0x10005A3C0, symSize: 0xB0 }
  - { offsetInCU: 0x227D1, offset: 0x227D1, size: 0x8, addend: 0x0, symName: __ZNSt3__116reverse_iteratorIPP6WeightEC1B7v160006ES3_, symObjAddr: 0xA450, symBinAddr: 0x10005A4E0, symSize: 0x30 }
  - { offsetInCU: 0x22808, offset: 0x22808, size: 0x8, addend: 0x0, symName: __ZNKSt3__116reverse_iteratorIPP6WeightE4baseB7v160006Ev, symObjAddr: 0xA480, symBinAddr: 0x10005A510, symSize: 0x20 }
  - { offsetInCU: 0x2282D, offset: 0x2282D, size: 0x8, addend: 0x0, symName: __ZNKSt3__16vectorIP6WeightNS_9allocatorIS2_EEE14__annotate_newB7v160006Em, symObjAddr: 0xA4E0, symBinAddr: 0x10005A570, symSize: 0xB0 }
  - { offsetInCU: 0x22861, offset: 0x22861, size: 0x8, addend: 0x0, symName: __ZNKSt3__16vectorIP6WeightNS_9allocatorIS2_EEE31__annotate_contiguous_containerB7v160006EPKvS7_S7_S7_, symObjAddr: 0xA5A0, symBinAddr: 0x10005A630, symSize: 0x20 }
  - { offsetInCU: 0x228B2, offset: 0x228B2, size: 0x8, addend: 0x0, symName: __ZNKSt3__16vectorIP6WeightNS_9allocatorIS2_EEE4dataB7v160006Ev, symObjAddr: 0xA5C0, symBinAddr: 0x10005A650, symSize: 0x20 }
  - { offsetInCU: 0x228F0, offset: 0x228F0, size: 0x8, addend: 0x0, symName: __ZNKSt3__111__move_loopINS_17_ClassicAlgPolicyEEclB7v160006INS_16reverse_iteratorIPP6WeightEES8_S8_EENS_4pairIT_T1_EESA_T0_SB_, symObjAddr: 0xAA20, symBinAddr: 0x10005AAB0, symSize: 0xA0 }
  - { offsetInCU: 0x2295F, offset: 0x2295F, size: 0x8, addend: 0x0, symName: __ZNSt3__18_IterOpsINS_17_ClassicAlgPolicyEE11__iter_moveB7v160006IRNS_16reverse_iteratorIPP6WeightEEEENS_9enable_ifIXsr12is_referenceIDTdeclsr3stdE7declvalIRT_EEEEE5valueEDTclsr3stdE4movedeclsr3stdE7declvalISC_EEEEE4typeEOSB_, symObjAddr: 0xAC40, symBinAddr: 0x10005ACD0, symSize: 0x20 }
  - { offsetInCU: 0x2298B, offset: 0x2298B, size: 0x8, addend: 0x0, symName: __ZNKSt3__116reverse_iteratorIPP6WeightEdeB7v160006Ev, symObjAddr: 0xAC60, symBinAddr: 0x10005ACF0, symSize: 0x30 }
  - { offsetInCU: 0x229BE, offset: 0x229BE, size: 0x8, addend: 0x0, symName: __ZNSt3__116reverse_iteratorIPP6WeightEppB7v160006Ev, symObjAddr: 0xAC90, symBinAddr: 0x10005AD20, symSize: 0x20 }
  - { offsetInCU: 0x229E3, offset: 0x229E3, size: 0x8, addend: 0x0, symName: __ZNSt3__18_IterOpsINS_17_ClassicAlgPolicyEE25__validate_iter_referenceB7v160006IRNS_16reverse_iteratorIPP6WeightEEEEvv, symObjAddr: 0xACB0, symBinAddr: 0x10005AD40, symSize: 0x10 }
  - { offsetInCU: 0x22A01, offset: 0x22A01, size: 0x8, addend: 0x0, symName: __ZNSt3__118__unwrap_iter_implINS_16reverse_iteratorIPP6WeightEELb0EE8__unwrapB7v160006ES5_, symObjAddr: 0xACC0, symBinAddr: 0x10005AD50, symSize: 0x20 }
  - { offsetInCU: 0x22A29, offset: 0x22A29, size: 0x8, addend: 0x0, symName: __ZNSt3__14pairINS_16reverse_iteratorIPP6WeightEES5_EC1B7v160006IS5_S5_LPv0EEEOT_OT0_, symObjAddr: 0xACE0, symBinAddr: 0x10005AD70, symSize: 0x30 }
  - { offsetInCU: 0x22A86, offset: 0x22A86, size: 0x8, addend: 0x0, symName: __ZNSt3__14pairINS_16reverse_iteratorIPP6WeightEES5_EC2B7v160006IS5_S5_LPv0EEEOT_OT0_, symObjAddr: 0xAD10, symBinAddr: 0x10005ADA0, symSize: 0x40 }
  - { offsetInCU: 0x22AE3, offset: 0x22AE3, size: 0x8, addend: 0x0, symName: __ZNSt3__118__unwrap_iter_implINS_16reverse_iteratorIPP6WeightEELb0EE8__rewrapB7v160006ES5_S5_, symObjAddr: 0xAD50, symBinAddr: 0x10005ADE0, symSize: 0x30 }
  - { offsetInCU: 0x22B10, offset: 0x22B10, size: 0x8, addend: 0x0, symName: __ZNSt3__116reverse_iteratorIPP6WeightEC2B7v160006ES3_, symObjAddr: 0xAD80, symBinAddr: 0x10005AE10, symSize: 0x30 }
  - { offsetInCU: 0x22B47, offset: 0x22B47, size: 0x8, addend: 0x0, symName: __ZNSt3__114__split_bufferIP6WeightRNS_9allocatorIS2_EEED2Ev, symObjAddr: 0xADB0, symBinAddr: 0x10005AE40, symSize: 0x70 }
  - { offsetInCU: 0x22B72, offset: 0x22B72, size: 0x8, addend: 0x0, symName: __ZNSt3__114__split_bufferIP6WeightRNS_9allocatorIS2_EEE5clearB7v160006Ev, symObjAddr: 0xAE20, symBinAddr: 0x10005AEB0, symSize: 0x20 }
  - { offsetInCU: 0x22B97, offset: 0x22B97, size: 0x8, addend: 0x0, symName: __ZNSt3__116allocator_traitsINS_9allocatorIP6WeightEEE10deallocateB7v160006ERS4_PS3_m, symObjAddr: 0xAE40, symBinAddr: 0x10005AED0, symSize: 0x30 }
  - { offsetInCU: 0x22BD9, offset: 0x22BD9, size: 0x8, addend: 0x0, symName: __ZNKSt3__114__split_bufferIP6WeightRNS_9allocatorIS2_EEE8capacityB7v160006Ev, symObjAddr: 0xAE70, symBinAddr: 0x10005AF00, symSize: 0x30 }
  - { offsetInCU: 0x22BFE, offset: 0x22BFE, size: 0x8, addend: 0x0, symName: __ZNSt3__114__split_bufferIP6WeightRNS_9allocatorIS2_EEE17__destruct_at_endB7v160006EPS2_, symObjAddr: 0xAEA0, symBinAddr: 0x10005AF30, symSize: 0x30 }
  - { offsetInCU: 0x22C30, offset: 0x22C30, size: 0x8, addend: 0x0, symName: __ZNSt3__114__split_bufferIP6WeightRNS_9allocatorIS2_EEE17__destruct_at_endB7v160006EPS2_NS_17integral_constantIbLb0EEE, symObjAddr: 0xAED0, symBinAddr: 0x10005AF60, symSize: 0x80 }
  - { offsetInCU: 0x22C6F, offset: 0x22C6F, size: 0x8, addend: 0x0, symName: __ZNSt3__116allocator_traitsINS_9allocatorIP6WeightEEE7destroyB7v160006IS3_vEEvRS4_PT_, symObjAddr: 0xAF50, symBinAddr: 0x10005AFE0, symSize: 0x30 }
  - { offsetInCU: 0x22CAC, offset: 0x22CAC, size: 0x8, addend: 0x0, symName: __ZNSt3__19allocatorIP6WeightE7destroyB7v160006EPS2_, symObjAddr: 0xAF80, symBinAddr: 0x10005B010, symSize: 0x10 }
  - { offsetInCU: 0x22CDF, offset: 0x22CDF, size: 0x8, addend: 0x0, symName: __ZNSt3__19allocatorIP6WeightE10deallocateB7v160006EPS2_m, symObjAddr: 0xAF90, symBinAddr: 0x10005B020, symSize: 0x40 }
  - { offsetInCU: 0x22D20, offset: 0x22D20, size: 0x8, addend: 0x0, symName: __ZNKSt3__114__split_bufferIP6WeightRNS_9allocatorIS2_EEE9__end_capB7v160006Ev, symObjAddr: 0xAFD0, symBinAddr: 0x10005B060, symSize: 0x20 }
  - { offsetInCU: 0x22D45, offset: 0x22D45, size: 0x8, addend: 0x0, symName: __ZNKSt3__117__compressed_pairIPP6WeightRNS_9allocatorIS2_EEE5firstB7v160006Ev, symObjAddr: 0xAFF0, symBinAddr: 0x10005B080, symSize: 0x20 }
  - { offsetInCU: 0x22D6A, offset: 0x22D6A, size: 0x8, addend: 0x0, symName: __ZNSt3__16vectorINS0_IP6NeuronNS_9allocatorIS2_EEEENS3_IS5_EEED2B7v160006Ev, symObjAddr: 0xB010, symBinAddr: 0x10005B0A0, symSize: 0x40 }
  - { offsetInCU: 0x22D93, offset: 0x22D93, size: 0x8, addend: 0x0, symName: __ZNSt3__16vectorINS0_IP6NeuronNS_9allocatorIS2_EEEENS3_IS5_EEE16__destroy_vectorC1ERS7_, symObjAddr: 0xB050, symBinAddr: 0x10005B0E0, symSize: 0x30 }
  - { offsetInCU: 0x22DCB, offset: 0x22DCB, size: 0x8, addend: 0x0, symName: __ZNSt3__16vectorINS0_IP6NeuronNS_9allocatorIS2_EEEENS3_IS5_EEE16__destroy_vectorclB7v160006Ev, symObjAddr: 0xB080, symBinAddr: 0x10005B110, symSize: 0x90 }
  - { offsetInCU: 0x22DF0, offset: 0x22DF0, size: 0x8, addend: 0x0, symName: __ZNSt3__16vectorINS0_IP6NeuronNS_9allocatorIS2_EEEENS3_IS5_EEE16__destroy_vectorC2ERS7_, symObjAddr: 0xB110, symBinAddr: 0x10005B1A0, symSize: 0x20 }
  - { offsetInCU: 0x22E28, offset: 0x22E28, size: 0x8, addend: 0x0, symName: __ZNSt3__16vectorINS0_IP6NeuronNS_9allocatorIS2_EEEENS3_IS5_EEE7__clearB7v160006Ev, symObjAddr: 0xB140, symBinAddr: 0x10005B1D0, symSize: 0x20 }
  - { offsetInCU: 0x22E4D, offset: 0x22E4D, size: 0x8, addend: 0x0, symName: __ZNSt3__16vectorINS0_IP6NeuronNS_9allocatorIS2_EEEENS3_IS5_EEE22__base_destruct_at_endB7v160006EPS5_, symObjAddr: 0xB160, symBinAddr: 0x10005B1F0, symSize: 0x80 }
  - { offsetInCU: 0x22E95, offset: 0x22E95, size: 0x8, addend: 0x0, symName: __ZNSt3__112basic_stringIcNS_11char_traitsIcEENS_9allocatorIcEEEC1B7v160006IDnEEPKc, symObjAddr: 0xB1E0, symBinAddr: 0x10005B270, symSize: 0x30 }
  - { offsetInCU: 0x22ED2, offset: 0x22ED2, size: 0x8, addend: 0x0, symName: __ZNSt3__112basic_stringIcNS_11char_traitsIcEENS_9allocatorIcEEEC2B7v160006IDnEEPKc, symObjAddr: 0xB210, symBinAddr: 0x10005B2A0, symSize: 0x60 }
  - { offsetInCU: 0x22F0F, offset: 0x22F0F, size: 0x8, addend: 0x0, symName: __ZNSt3__117__compressed_pairINS_12basic_stringIcNS_11char_traitsIcEENS_9allocatorIcEEE5__repES5_EC1B7v160006INS_18__default_init_tagESA_EEOT_OT0_, symObjAddr: 0xB270, symBinAddr: 0x10005B300, symSize: 0x30 }
  - { offsetInCU: 0x22F66, offset: 0x22F66, size: 0x8, addend: 0x0, symName: __ZNSt3__111char_traitsIcE6lengthEPKc, symObjAddr: 0xB2A0, symBinAddr: 0x10005B330, symSize: 0x30 }
  - { offsetInCU: 0x22F89, offset: 0x22F89, size: 0x8, addend: 0x0, symName: __ZNSt3__117__compressed_pairINS_12basic_stringIcNS_11char_traitsIcEENS_9allocatorIcEEE5__repES5_EC2B7v160006INS_18__default_init_tagESA_EEOT_OT0_, symObjAddr: 0xB2E0, symBinAddr: 0x10005B370, symSize: 0x30 }
  - { offsetInCU: 0x22FE0, offset: 0x22FE0, size: 0x8, addend: 0x0, symName: __ZNSt3__122__compressed_pair_elemINS_12basic_stringIcNS_11char_traitsIcEENS_9allocatorIcEEE5__repELi0ELb0EEC2B7v160006ENS_18__default_init_tagE, symObjAddr: 0xB310, symBinAddr: 0x10005B3A0, symSize: 0x10 }
  - { offsetInCU: 0x23013, offset: 0x23013, size: 0x8, addend: 0x0, symName: __ZNSt3__122__compressed_pair_elemINS_9allocatorIcEELi1ELb1EEC2B7v160006ENS_18__default_init_tagE, symObjAddr: 0xB320, symBinAddr: 0x10005B3B0, symSize: 0x20 }
  - { offsetInCU: 0x23046, offset: 0x23046, size: 0x8, addend: 0x0, symName: __ZNSt3__19allocatorIcEC2B7v160006Ev, symObjAddr: 0xB340, symBinAddr: 0x10005B3D0, symSize: 0x20 }
  - { offsetInCU: 0x2306F, offset: 0x2306F, size: 0x8, addend: 0x0, symName: __ZNSt3__116__non_trivial_ifILb1ENS_9allocatorIcEEEC2B7v160006Ev, symObjAddr: 0xB360, symBinAddr: 0x10005B3F0, symSize: 0x10 }
  - { offsetInCU: 0x23098, offset: 0x23098, size: 0x8, addend: 0x0, symName: __ZNSt3__123mersenne_twister_engineIjLm32ELm624ELm397ELm31ELj2567483615ELm11ELj4294967295ELm7ELj2636928640ELm15ELj4022730752ELm18ELj1812433253EEC2B7v160006Ej, symObjAddr: 0xB390, symBinAddr: 0x10005B420, symSize: 0x30 }
  - { offsetInCU: 0x230CE, offset: 0x230CE, size: 0x8, addend: 0x0, symName: __ZNSt3__123mersenne_twister_engineIjLm32ELm624ELm397ELm31ELj2567483615ELm11ELj4294967295ELm7ELj2636928640ELm15ELj4022730752ELm18ELj1812433253EE4seedEj, symObjAddr: 0xB3C0, symBinAddr: 0x10005B450, symSize: 0xB0 }
  - { offsetInCU: 0x23120, offset: 0x23120, size: 0x8, addend: 0x0, symName: __ZNSt3__123mersenne_twister_engineIjLm32ELm624ELm397ELm31ELj2567483615ELm11ELj4294967295ELm7ELj2636928640ELm15ELj4022730752ELm18ELj1812433253EE8__rshiftB7v160006ILm30EEENS_9enable_ifIXltT_L_ZNS1_3_DtEEEjE4typeEj, symObjAddr: 0xB470, symBinAddr: 0x10005B500, symSize: 0x10 }
  - { offsetInCU: 0x2314D, offset: 0x2314D, size: 0x8, addend: 0x0, symName: __ZNSt3__124uniform_int_distributionIiEC2Eii, symObjAddr: 0xB480, symBinAddr: 0x10005B510, symSize: 0x30 }
  - { offsetInCU: 0x23192, offset: 0x23192, size: 0x8, addend: 0x0, symName: __ZNSt3__124uniform_int_distributionIiE10param_typeC1Eii, symObjAddr: 0xB4B0, symBinAddr: 0x10005B540, symSize: 0x30 }
  - { offsetInCU: 0x231D7, offset: 0x231D7, size: 0x8, addend: 0x0, symName: __ZNSt3__124uniform_int_distributionIiE10param_typeC2Eii, symObjAddr: 0xB4E0, symBinAddr: 0x10005B570, symSize: 0x20 }
  - { offsetInCU: 0x2321C, offset: 0x2321C, size: 0x8, addend: 0x0, symName: __ZNKSt3__124uniform_int_distributionIiE10param_type1bEv, symObjAddr: 0xB650, symBinAddr: 0x10005B6E0, symSize: 0x20 }
  - { offsetInCU: 0x23241, offset: 0x23241, size: 0x8, addend: 0x0, symName: __ZNKSt3__124uniform_int_distributionIiE10param_type1aEv, symObjAddr: 0xB670, symBinAddr: 0x10005B700, symSize: 0x10 }
  - { offsetInCU: 0x23266, offset: 0x23266, size: 0x8, addend: 0x0, symName: __ZNSt3__125__independent_bits_engineINS_23mersenne_twister_engineIjLm32ELm624ELm397ELm31ELj2567483615ELm11ELj4294967295ELm7ELj2636928640ELm15ELj4022730752ELm18ELj1812433253EEEjEC1ERS2_m, symObjAddr: 0xB680, symBinAddr: 0x10005B710, symSize: 0x30 }
  - { offsetInCU: 0x232AC, offset: 0x232AC, size: 0x8, addend: 0x0, symName: __ZNSt3__125__independent_bits_engineINS_23mersenne_twister_engineIjLm32ELm624ELm397ELm31ELj2567483615ELm11ELj4294967295ELm7ELj2636928640ELm15ELj4022730752ELm18ELj1812433253EEEjEclEv, symObjAddr: 0xB6B0, symBinAddr: 0x10005B740, symSize: 0x20 }
  - { offsetInCU: 0x232D1, offset: 0x232D1, size: 0x8, addend: 0x0, symName: __ZNSt3__114numeric_limitsIjE3maxB7v160006Ev, symObjAddr: 0xB710, symBinAddr: 0x10005B7A0, symSize: 0x10 }
  - { offsetInCU: 0x232E5, offset: 0x232E5, size: 0x8, addend: 0x0, symName: __ZNSt3__125__independent_bits_engineINS_23mersenne_twister_engineIjLm32ELm624ELm397ELm31ELj2567483615ELm11ELj4294967295ELm7ELj2636928640ELm15ELj4022730752ELm18ELj1812433253EEEjEC2ERS2_m, symObjAddr: 0xB720, symBinAddr: 0x10005B7B0, symSize: 0x1D0 }
  - { offsetInCU: 0x2332A, offset: 0x2332A, size: 0x8, addend: 0x0, symName: __ZNSt3__125__independent_bits_engineINS_23mersenne_twister_engineIjLm32ELm624ELm397ELm31ELj2567483615ELm11ELj4294967295ELm7ELj2636928640ELm15ELj4022730752ELm18ELj1812433253EEEjE6__evalENS_17integral_constantIbLb0EEE, symObjAddr: 0xB8F0, symBinAddr: 0x10005B980, symSize: 0x30 }
  - { offsetInCU: 0x2335A, offset: 0x2335A, size: 0x8, addend: 0x0, symName: __ZNSt3__123__libcpp_numeric_limitsIjLb1EE3maxB7v160006Ev, symObjAddr: 0xB940, symBinAddr: 0x10005B9D0, symSize: 0x10 }
  - { offsetInCU: 0x2336E, offset: 0x2336E, size: 0x8, addend: 0x0, symName: __ZNSt3__16vectorIP6EntityNS_9allocatorIS2_EEE9__end_capB7v160006Ev, symObjAddr: 0xB950, symBinAddr: 0x10005B9E0, symSize: 0x20 }
  - { offsetInCU: 0x23393, offset: 0x23393, size: 0x8, addend: 0x0, symName: __ZNSt3__16vectorIP6EntityNS_9allocatorIS2_EEE22__construct_one_at_endB7v160006IJRKS2_EEEvDpOT_, symObjAddr: 0xB970, symBinAddr: 0x10005BA00, symSize: 0x90 }
  - { offsetInCU: 0x233E0, offset: 0x233E0, size: 0x8, addend: 0x0, symName: __ZNSt3__16vectorIP6EntityNS_9allocatorIS2_EEE21__push_back_slow_pathIRKS2_EEvOT_, symObjAddr: 0xBA00, symBinAddr: 0x10005BA90, symSize: 0xD0 }
  - { offsetInCU: 0x2343D, offset: 0x2343D, size: 0x8, addend: 0x0, symName: __ZNSt3__117__compressed_pairIPP6EntityNS_9allocatorIS2_EEE5firstB7v160006Ev, symObjAddr: 0xBAD0, symBinAddr: 0x10005BB60, symSize: 0x20 }
  - { offsetInCU: 0x23462, offset: 0x23462, size: 0x8, addend: 0x0, symName: __ZNSt3__122__compressed_pair_elemIPP6EntityLi0ELb0EE5__getB7v160006Ev, symObjAddr: 0xBAF0, symBinAddr: 0x10005BB80, symSize: 0x10 }
  - { offsetInCU: 0x234A0, offset: 0x234A0, size: 0x8, addend: 0x0, symName: __ZNSt3__16vectorIP6EntityNS_9allocatorIS2_EEE21_ConstructTransactionC1B7v160006ERS5_m, symObjAddr: 0xBB00, symBinAddr: 0x10005BB90, symSize: 0x30 }
  - { offsetInCU: 0x234E7, offset: 0x234E7, size: 0x8, addend: 0x0, symName: __ZNSt3__116allocator_traitsINS_9allocatorIP6EntityEEE9constructB7v160006IS3_JRKS3_EvEEvRS4_PT_DpOT0_, symObjAddr: 0xBB30, symBinAddr: 0x10005BBC0, symSize: 0x30 }
  - { offsetInCU: 0x2353E, offset: 0x2353E, size: 0x8, addend: 0x0, symName: __ZNSt3__16vectorIP6EntityNS_9allocatorIS2_EEE7__allocB7v160006Ev, symObjAddr: 0xBB60, symBinAddr: 0x10005BBF0, symSize: 0x20 }
  - { offsetInCU: 0x23563, offset: 0x23563, size: 0x8, addend: 0x0, symName: __ZNSt3__16vectorIP6EntityNS_9allocatorIS2_EEE21_ConstructTransactionD1B7v160006Ev, symObjAddr: 0xBB90, symBinAddr: 0x10005BC20, symSize: 0x20 }
  - { offsetInCU: 0x2358C, offset: 0x2358C, size: 0x8, addend: 0x0, symName: __ZNSt3__16vectorIP6EntityNS_9allocatorIS2_EEE21_ConstructTransactionC2B7v160006ERS5_m, symObjAddr: 0xBBB0, symBinAddr: 0x10005BC40, symSize: 0x40 }
  - { offsetInCU: 0x235D3, offset: 0x235D3, size: 0x8, addend: 0x0, symName: __ZNSt3__19allocatorIP6EntityE9constructB7v160006IS2_JRKS2_EEEvPT_DpOT0_, symObjAddr: 0xBBF0, symBinAddr: 0x10005BC80, symSize: 0x20 }
  - { offsetInCU: 0x23628, offset: 0x23628, size: 0x8, addend: 0x0, symName: __ZNSt3__117__compressed_pairIPP6EntityNS_9allocatorIS2_EEE6secondB7v160006Ev, symObjAddr: 0xBC10, symBinAddr: 0x10005BCA0, symSize: 0x20 }
  - { offsetInCU: 0x2364D, offset: 0x2364D, size: 0x8, addend: 0x0, symName: __ZNSt3__122__compressed_pair_elemINS_9allocatorIP6EntityEELi1ELb1EE5__getB7v160006Ev, symObjAddr: 0xBC30, symBinAddr: 0x10005BCC0, symSize: 0x10 }
  - { offsetInCU: 0x23672, offset: 0x23672, size: 0x8, addend: 0x0, symName: __ZNSt3__16vectorIP6EntityNS_9allocatorIS2_EEE21_ConstructTransactionD2B7v160006Ev, symObjAddr: 0xBC40, symBinAddr: 0x10005BCD0, symSize: 0x20 }
  - { offsetInCU: 0x2369A, offset: 0x2369A, size: 0x8, addend: 0x0, symName: __ZNKSt3__16vectorIP6EntityNS_9allocatorIS2_EEE11__recommendB7v160006Em, symObjAddr: 0xBC60, symBinAddr: 0x10005BCF0, symSize: 0xA0 }
  - { offsetInCU: 0x236EE, offset: 0x236EE, size: 0x8, addend: 0x0, symName: __ZNSt3__114__split_bufferIP6EntityRNS_9allocatorIS2_EEEC1EmmS5_, symObjAddr: 0xBD00, symBinAddr: 0x10005BD90, symSize: 0x40 }
  - { offsetInCU: 0x23743, offset: 0x23743, size: 0x8, addend: 0x0, symName: __ZNSt3__114__split_bufferIP6EntityRNS_9allocatorIS2_EEED1Ev, symObjAddr: 0xBE70, symBinAddr: 0x10005BF00, symSize: 0x20 }
  - { offsetInCU: 0x2376D, offset: 0x2376D, size: 0x8, addend: 0x0, symName: __ZNKSt3__16vectorIP6EntityNS_9allocatorIS2_EEE8max_sizeEv, symObjAddr: 0xBE90, symBinAddr: 0x10005BF20, symSize: 0x60 }
  - { offsetInCU: 0x23794, offset: 0x23794, size: 0x8, addend: 0x0, symName: __ZNKSt3__16vectorIP6EntityNS_9allocatorIS2_EEE20__throw_length_errorB7v160006Ev, symObjAddr: 0xBEF0, symBinAddr: 0x10005BF80, symSize: 0x20 }
  - { offsetInCU: 0x237B9, offset: 0x237B9, size: 0x8, addend: 0x0, symName: __ZNKSt3__16vectorIP6EntityNS_9allocatorIS2_EEE8capacityB7v160006Ev, symObjAddr: 0xBF10, symBinAddr: 0x10005BFA0, symSize: 0x30 }
  - { offsetInCU: 0x237E8, offset: 0x237E8, size: 0x8, addend: 0x0, symName: __ZNSt3__116allocator_traitsINS_9allocatorIP6EntityEEE8max_sizeB7v160006IS4_vEEmRKS4_, symObjAddr: 0xBF40, symBinAddr: 0x10005BFD0, symSize: 0x20 }
  - { offsetInCU: 0x23816, offset: 0x23816, size: 0x8, addend: 0x0, symName: __ZNKSt3__16vectorIP6EntityNS_9allocatorIS2_EEE7__allocB7v160006Ev, symObjAddr: 0xBF60, symBinAddr: 0x10005BFF0, symSize: 0x20 }
  - { offsetInCU: 0x2383B, offset: 0x2383B, size: 0x8, addend: 0x0, symName: __ZNKSt3__19allocatorIP6EntityE8max_sizeB7v160006Ev, symObjAddr: 0xBF80, symBinAddr: 0x10005C010, symSize: 0x20 }
  - { offsetInCU: 0x23860, offset: 0x23860, size: 0x8, addend: 0x0, symName: __ZNKSt3__117__compressed_pairIPP6EntityNS_9allocatorIS2_EEE6secondB7v160006Ev, symObjAddr: 0xBFA0, symBinAddr: 0x10005C030, symSize: 0x20 }
  - { offsetInCU: 0x23885, offset: 0x23885, size: 0x8, addend: 0x0, symName: __ZNKSt3__122__compressed_pair_elemINS_9allocatorIP6EntityEELi1ELb1EE5__getB7v160006Ev, symObjAddr: 0xBFC0, symBinAddr: 0x10005C050, symSize: 0x10 }
  - { offsetInCU: 0x238AA, offset: 0x238AA, size: 0x8, addend: 0x0, symName: __ZNKSt3__16vectorIP6EntityNS_9allocatorIS2_EEE9__end_capB7v160006Ev, symObjAddr: 0xBFD0, symBinAddr: 0x10005C060, symSize: 0x20 }
  - { offsetInCU: 0x238CF, offset: 0x238CF, size: 0x8, addend: 0x0, symName: __ZNKSt3__117__compressed_pairIPP6EntityNS_9allocatorIS2_EEE5firstB7v160006Ev, symObjAddr: 0xBFF0, symBinAddr: 0x10005C080, symSize: 0x20 }
  - { offsetInCU: 0x238F4, offset: 0x238F4, size: 0x8, addend: 0x0, symName: __ZNKSt3__122__compressed_pair_elemIPP6EntityLi0ELb0EE5__getB7v160006Ev, symObjAddr: 0xC010, symBinAddr: 0x10005C0A0, symSize: 0x10 }
  - { offsetInCU: 0x23919, offset: 0x23919, size: 0x8, addend: 0x0, symName: __ZNSt3__114__split_bufferIP6EntityRNS_9allocatorIS2_EEEC2EmmS5_, symObjAddr: 0xC020, symBinAddr: 0x10005C0B0, symSize: 0xD0 }
  - { offsetInCU: 0x2398B, offset: 0x2398B, size: 0x8, addend: 0x0, symName: __ZNSt3__117__compressed_pairIPP6EntityRNS_9allocatorIS2_EEEC1B7v160006IDnS6_EEOT_OT0_, symObjAddr: 0xC0F0, symBinAddr: 0x10005C180, symSize: 0x30 }
  - { offsetInCU: 0x239E2, offset: 0x239E2, size: 0x8, addend: 0x0, symName: __ZNSt3__114__split_bufferIP6EntityRNS_9allocatorIS2_EEE7__allocB7v160006Ev, symObjAddr: 0xC160, symBinAddr: 0x10005C1F0, symSize: 0x20 }
  - { offsetInCU: 0x23A07, offset: 0x23A07, size: 0x8, addend: 0x0, symName: __ZNSt3__114__split_bufferIP6EntityRNS_9allocatorIS2_EEE9__end_capB7v160006Ev, symObjAddr: 0xC180, symBinAddr: 0x10005C210, symSize: 0x20 }
  - { offsetInCU: 0x23A2C, offset: 0x23A2C, size: 0x8, addend: 0x0, symName: __ZNSt3__117__compressed_pairIPP6EntityRNS_9allocatorIS2_EEEC2B7v160006IDnS6_EEOT_OT0_, symObjAddr: 0xC1A0, symBinAddr: 0x10005C230, symSize: 0x40 }
  - { offsetInCU: 0x23A83, offset: 0x23A83, size: 0x8, addend: 0x0, symName: __ZNSt3__122__compressed_pair_elemIRNS_9allocatorIP6EntityEELi1ELb0EEC2B7v160006IS5_vEEOT_, symObjAddr: 0xC1E0, symBinAddr: 0x10005C270, symSize: 0x20 }
  - { offsetInCU: 0x23AC4, offset: 0x23AC4, size: 0x8, addend: 0x0, symName: __ZNSt3__19allocatorIP6EntityE8allocateB7v160006Em, symObjAddr: 0xC200, symBinAddr: 0x10005C290, symSize: 0x50 }
  - { offsetInCU: 0x23AF7, offset: 0x23AF7, size: 0x8, addend: 0x0, symName: __ZNSt3__117__compressed_pairIPP6EntityRNS_9allocatorIS2_EEE6secondB7v160006Ev, symObjAddr: 0xC250, symBinAddr: 0x10005C2E0, symSize: 0x20 }
  - { offsetInCU: 0x23B1C, offset: 0x23B1C, size: 0x8, addend: 0x0, symName: __ZNSt3__122__compressed_pair_elemIRNS_9allocatorIP6EntityEELi1ELb0EE5__getB7v160006Ev, symObjAddr: 0xC270, symBinAddr: 0x10005C300, symSize: 0x20 }
  - { offsetInCU: 0x23B41, offset: 0x23B41, size: 0x8, addend: 0x0, symName: __ZNSt3__117__compressed_pairIPP6EntityRNS_9allocatorIS2_EEE5firstB7v160006Ev, symObjAddr: 0xC290, symBinAddr: 0x10005C320, symSize: 0x20 }
  - { offsetInCU: 0x23B66, offset: 0x23B66, size: 0x8, addend: 0x0, symName: __ZNKSt3__16vectorIP6EntityNS_9allocatorIS2_EEE17__annotate_deleteB7v160006Ev, symObjAddr: 0xC2B0, symBinAddr: 0x10005C340, symSize: 0xB0 }
  - { offsetInCU: 0x23B8B, offset: 0x23B8B, size: 0x8, addend: 0x0, symName: __ZNSt3__116reverse_iteratorIPP6EntityEC1B7v160006ES3_, symObjAddr: 0xC3D0, symBinAddr: 0x10005C460, symSize: 0x30 }
  - { offsetInCU: 0x23BC2, offset: 0x23BC2, size: 0x8, addend: 0x0, symName: __ZNKSt3__116reverse_iteratorIPP6EntityE4baseB7v160006Ev, symObjAddr: 0xC400, symBinAddr: 0x10005C490, symSize: 0x20 }
  - { offsetInCU: 0x23BE7, offset: 0x23BE7, size: 0x8, addend: 0x0, symName: __ZNKSt3__16vectorIP6EntityNS_9allocatorIS2_EEE14__annotate_newB7v160006Em, symObjAddr: 0xC460, symBinAddr: 0x10005C4F0, symSize: 0xB0 }
  - { offsetInCU: 0x23C1B, offset: 0x23C1B, size: 0x8, addend: 0x0, symName: __ZNKSt3__16vectorIP6EntityNS_9allocatorIS2_EEE31__annotate_contiguous_containerB7v160006EPKvS7_S7_S7_, symObjAddr: 0xC520, symBinAddr: 0x10005C5B0, symSize: 0x20 }
  - { offsetInCU: 0x23C6C, offset: 0x23C6C, size: 0x8, addend: 0x0, symName: __ZNKSt3__16vectorIP6EntityNS_9allocatorIS2_EEE4dataB7v160006Ev, symObjAddr: 0xC540, symBinAddr: 0x10005C5D0, symSize: 0x20 }
  - { offsetInCU: 0x23CAA, offset: 0x23CAA, size: 0x8, addend: 0x0, symName: __ZNKSt3__111__move_loopINS_17_ClassicAlgPolicyEEclB7v160006INS_16reverse_iteratorIPP6EntityEES8_S8_EENS_4pairIT_T1_EESA_T0_SB_, symObjAddr: 0xC9A0, symBinAddr: 0x10005CA30, symSize: 0xA0 }
  - { offsetInCU: 0x23D19, offset: 0x23D19, size: 0x8, addend: 0x0, symName: __ZNSt3__18_IterOpsINS_17_ClassicAlgPolicyEE11__iter_moveB7v160006IRNS_16reverse_iteratorIPP6EntityEEEENS_9enable_ifIXsr12is_referenceIDTdeclsr3stdE7declvalIRT_EEEEE5valueEDTclsr3stdE4movedeclsr3stdE7declvalISC_EEEEE4typeEOSB_, symObjAddr: 0xCBC0, symBinAddr: 0x10005CC50, symSize: 0x20 }
  - { offsetInCU: 0x23D45, offset: 0x23D45, size: 0x8, addend: 0x0, symName: __ZNKSt3__116reverse_iteratorIPP6EntityEdeB7v160006Ev, symObjAddr: 0xCBE0, symBinAddr: 0x10005CC70, symSize: 0x30 }
  - { offsetInCU: 0x23D78, offset: 0x23D78, size: 0x8, addend: 0x0, symName: __ZNSt3__116reverse_iteratorIPP6EntityEppB7v160006Ev, symObjAddr: 0xCC10, symBinAddr: 0x10005CCA0, symSize: 0x20 }
  - { offsetInCU: 0x23D9D, offset: 0x23D9D, size: 0x8, addend: 0x0, symName: __ZNSt3__18_IterOpsINS_17_ClassicAlgPolicyEE25__validate_iter_referenceB7v160006IRNS_16reverse_iteratorIPP6EntityEEEEvv, symObjAddr: 0xCC30, symBinAddr: 0x10005CCC0, symSize: 0x10 }
  - { offsetInCU: 0x23DBB, offset: 0x23DBB, size: 0x8, addend: 0x0, symName: __ZNSt3__118__unwrap_iter_implINS_16reverse_iteratorIPP6EntityEELb0EE8__unwrapB7v160006ES5_, symObjAddr: 0xCC40, symBinAddr: 0x10005CCD0, symSize: 0x20 }
  - { offsetInCU: 0x23DE3, offset: 0x23DE3, size: 0x8, addend: 0x0, symName: __ZNSt3__14pairINS_16reverse_iteratorIPP6EntityEES5_EC1B7v160006IS5_S5_LPv0EEEOT_OT0_, symObjAddr: 0xCC60, symBinAddr: 0x10005CCF0, symSize: 0x30 }
  - { offsetInCU: 0x23E40, offset: 0x23E40, size: 0x8, addend: 0x0, symName: __ZNSt3__14pairINS_16reverse_iteratorIPP6EntityEES5_EC2B7v160006IS5_S5_LPv0EEEOT_OT0_, symObjAddr: 0xCC90, symBinAddr: 0x10005CD20, symSize: 0x40 }
  - { offsetInCU: 0x23E9D, offset: 0x23E9D, size: 0x8, addend: 0x0, symName: __ZNSt3__118__unwrap_iter_implINS_16reverse_iteratorIPP6EntityEELb0EE8__rewrapB7v160006ES5_S5_, symObjAddr: 0xCCD0, symBinAddr: 0x10005CD60, symSize: 0x30 }
  - { offsetInCU: 0x23ECA, offset: 0x23ECA, size: 0x8, addend: 0x0, symName: __ZNSt3__116reverse_iteratorIPP6EntityEC2B7v160006ES3_, symObjAddr: 0xCD00, symBinAddr: 0x10005CD90, symSize: 0x30 }
  - { offsetInCU: 0x23F01, offset: 0x23F01, size: 0x8, addend: 0x0, symName: __ZNSt3__114__split_bufferIP6EntityRNS_9allocatorIS2_EEED2Ev, symObjAddr: 0xCD30, symBinAddr: 0x10005CDC0, symSize: 0x70 }
  - { offsetInCU: 0x23F2C, offset: 0x23F2C, size: 0x8, addend: 0x0, symName: __ZNSt3__114__split_bufferIP6EntityRNS_9allocatorIS2_EEE5clearB7v160006Ev, symObjAddr: 0xCDA0, symBinAddr: 0x10005CE30, symSize: 0x20 }
  - { offsetInCU: 0x23F51, offset: 0x23F51, size: 0x8, addend: 0x0, symName: __ZNSt3__116allocator_traitsINS_9allocatorIP6EntityEEE10deallocateB7v160006ERS4_PS3_m, symObjAddr: 0xCDC0, symBinAddr: 0x10005CE50, symSize: 0x30 }
  - { offsetInCU: 0x23F93, offset: 0x23F93, size: 0x8, addend: 0x0, symName: __ZNKSt3__114__split_bufferIP6EntityRNS_9allocatorIS2_EEE8capacityB7v160006Ev, symObjAddr: 0xCDF0, symBinAddr: 0x10005CE80, symSize: 0x30 }
  - { offsetInCU: 0x23FB8, offset: 0x23FB8, size: 0x8, addend: 0x0, symName: __ZNSt3__114__split_bufferIP6EntityRNS_9allocatorIS2_EEE17__destruct_at_endB7v160006EPS2_, symObjAddr: 0xCE20, symBinAddr: 0x10005CEB0, symSize: 0x30 }
  - { offsetInCU: 0x23FEA, offset: 0x23FEA, size: 0x8, addend: 0x0, symName: __ZNSt3__114__split_bufferIP6EntityRNS_9allocatorIS2_EEE17__destruct_at_endB7v160006EPS2_NS_17integral_constantIbLb0EEE, symObjAddr: 0xCE50, symBinAddr: 0x10005CEE0, symSize: 0x80 }
  - { offsetInCU: 0x24029, offset: 0x24029, size: 0x8, addend: 0x0, symName: __ZNSt3__116allocator_traitsINS_9allocatorIP6EntityEEE7destroyB7v160006IS3_vEEvRS4_PT_, symObjAddr: 0xCED0, symBinAddr: 0x10005CF60, symSize: 0x30 }
  - { offsetInCU: 0x24066, offset: 0x24066, size: 0x8, addend: 0x0, symName: __ZNSt3__19allocatorIP6EntityE7destroyB7v160006EPS2_, symObjAddr: 0xCF00, symBinAddr: 0x10005CF90, symSize: 0x10 }
  - { offsetInCU: 0x24099, offset: 0x24099, size: 0x8, addend: 0x0, symName: __ZNSt3__19allocatorIP6EntityE10deallocateB7v160006EPS2_m, symObjAddr: 0xCF10, symBinAddr: 0x10005CFA0, symSize: 0x40 }
  - { offsetInCU: 0x240DA, offset: 0x240DA, size: 0x8, addend: 0x0, symName: __ZNKSt3__114__split_bufferIP6EntityRNS_9allocatorIS2_EEE9__end_capB7v160006Ev, symObjAddr: 0xCF50, symBinAddr: 0x10005CFE0, symSize: 0x20 }
  - { offsetInCU: 0x240FF, offset: 0x240FF, size: 0x8, addend: 0x0, symName: __ZNKSt3__117__compressed_pairIPP6EntityRNS_9allocatorIS2_EEE5firstB7v160006Ev, symObjAddr: 0xCF70, symBinAddr: 0x10005D000, symSize: 0x20 }
  - { offsetInCU: 0x24124, offset: 0x24124, size: 0x8, addend: 0x0, symName: __ZN4FoodC2Eii, symObjAddr: 0xCF90, symBinAddr: 0x10005D020, symSize: 0x1D0 }
  - { offsetInCU: 0x241B9, offset: 0x241B9, size: 0x8, addend: 0x0, symName: __Z4sqrtB7v160006IiENSt3__19enable_ifIXsr3std11is_integralIT_EE5valueEdE4typeES2_, symObjAddr: 0xD160, symBinAddr: 0x10005D1F0, symSize: 0x20 }
  - { offsetInCU: 0x241F1, offset: 0x241F1, size: 0x8, addend: 0x0, symName: __ZNSt3__16vectorIP4FoodNS_9allocatorIS2_EEE9__end_capB7v160006Ev, symObjAddr: 0xD180, symBinAddr: 0x10005D210, symSize: 0x20 }
  - { offsetInCU: 0x24216, offset: 0x24216, size: 0x8, addend: 0x0, symName: __ZNSt3__16vectorIP4FoodNS_9allocatorIS2_EEE22__construct_one_at_endB7v160006IJRKS2_EEEvDpOT_, symObjAddr: 0xD1A0, symBinAddr: 0x10005D230, symSize: 0x90 }
  - { offsetInCU: 0x24263, offset: 0x24263, size: 0x8, addend: 0x0, symName: __ZNSt3__16vectorIP4FoodNS_9allocatorIS2_EEE21__push_back_slow_pathIRKS2_EEvOT_, symObjAddr: 0xD230, symBinAddr: 0x10005D2C0, symSize: 0xD0 }
  - { offsetInCU: 0x242C0, offset: 0x242C0, size: 0x8, addend: 0x0, symName: __ZNSt3__117__compressed_pairIPP4FoodNS_9allocatorIS2_EEE5firstB7v160006Ev, symObjAddr: 0xD300, symBinAddr: 0x10005D390, symSize: 0x20 }
  - { offsetInCU: 0x242E5, offset: 0x242E5, size: 0x8, addend: 0x0, symName: __ZNSt3__122__compressed_pair_elemIPP4FoodLi0ELb0EE5__getB7v160006Ev, symObjAddr: 0xD320, symBinAddr: 0x10005D3B0, symSize: 0x10 }
  - { offsetInCU: 0x24323, offset: 0x24323, size: 0x8, addend: 0x0, symName: __ZNSt3__16vectorIP4FoodNS_9allocatorIS2_EEE21_ConstructTransactionC1B7v160006ERS5_m, symObjAddr: 0xD330, symBinAddr: 0x10005D3C0, symSize: 0x30 }
  - { offsetInCU: 0x2436A, offset: 0x2436A, size: 0x8, addend: 0x0, symName: __ZNSt3__116allocator_traitsINS_9allocatorIP4FoodEEE9constructB7v160006IS3_JRKS3_EvEEvRS4_PT_DpOT0_, symObjAddr: 0xD360, symBinAddr: 0x10005D3F0, symSize: 0x30 }
  - { offsetInCU: 0x243C1, offset: 0x243C1, size: 0x8, addend: 0x0, symName: __ZNSt3__16vectorIP4FoodNS_9allocatorIS2_EEE7__allocB7v160006Ev, symObjAddr: 0xD390, symBinAddr: 0x10005D420, symSize: 0x20 }
  - { offsetInCU: 0x243E6, offset: 0x243E6, size: 0x8, addend: 0x0, symName: __ZNSt3__16vectorIP4FoodNS_9allocatorIS2_EEE21_ConstructTransactionD1B7v160006Ev, symObjAddr: 0xD3C0, symBinAddr: 0x10005D450, symSize: 0x20 }
  - { offsetInCU: 0x2440F, offset: 0x2440F, size: 0x8, addend: 0x0, symName: __ZNSt3__16vectorIP4FoodNS_9allocatorIS2_EEE21_ConstructTransactionC2B7v160006ERS5_m, symObjAddr: 0xD3E0, symBinAddr: 0x10005D470, symSize: 0x40 }
  - { offsetInCU: 0x24456, offset: 0x24456, size: 0x8, addend: 0x0, symName: __ZNSt3__19allocatorIP4FoodE9constructB7v160006IS2_JRKS2_EEEvPT_DpOT0_, symObjAddr: 0xD420, symBinAddr: 0x10005D4B0, symSize: 0x20 }
  - { offsetInCU: 0x244AB, offset: 0x244AB, size: 0x8, addend: 0x0, symName: __ZNSt3__117__compressed_pairIPP4FoodNS_9allocatorIS2_EEE6secondB7v160006Ev, symObjAddr: 0xD440, symBinAddr: 0x10005D4D0, symSize: 0x20 }
  - { offsetInCU: 0x244D0, offset: 0x244D0, size: 0x8, addend: 0x0, symName: __ZNSt3__122__compressed_pair_elemINS_9allocatorIP4FoodEELi1ELb1EE5__getB7v160006Ev, symObjAddr: 0xD460, symBinAddr: 0x10005D4F0, symSize: 0x10 }
  - { offsetInCU: 0x244F5, offset: 0x244F5, size: 0x8, addend: 0x0, symName: __ZNSt3__16vectorIP4FoodNS_9allocatorIS2_EEE21_ConstructTransactionD2B7v160006Ev, symObjAddr: 0xD470, symBinAddr: 0x10005D500, symSize: 0x20 }
  - { offsetInCU: 0x2451D, offset: 0x2451D, size: 0x8, addend: 0x0, symName: __ZNKSt3__16vectorIP4FoodNS_9allocatorIS2_EEE11__recommendB7v160006Em, symObjAddr: 0xD490, symBinAddr: 0x10005D520, symSize: 0xA0 }
  - { offsetInCU: 0x24571, offset: 0x24571, size: 0x8, addend: 0x0, symName: __ZNKSt3__16vectorIP4FoodNS_9allocatorIS2_EEE4sizeB7v160006Ev, symObjAddr: 0xD530, symBinAddr: 0x10005D5C0, symSize: 0x20 }
  - { offsetInCU: 0x24596, offset: 0x24596, size: 0x8, addend: 0x0, symName: __ZNSt3__114__split_bufferIP4FoodRNS_9allocatorIS2_EEEC1EmmS5_, symObjAddr: 0xD550, symBinAddr: 0x10005D5E0, symSize: 0x40 }
  - { offsetInCU: 0x245EB, offset: 0x245EB, size: 0x8, addend: 0x0, symName: __ZNSt3__114__split_bufferIP4FoodRNS_9allocatorIS2_EEED1Ev, symObjAddr: 0xD6C0, symBinAddr: 0x10005D750, symSize: 0x20 }
  - { offsetInCU: 0x24615, offset: 0x24615, size: 0x8, addend: 0x0, symName: __ZNKSt3__16vectorIP4FoodNS_9allocatorIS2_EEE8max_sizeEv, symObjAddr: 0xD6E0, symBinAddr: 0x10005D770, symSize: 0x60 }
  - { offsetInCU: 0x2463C, offset: 0x2463C, size: 0x8, addend: 0x0, symName: __ZNKSt3__16vectorIP4FoodNS_9allocatorIS2_EEE20__throw_length_errorB7v160006Ev, symObjAddr: 0xD740, symBinAddr: 0x10005D7D0, symSize: 0x20 }
  - { offsetInCU: 0x24661, offset: 0x24661, size: 0x8, addend: 0x0, symName: __ZNKSt3__16vectorIP4FoodNS_9allocatorIS2_EEE8capacityB7v160006Ev, symObjAddr: 0xD760, symBinAddr: 0x10005D7F0, symSize: 0x30 }
  - { offsetInCU: 0x24690, offset: 0x24690, size: 0x8, addend: 0x0, symName: __ZNSt3__116allocator_traitsINS_9allocatorIP4FoodEEE8max_sizeB7v160006IS4_vEEmRKS4_, symObjAddr: 0xD790, symBinAddr: 0x10005D820, symSize: 0x20 }
  - { offsetInCU: 0x246BE, offset: 0x246BE, size: 0x8, addend: 0x0, symName: __ZNKSt3__16vectorIP4FoodNS_9allocatorIS2_EEE7__allocB7v160006Ev, symObjAddr: 0xD7B0, symBinAddr: 0x10005D840, symSize: 0x20 }
  - { offsetInCU: 0x246E3, offset: 0x246E3, size: 0x8, addend: 0x0, symName: __ZNKSt3__19allocatorIP4FoodE8max_sizeB7v160006Ev, symObjAddr: 0xD7D0, symBinAddr: 0x10005D860, symSize: 0x20 }
  - { offsetInCU: 0x24708, offset: 0x24708, size: 0x8, addend: 0x0, symName: __ZNKSt3__117__compressed_pairIPP4FoodNS_9allocatorIS2_EEE6secondB7v160006Ev, symObjAddr: 0xD7F0, symBinAddr: 0x10005D880, symSize: 0x20 }
  - { offsetInCU: 0x2472D, offset: 0x2472D, size: 0x8, addend: 0x0, symName: __ZNKSt3__122__compressed_pair_elemINS_9allocatorIP4FoodEELi1ELb1EE5__getB7v160006Ev, symObjAddr: 0xD810, symBinAddr: 0x10005D8A0, symSize: 0x10 }
  - { offsetInCU: 0x24752, offset: 0x24752, size: 0x8, addend: 0x0, symName: __ZNKSt3__16vectorIP4FoodNS_9allocatorIS2_EEE9__end_capB7v160006Ev, symObjAddr: 0xD820, symBinAddr: 0x10005D8B0, symSize: 0x20 }
  - { offsetInCU: 0x24777, offset: 0x24777, size: 0x8, addend: 0x0, symName: __ZNKSt3__117__compressed_pairIPP4FoodNS_9allocatorIS2_EEE5firstB7v160006Ev, symObjAddr: 0xD840, symBinAddr: 0x10005D8D0, symSize: 0x20 }
  - { offsetInCU: 0x2479C, offset: 0x2479C, size: 0x8, addend: 0x0, symName: __ZNKSt3__122__compressed_pair_elemIPP4FoodLi0ELb0EE5__getB7v160006Ev, symObjAddr: 0xD860, symBinAddr: 0x10005D8F0, symSize: 0x10 }
  - { offsetInCU: 0x247C1, offset: 0x247C1, size: 0x8, addend: 0x0, symName: __ZNSt3__114__split_bufferIP4FoodRNS_9allocatorIS2_EEEC2EmmS5_, symObjAddr: 0xD870, symBinAddr: 0x10005D900, symSize: 0xD0 }
  - { offsetInCU: 0x24833, offset: 0x24833, size: 0x8, addend: 0x0, symName: __ZNSt3__117__compressed_pairIPP4FoodRNS_9allocatorIS2_EEEC1B7v160006IDnS6_EEOT_OT0_, symObjAddr: 0xD940, symBinAddr: 0x10005D9D0, symSize: 0x30 }
  - { offsetInCU: 0x2488A, offset: 0x2488A, size: 0x8, addend: 0x0, symName: __ZNSt3__114__split_bufferIP4FoodRNS_9allocatorIS2_EEE7__allocB7v160006Ev, symObjAddr: 0xD9B0, symBinAddr: 0x10005DA40, symSize: 0x20 }
  - { offsetInCU: 0x248AF, offset: 0x248AF, size: 0x8, addend: 0x0, symName: __ZNSt3__114__split_bufferIP4FoodRNS_9allocatorIS2_EEE9__end_capB7v160006Ev, symObjAddr: 0xD9D0, symBinAddr: 0x10005DA60, symSize: 0x20 }
  - { offsetInCU: 0x248D4, offset: 0x248D4, size: 0x8, addend: 0x0, symName: __ZNSt3__117__compressed_pairIPP4FoodRNS_9allocatorIS2_EEEC2B7v160006IDnS6_EEOT_OT0_, symObjAddr: 0xD9F0, symBinAddr: 0x10005DA80, symSize: 0x40 }
  - { offsetInCU: 0x2492B, offset: 0x2492B, size: 0x8, addend: 0x0, symName: __ZNSt3__122__compressed_pair_elemIRNS_9allocatorIP4FoodEELi1ELb0EEC2B7v160006IS5_vEEOT_, symObjAddr: 0xDA30, symBinAddr: 0x10005DAC0, symSize: 0x20 }
  - { offsetInCU: 0x2496C, offset: 0x2496C, size: 0x8, addend: 0x0, symName: __ZNSt3__19allocatorIP4FoodE8allocateB7v160006Em, symObjAddr: 0xDA50, symBinAddr: 0x10005DAE0, symSize: 0x50 }
  - { offsetInCU: 0x2499F, offset: 0x2499F, size: 0x8, addend: 0x0, symName: __ZNSt3__117__compressed_pairIPP4FoodRNS_9allocatorIS2_EEE6secondB7v160006Ev, symObjAddr: 0xDAA0, symBinAddr: 0x10005DB30, symSize: 0x20 }
  - { offsetInCU: 0x249C4, offset: 0x249C4, size: 0x8, addend: 0x0, symName: __ZNSt3__122__compressed_pair_elemIRNS_9allocatorIP4FoodEELi1ELb0EE5__getB7v160006Ev, symObjAddr: 0xDAC0, symBinAddr: 0x10005DB50, symSize: 0x20 }
  - { offsetInCU: 0x249E9, offset: 0x249E9, size: 0x8, addend: 0x0, symName: __ZNSt3__117__compressed_pairIPP4FoodRNS_9allocatorIS2_EEE5firstB7v160006Ev, symObjAddr: 0xDAE0, symBinAddr: 0x10005DB70, symSize: 0x20 }
  - { offsetInCU: 0x24A0E, offset: 0x24A0E, size: 0x8, addend: 0x0, symName: __ZNKSt3__16vectorIP4FoodNS_9allocatorIS2_EEE17__annotate_deleteB7v160006Ev, symObjAddr: 0xDB00, symBinAddr: 0x10005DB90, symSize: 0xB0 }
  - { offsetInCU: 0x24A33, offset: 0x24A33, size: 0x8, addend: 0x0, symName: __ZNSt3__116reverse_iteratorIPP4FoodEC1B7v160006ES3_, symObjAddr: 0xDC20, symBinAddr: 0x10005DCB0, symSize: 0x30 }
  - { offsetInCU: 0x24A6A, offset: 0x24A6A, size: 0x8, addend: 0x0, symName: __ZNKSt3__116reverse_iteratorIPP4FoodE4baseB7v160006Ev, symObjAddr: 0xDC50, symBinAddr: 0x10005DCE0, symSize: 0x20 }
  - { offsetInCU: 0x24A8F, offset: 0x24A8F, size: 0x8, addend: 0x0, symName: __ZNKSt3__16vectorIP4FoodNS_9allocatorIS2_EEE14__annotate_newB7v160006Em, symObjAddr: 0xDCB0, symBinAddr: 0x10005DD40, symSize: 0xB0 }
  - { offsetInCU: 0x24AC3, offset: 0x24AC3, size: 0x8, addend: 0x0, symName: __ZNKSt3__16vectorIP4FoodNS_9allocatorIS2_EEE31__annotate_contiguous_containerB7v160006EPKvS7_S7_S7_, symObjAddr: 0xDD70, symBinAddr: 0x10005DE00, symSize: 0x20 }
  - { offsetInCU: 0x24B14, offset: 0x24B14, size: 0x8, addend: 0x0, symName: __ZNKSt3__16vectorIP4FoodNS_9allocatorIS2_EEE4dataB7v160006Ev, symObjAddr: 0xDD90, symBinAddr: 0x10005DE20, symSize: 0x20 }
  - { offsetInCU: 0x24B52, offset: 0x24B52, size: 0x8, addend: 0x0, symName: __ZNKSt3__111__move_loopINS_17_ClassicAlgPolicyEEclB7v160006INS_16reverse_iteratorIPP4FoodEES8_S8_EENS_4pairIT_T1_EESA_T0_SB_, symObjAddr: 0xE1F0, symBinAddr: 0x10005E280, symSize: 0xA0 }
  - { offsetInCU: 0x24BC1, offset: 0x24BC1, size: 0x8, addend: 0x0, symName: __ZNSt3__18_IterOpsINS_17_ClassicAlgPolicyEE11__iter_moveB7v160006IRNS_16reverse_iteratorIPP4FoodEEEENS_9enable_ifIXsr12is_referenceIDTdeclsr3stdE7declvalIRT_EEEEE5valueEDTclsr3stdE4movedeclsr3stdE7declvalISC_EEEEE4typeEOSB_, symObjAddr: 0xE410, symBinAddr: 0x10005E4A0, symSize: 0x20 }
  - { offsetInCU: 0x24BED, offset: 0x24BED, size: 0x8, addend: 0x0, symName: __ZNKSt3__116reverse_iteratorIPP4FoodEdeB7v160006Ev, symObjAddr: 0xE430, symBinAddr: 0x10005E4C0, symSize: 0x30 }
  - { offsetInCU: 0x24C20, offset: 0x24C20, size: 0x8, addend: 0x0, symName: __ZNSt3__116reverse_iteratorIPP4FoodEppB7v160006Ev, symObjAddr: 0xE460, symBinAddr: 0x10005E4F0, symSize: 0x20 }
  - { offsetInCU: 0x24C45, offset: 0x24C45, size: 0x8, addend: 0x0, symName: __ZNSt3__18_IterOpsINS_17_ClassicAlgPolicyEE25__validate_iter_referenceB7v160006IRNS_16reverse_iteratorIPP4FoodEEEEvv, symObjAddr: 0xE480, symBinAddr: 0x10005E510, symSize: 0x10 }
  - { offsetInCU: 0x24C63, offset: 0x24C63, size: 0x8, addend: 0x0, symName: __ZNSt3__118__unwrap_iter_implINS_16reverse_iteratorIPP4FoodEELb0EE8__unwrapB7v160006ES5_, symObjAddr: 0xE490, symBinAddr: 0x10005E520, symSize: 0x20 }
  - { offsetInCU: 0x24C8B, offset: 0x24C8B, size: 0x8, addend: 0x0, symName: __ZNSt3__14pairINS_16reverse_iteratorIPP4FoodEES5_EC1B7v160006IS5_S5_LPv0EEEOT_OT0_, symObjAddr: 0xE4B0, symBinAddr: 0x10005E540, symSize: 0x30 }
  - { offsetInCU: 0x24CE8, offset: 0x24CE8, size: 0x8, addend: 0x0, symName: __ZNSt3__14pairINS_16reverse_iteratorIPP4FoodEES5_EC2B7v160006IS5_S5_LPv0EEEOT_OT0_, symObjAddr: 0xE4E0, symBinAddr: 0x10005E570, symSize: 0x40 }
  - { offsetInCU: 0x24D45, offset: 0x24D45, size: 0x8, addend: 0x0, symName: __ZNSt3__118__unwrap_iter_implINS_16reverse_iteratorIPP4FoodEELb0EE8__rewrapB7v160006ES5_S5_, symObjAddr: 0xE520, symBinAddr: 0x10005E5B0, symSize: 0x30 }
  - { offsetInCU: 0x24D72, offset: 0x24D72, size: 0x8, addend: 0x0, symName: __ZNSt3__116reverse_iteratorIPP4FoodEC2B7v160006ES3_, symObjAddr: 0xE550, symBinAddr: 0x10005E5E0, symSize: 0x30 }
  - { offsetInCU: 0x24DA9, offset: 0x24DA9, size: 0x8, addend: 0x0, symName: __ZNSt3__114__split_bufferIP4FoodRNS_9allocatorIS2_EEED2Ev, symObjAddr: 0xE580, symBinAddr: 0x10005E610, symSize: 0x70 }
  - { offsetInCU: 0x24DD4, offset: 0x24DD4, size: 0x8, addend: 0x0, symName: __ZNSt3__114__split_bufferIP4FoodRNS_9allocatorIS2_EEE5clearB7v160006Ev, symObjAddr: 0xE5F0, symBinAddr: 0x10005E680, symSize: 0x20 }
  - { offsetInCU: 0x24DF9, offset: 0x24DF9, size: 0x8, addend: 0x0, symName: __ZNSt3__116allocator_traitsINS_9allocatorIP4FoodEEE10deallocateB7v160006ERS4_PS3_m, symObjAddr: 0xE610, symBinAddr: 0x10005E6A0, symSize: 0x30 }
  - { offsetInCU: 0x24E3B, offset: 0x24E3B, size: 0x8, addend: 0x0, symName: __ZNKSt3__114__split_bufferIP4FoodRNS_9allocatorIS2_EEE8capacityB7v160006Ev, symObjAddr: 0xE640, symBinAddr: 0x10005E6D0, symSize: 0x30 }
  - { offsetInCU: 0x24E60, offset: 0x24E60, size: 0x8, addend: 0x0, symName: __ZNSt3__114__split_bufferIP4FoodRNS_9allocatorIS2_EEE17__destruct_at_endB7v160006EPS2_, symObjAddr: 0xE670, symBinAddr: 0x10005E700, symSize: 0x30 }
  - { offsetInCU: 0x24E92, offset: 0x24E92, size: 0x8, addend: 0x0, symName: __ZNSt3__114__split_bufferIP4FoodRNS_9allocatorIS2_EEE17__destruct_at_endB7v160006EPS2_NS_17integral_constantIbLb0EEE, symObjAddr: 0xE6A0, symBinAddr: 0x10005E730, symSize: 0x80 }
  - { offsetInCU: 0x24ED1, offset: 0x24ED1, size: 0x8, addend: 0x0, symName: __ZNSt3__116allocator_traitsINS_9allocatorIP4FoodEEE7destroyB7v160006IS3_vEEvRS4_PT_, symObjAddr: 0xE720, symBinAddr: 0x10005E7B0, symSize: 0x30 }
  - { offsetInCU: 0x24F0E, offset: 0x24F0E, size: 0x8, addend: 0x0, symName: __ZNSt3__19allocatorIP4FoodE7destroyB7v160006EPS2_, symObjAddr: 0xE750, symBinAddr: 0x10005E7E0, symSize: 0x10 }
  - { offsetInCU: 0x24F41, offset: 0x24F41, size: 0x8, addend: 0x0, symName: __ZNSt3__19allocatorIP4FoodE10deallocateB7v160006EPS2_m, symObjAddr: 0xE760, symBinAddr: 0x10005E7F0, symSize: 0x40 }
  - { offsetInCU: 0x24F82, offset: 0x24F82, size: 0x8, addend: 0x0, symName: __ZNKSt3__114__split_bufferIP4FoodRNS_9allocatorIS2_EEE9__end_capB7v160006Ev, symObjAddr: 0xE7A0, symBinAddr: 0x10005E830, symSize: 0x20 }
  - { offsetInCU: 0x24FA7, offset: 0x24FA7, size: 0x8, addend: 0x0, symName: __ZNKSt3__117__compressed_pairIPP4FoodRNS_9allocatorIS2_EEE5firstB7v160006Ev, symObjAddr: 0xE7C0, symBinAddr: 0x10005E850, symSize: 0x20 }
  - { offsetInCU: 0x24FCC, offset: 0x24FCC, size: 0x8, addend: 0x0, symName: __ZNSt3__16vectorIP4WallNS_9allocatorIS2_EEE9__end_capB7v160006Ev, symObjAddr: 0xE7E0, symBinAddr: 0x10005E870, symSize: 0x20 }
  - { offsetInCU: 0x24FF6, offset: 0x24FF6, size: 0x8, addend: 0x0, symName: __ZNSt3__16vectorIP4WallNS_9allocatorIS2_EEE22__construct_one_at_endB7v160006IJS2_EEEvDpOT_, symObjAddr: 0xE800, symBinAddr: 0x10005E890, symSize: 0x90 }
  - { offsetInCU: 0x25043, offset: 0x25043, size: 0x8, addend: 0x0, symName: __ZNSt3__16vectorIP4WallNS_9allocatorIS2_EEE21__push_back_slow_pathIS2_EEvOT_, symObjAddr: 0xE890, symBinAddr: 0x10005E920, symSize: 0xD0 }
  - { offsetInCU: 0x250A0, offset: 0x250A0, size: 0x8, addend: 0x0, symName: __ZNSt3__117__compressed_pairIPP4WallNS_9allocatorIS2_EEE5firstB7v160006Ev, symObjAddr: 0xE960, symBinAddr: 0x10005E9F0, symSize: 0x20 }
  - { offsetInCU: 0x250C5, offset: 0x250C5, size: 0x8, addend: 0x0, symName: __ZNSt3__122__compressed_pair_elemIPP4WallLi0ELb0EE5__getB7v160006Ev, symObjAddr: 0xE980, symBinAddr: 0x10005EA10, symSize: 0x10 }
  - { offsetInCU: 0x25103, offset: 0x25103, size: 0x8, addend: 0x0, symName: __ZNSt3__16vectorIP4WallNS_9allocatorIS2_EEE21_ConstructTransactionC1B7v160006ERS5_m, symObjAddr: 0xE990, symBinAddr: 0x10005EA20, symSize: 0x30 }
  - { offsetInCU: 0x2514A, offset: 0x2514A, size: 0x8, addend: 0x0, symName: __ZNSt3__116allocator_traitsINS_9allocatorIP4WallEEE9constructB7v160006IS3_JS3_EvEEvRS4_PT_DpOT0_, symObjAddr: 0xE9C0, symBinAddr: 0x10005EA50, symSize: 0x30 }
  - { offsetInCU: 0x251A1, offset: 0x251A1, size: 0x8, addend: 0x0, symName: __ZNSt3__16vectorIP4WallNS_9allocatorIS2_EEE7__allocB7v160006Ev, symObjAddr: 0xE9F0, symBinAddr: 0x10005EA80, symSize: 0x20 }
  - { offsetInCU: 0x251C6, offset: 0x251C6, size: 0x8, addend: 0x0, symName: __ZNSt3__16vectorIP4WallNS_9allocatorIS2_EEE21_ConstructTransactionD1B7v160006Ev, symObjAddr: 0xEA20, symBinAddr: 0x10005EAB0, symSize: 0x20 }
  - { offsetInCU: 0x251EF, offset: 0x251EF, size: 0x8, addend: 0x0, symName: __ZNSt3__16vectorIP4WallNS_9allocatorIS2_EEE21_ConstructTransactionC2B7v160006ERS5_m, symObjAddr: 0xEA40, symBinAddr: 0x10005EAD0, symSize: 0x40 }
  - { offsetInCU: 0x25236, offset: 0x25236, size: 0x8, addend: 0x0, symName: __ZNSt3__19allocatorIP4WallE9constructB7v160006IS2_JS2_EEEvPT_DpOT0_, symObjAddr: 0xEA80, symBinAddr: 0x10005EB10, symSize: 0x20 }
  - { offsetInCU: 0x2528B, offset: 0x2528B, size: 0x8, addend: 0x0, symName: __ZNSt3__117__compressed_pairIPP4WallNS_9allocatorIS2_EEE6secondB7v160006Ev, symObjAddr: 0xEAA0, symBinAddr: 0x10005EB30, symSize: 0x20 }
  - { offsetInCU: 0x252B0, offset: 0x252B0, size: 0x8, addend: 0x0, symName: __ZNSt3__122__compressed_pair_elemINS_9allocatorIP4WallEELi1ELb1EE5__getB7v160006Ev, symObjAddr: 0xEAC0, symBinAddr: 0x10005EB50, symSize: 0x10 }
  - { offsetInCU: 0x252D5, offset: 0x252D5, size: 0x8, addend: 0x0, symName: __ZNSt3__16vectorIP4WallNS_9allocatorIS2_EEE21_ConstructTransactionD2B7v160006Ev, symObjAddr: 0xEAD0, symBinAddr: 0x10005EB60, symSize: 0x20 }
  - { offsetInCU: 0x252FD, offset: 0x252FD, size: 0x8, addend: 0x0, symName: __ZNKSt3__16vectorIP4WallNS_9allocatorIS2_EEE11__recommendB7v160006Em, symObjAddr: 0xEAF0, symBinAddr: 0x10005EB80, symSize: 0xA0 }
  - { offsetInCU: 0x25351, offset: 0x25351, size: 0x8, addend: 0x0, symName: __ZNKSt3__16vectorIP4WallNS_9allocatorIS2_EEE4sizeB7v160006Ev, symObjAddr: 0xEB90, symBinAddr: 0x10005EC20, symSize: 0x20 }
  - { offsetInCU: 0x25376, offset: 0x25376, size: 0x8, addend: 0x0, symName: __ZNSt3__114__split_bufferIP4WallRNS_9allocatorIS2_EEEC1EmmS5_, symObjAddr: 0xEBB0, symBinAddr: 0x10005EC40, symSize: 0x40 }
  - { offsetInCU: 0x253CB, offset: 0x253CB, size: 0x8, addend: 0x0, symName: __ZNSt3__114__split_bufferIP4WallRNS_9allocatorIS2_EEED1Ev, symObjAddr: 0xED20, symBinAddr: 0x10005EDB0, symSize: 0x20 }
  - { offsetInCU: 0x253F5, offset: 0x253F5, size: 0x8, addend: 0x0, symName: __ZNKSt3__16vectorIP4WallNS_9allocatorIS2_EEE8max_sizeEv, symObjAddr: 0xED40, symBinAddr: 0x10005EDD0, symSize: 0x60 }
  - { offsetInCU: 0x2541C, offset: 0x2541C, size: 0x8, addend: 0x0, symName: __ZNKSt3__16vectorIP4WallNS_9allocatorIS2_EEE20__throw_length_errorB7v160006Ev, symObjAddr: 0xEDA0, symBinAddr: 0x10005EE30, symSize: 0x20 }
  - { offsetInCU: 0x25441, offset: 0x25441, size: 0x8, addend: 0x0, symName: __ZNKSt3__16vectorIP4WallNS_9allocatorIS2_EEE8capacityB7v160006Ev, symObjAddr: 0xEDC0, symBinAddr: 0x10005EE50, symSize: 0x30 }
  - { offsetInCU: 0x25470, offset: 0x25470, size: 0x8, addend: 0x0, symName: __ZNSt3__116allocator_traitsINS_9allocatorIP4WallEEE8max_sizeB7v160006IS4_vEEmRKS4_, symObjAddr: 0xEDF0, symBinAddr: 0x10005EE80, symSize: 0x20 }
  - { offsetInCU: 0x2549E, offset: 0x2549E, size: 0x8, addend: 0x0, symName: __ZNKSt3__16vectorIP4WallNS_9allocatorIS2_EEE7__allocB7v160006Ev, symObjAddr: 0xEE10, symBinAddr: 0x10005EEA0, symSize: 0x20 }
  - { offsetInCU: 0x254C3, offset: 0x254C3, size: 0x8, addend: 0x0, symName: __ZNKSt3__19allocatorIP4WallE8max_sizeB7v160006Ev, symObjAddr: 0xEE30, symBinAddr: 0x10005EEC0, symSize: 0x20 }
  - { offsetInCU: 0x254E8, offset: 0x254E8, size: 0x8, addend: 0x0, symName: __ZNKSt3__117__compressed_pairIPP4WallNS_9allocatorIS2_EEE6secondB7v160006Ev, symObjAddr: 0xEE50, symBinAddr: 0x10005EEE0, symSize: 0x20 }
  - { offsetInCU: 0x2550D, offset: 0x2550D, size: 0x8, addend: 0x0, symName: __ZNKSt3__122__compressed_pair_elemINS_9allocatorIP4WallEELi1ELb1EE5__getB7v160006Ev, symObjAddr: 0xEE70, symBinAddr: 0x10005EF00, symSize: 0x10 }
  - { offsetInCU: 0x25532, offset: 0x25532, size: 0x8, addend: 0x0, symName: __ZNKSt3__16vectorIP4WallNS_9allocatorIS2_EEE9__end_capB7v160006Ev, symObjAddr: 0xEE80, symBinAddr: 0x10005EF10, symSize: 0x20 }
  - { offsetInCU: 0x25557, offset: 0x25557, size: 0x8, addend: 0x0, symName: __ZNKSt3__117__compressed_pairIPP4WallNS_9allocatorIS2_EEE5firstB7v160006Ev, symObjAddr: 0xEEA0, symBinAddr: 0x10005EF30, symSize: 0x20 }
  - { offsetInCU: 0x2557C, offset: 0x2557C, size: 0x8, addend: 0x0, symName: __ZNKSt3__122__compressed_pair_elemIPP4WallLi0ELb0EE5__getB7v160006Ev, symObjAddr: 0xEEC0, symBinAddr: 0x10005EF50, symSize: 0x10 }
  - { offsetInCU: 0x255A1, offset: 0x255A1, size: 0x8, addend: 0x0, symName: __ZNSt3__114__split_bufferIP4WallRNS_9allocatorIS2_EEEC2EmmS5_, symObjAddr: 0xEED0, symBinAddr: 0x10005EF60, symSize: 0xD0 }
  - { offsetInCU: 0x25613, offset: 0x25613, size: 0x8, addend: 0x0, symName: __ZNSt3__117__compressed_pairIPP4WallRNS_9allocatorIS2_EEEC1B7v160006IDnS6_EEOT_OT0_, symObjAddr: 0xEFA0, symBinAddr: 0x10005F030, symSize: 0x30 }
  - { offsetInCU: 0x2566A, offset: 0x2566A, size: 0x8, addend: 0x0, symName: __ZNSt3__114__split_bufferIP4WallRNS_9allocatorIS2_EEE7__allocB7v160006Ev, symObjAddr: 0xF010, symBinAddr: 0x10005F0A0, symSize: 0x20 }
  - { offsetInCU: 0x2568F, offset: 0x2568F, size: 0x8, addend: 0x0, symName: __ZNSt3__114__split_bufferIP4WallRNS_9allocatorIS2_EEE9__end_capB7v160006Ev, symObjAddr: 0xF030, symBinAddr: 0x10005F0C0, symSize: 0x20 }
  - { offsetInCU: 0x256B4, offset: 0x256B4, size: 0x8, addend: 0x0, symName: __ZNSt3__117__compressed_pairIPP4WallRNS_9allocatorIS2_EEEC2B7v160006IDnS6_EEOT_OT0_, symObjAddr: 0xF050, symBinAddr: 0x10005F0E0, symSize: 0x40 }
  - { offsetInCU: 0x2570B, offset: 0x2570B, size: 0x8, addend: 0x0, symName: __ZNSt3__122__compressed_pair_elemIRNS_9allocatorIP4WallEELi1ELb0EEC2B7v160006IS5_vEEOT_, symObjAddr: 0xF090, symBinAddr: 0x10005F120, symSize: 0x20 }
  - { offsetInCU: 0x2574C, offset: 0x2574C, size: 0x8, addend: 0x0, symName: __ZNSt3__19allocatorIP4WallE8allocateB7v160006Em, symObjAddr: 0xF0B0, symBinAddr: 0x10005F140, symSize: 0x50 }
  - { offsetInCU: 0x2577F, offset: 0x2577F, size: 0x8, addend: 0x0, symName: __ZNSt3__117__compressed_pairIPP4WallRNS_9allocatorIS2_EEE6secondB7v160006Ev, symObjAddr: 0xF100, symBinAddr: 0x10005F190, symSize: 0x20 }
  - { offsetInCU: 0x257A4, offset: 0x257A4, size: 0x8, addend: 0x0, symName: __ZNSt3__122__compressed_pair_elemIRNS_9allocatorIP4WallEELi1ELb0EE5__getB7v160006Ev, symObjAddr: 0xF120, symBinAddr: 0x10005F1B0, symSize: 0x20 }
  - { offsetInCU: 0x257C9, offset: 0x257C9, size: 0x8, addend: 0x0, symName: __ZNSt3__117__compressed_pairIPP4WallRNS_9allocatorIS2_EEE5firstB7v160006Ev, symObjAddr: 0xF140, symBinAddr: 0x10005F1D0, symSize: 0x20 }
  - { offsetInCU: 0x257EE, offset: 0x257EE, size: 0x8, addend: 0x0, symName: __ZNKSt3__16vectorIP4WallNS_9allocatorIS2_EEE17__annotate_deleteB7v160006Ev, symObjAddr: 0xF160, symBinAddr: 0x10005F1F0, symSize: 0xB0 }
  - { offsetInCU: 0x25813, offset: 0x25813, size: 0x8, addend: 0x0, symName: __ZNSt3__116reverse_iteratorIPP4WallEC1B7v160006ES3_, symObjAddr: 0xF280, symBinAddr: 0x10005F310, symSize: 0x30 }
  - { offsetInCU: 0x2584A, offset: 0x2584A, size: 0x8, addend: 0x0, symName: __ZNKSt3__116reverse_iteratorIPP4WallE4baseB7v160006Ev, symObjAddr: 0xF2B0, symBinAddr: 0x10005F340, symSize: 0x20 }
  - { offsetInCU: 0x2586F, offset: 0x2586F, size: 0x8, addend: 0x0, symName: __ZNKSt3__16vectorIP4WallNS_9allocatorIS2_EEE14__annotate_newB7v160006Em, symObjAddr: 0xF310, symBinAddr: 0x10005F3A0, symSize: 0xB0 }
  - { offsetInCU: 0x258A3, offset: 0x258A3, size: 0x8, addend: 0x0, symName: __ZNKSt3__16vectorIP4WallNS_9allocatorIS2_EEE31__annotate_contiguous_containerB7v160006EPKvS7_S7_S7_, symObjAddr: 0xF3D0, symBinAddr: 0x10005F460, symSize: 0x20 }
  - { offsetInCU: 0x258F4, offset: 0x258F4, size: 0x8, addend: 0x0, symName: __ZNKSt3__16vectorIP4WallNS_9allocatorIS2_EEE4dataB7v160006Ev, symObjAddr: 0xF3F0, symBinAddr: 0x10005F480, symSize: 0x20 }
  - { offsetInCU: 0x25932, offset: 0x25932, size: 0x8, addend: 0x0, symName: __ZNKSt3__111__move_loopINS_17_ClassicAlgPolicyEEclB7v160006INS_16reverse_iteratorIPP4WallEES8_S8_EENS_4pairIT_T1_EESA_T0_SB_, symObjAddr: 0xF850, symBinAddr: 0x10005F8E0, symSize: 0xA0 }
  - { offsetInCU: 0x2599C, offset: 0x2599C, size: 0x8, addend: 0x0, symName: __ZNSt3__18_IterOpsINS_17_ClassicAlgPolicyEE11__iter_moveB7v160006IRNS_16reverse_iteratorIPP4WallEEEENS_9enable_ifIXsr12is_referenceIDTdeclsr3stdE7declvalIRT_EEEEE5valueEDTclsr3stdE4movedeclsr3stdE7declvalISC_EEEEE4typeEOSB_, symObjAddr: 0xFA70, symBinAddr: 0x10005FB00, symSize: 0x20 }
  - { offsetInCU: 0x259C8, offset: 0x259C8, size: 0x8, addend: 0x0, symName: __ZNKSt3__116reverse_iteratorIPP4WallEdeB7v160006Ev, symObjAddr: 0xFA90, symBinAddr: 0x10005FB20, symSize: 0x30 }
  - { offsetInCU: 0x259FB, offset: 0x259FB, size: 0x8, addend: 0x0, symName: __ZNSt3__116reverse_iteratorIPP4WallEppB7v160006Ev, symObjAddr: 0xFAC0, symBinAddr: 0x10005FB50, symSize: 0x20 }
  - { offsetInCU: 0x25A20, offset: 0x25A20, size: 0x8, addend: 0x0, symName: __ZNSt3__18_IterOpsINS_17_ClassicAlgPolicyEE25__validate_iter_referenceB7v160006IRNS_16reverse_iteratorIPP4WallEEEEvv, symObjAddr: 0xFAE0, symBinAddr: 0x10005FB70, symSize: 0x10 }
  - { offsetInCU: 0x25A3E, offset: 0x25A3E, size: 0x8, addend: 0x0, symName: __ZNSt3__118__unwrap_iter_implINS_16reverse_iteratorIPP4WallEELb0EE8__unwrapB7v160006ES5_, symObjAddr: 0xFAF0, symBinAddr: 0x10005FB80, symSize: 0x20 }
  - { offsetInCU: 0x25A66, offset: 0x25A66, size: 0x8, addend: 0x0, symName: __ZNSt3__14pairINS_16reverse_iteratorIPP4WallEES5_EC1B7v160006IS5_S5_LPv0EEEOT_OT0_, symObjAddr: 0xFB10, symBinAddr: 0x10005FBA0, symSize: 0x30 }
  - { offsetInCU: 0x25AC3, offset: 0x25AC3, size: 0x8, addend: 0x0, symName: __ZNSt3__14pairINS_16reverse_iteratorIPP4WallEES5_EC2B7v160006IS5_S5_LPv0EEEOT_OT0_, symObjAddr: 0xFB40, symBinAddr: 0x10005FBD0, symSize: 0x40 }
  - { offsetInCU: 0x25B20, offset: 0x25B20, size: 0x8, addend: 0x0, symName: __ZNSt3__118__unwrap_iter_implINS_16reverse_iteratorIPP4WallEELb0EE8__rewrapB7v160006ES5_S5_, symObjAddr: 0xFB80, symBinAddr: 0x10005FC10, symSize: 0x30 }
  - { offsetInCU: 0x25B4D, offset: 0x25B4D, size: 0x8, addend: 0x0, symName: __ZNSt3__116reverse_iteratorIPP4WallEC2B7v160006ES3_, symObjAddr: 0xFBB0, symBinAddr: 0x10005FC40, symSize: 0x30 }
  - { offsetInCU: 0x25B84, offset: 0x25B84, size: 0x8, addend: 0x0, symName: __ZNSt3__114__split_bufferIP4WallRNS_9allocatorIS2_EEED2Ev, symObjAddr: 0xFBE0, symBinAddr: 0x10005FC70, symSize: 0x70 }
  - { offsetInCU: 0x25BAF, offset: 0x25BAF, size: 0x8, addend: 0x0, symName: __ZNSt3__114__split_bufferIP4WallRNS_9allocatorIS2_EEE5clearB7v160006Ev, symObjAddr: 0xFC50, symBinAddr: 0x10005FCE0, symSize: 0x20 }
  - { offsetInCU: 0x25BD4, offset: 0x25BD4, size: 0x8, addend: 0x0, symName: __ZNSt3__116allocator_traitsINS_9allocatorIP4WallEEE10deallocateB7v160006ERS4_PS3_m, symObjAddr: 0xFC70, symBinAddr: 0x10005FD00, symSize: 0x30 }
  - { offsetInCU: 0x25C16, offset: 0x25C16, size: 0x8, addend: 0x0, symName: __ZNKSt3__114__split_bufferIP4WallRNS_9allocatorIS2_EEE8capacityB7v160006Ev, symObjAddr: 0xFCA0, symBinAddr: 0x10005FD30, symSize: 0x30 }
  - { offsetInCU: 0x25C3B, offset: 0x25C3B, size: 0x8, addend: 0x0, symName: __ZNSt3__114__split_bufferIP4WallRNS_9allocatorIS2_EEE17__destruct_at_endB7v160006EPS2_, symObjAddr: 0xFCD0, symBinAddr: 0x10005FD60, symSize: 0x30 }
  - { offsetInCU: 0x25C6D, offset: 0x25C6D, size: 0x8, addend: 0x0, symName: __ZNSt3__114__split_bufferIP4WallRNS_9allocatorIS2_EEE17__destruct_at_endB7v160006EPS2_NS_17integral_constantIbLb0EEE, symObjAddr: 0xFD00, symBinAddr: 0x10005FD90, symSize: 0x80 }
  - { offsetInCU: 0x25CAC, offset: 0x25CAC, size: 0x8, addend: 0x0, symName: __ZNSt3__116allocator_traitsINS_9allocatorIP4WallEEE7destroyB7v160006IS3_vEEvRS4_PT_, symObjAddr: 0xFD80, symBinAddr: 0x10005FE10, symSize: 0x30 }
  - { offsetInCU: 0x25CE9, offset: 0x25CE9, size: 0x8, addend: 0x0, symName: __ZNSt3__19allocatorIP4WallE7destroyB7v160006EPS2_, symObjAddr: 0xFDB0, symBinAddr: 0x10005FE40, symSize: 0x10 }
  - { offsetInCU: 0x25D1C, offset: 0x25D1C, size: 0x8, addend: 0x0, symName: __ZNSt3__19allocatorIP4WallE10deallocateB7v160006EPS2_m, symObjAddr: 0xFDC0, symBinAddr: 0x10005FE50, symSize: 0x40 }
  - { offsetInCU: 0x25D5D, offset: 0x25D5D, size: 0x8, addend: 0x0, symName: __ZNKSt3__114__split_bufferIP4WallRNS_9allocatorIS2_EEE9__end_capB7v160006Ev, symObjAddr: 0xFE00, symBinAddr: 0x10005FE90, symSize: 0x20 }
  - { offsetInCU: 0x25D82, offset: 0x25D82, size: 0x8, addend: 0x0, symName: __ZNKSt3__117__compressed_pairIPP4WallRNS_9allocatorIS2_EEE5firstB7v160006Ev, symObjAddr: 0xFE20, symBinAddr: 0x10005FEB0, symSize: 0x20 }
  - { offsetInCU: 0x25DA7, offset: 0x25DA7, size: 0x8, addend: 0x0, symName: __ZN4WallC2Eiiiii, symObjAddr: 0xFE40, symBinAddr: 0x10005FED0, symSize: 0x1C0 }
  - { offsetInCU: 0x25E87, offset: 0x25E87, size: 0x8, addend: 0x0, symName: __Z5atan2B7v160006ff, symObjAddr: 0x10000, symBinAddr: 0x100060090, symSize: 0x30 }
  - { offsetInCU: 0x25EC5, offset: 0x25EC5, size: 0x8, addend: 0x0, symName: __ZNSt3__16vectorIP6WeightNS_9allocatorIS2_EEED2B7v160006Ev, symObjAddr: 0x10030, symBinAddr: 0x1000600C0, symSize: 0x40 }
  - { offsetInCU: 0x25EEE, offset: 0x25EEE, size: 0x8, addend: 0x0, symName: __ZNSt3__16vectorIP6WeightNS_9allocatorIS2_EEE16__destroy_vectorC1ERS5_, symObjAddr: 0x10070, symBinAddr: 0x100060100, symSize: 0x30 }
  - { offsetInCU: 0x25F26, offset: 0x25F26, size: 0x8, addend: 0x0, symName: __ZNSt3__16vectorIP6WeightNS_9allocatorIS2_EEE16__destroy_vectorclB7v160006Ev, symObjAddr: 0x100A0, symBinAddr: 0x100060130, symSize: 0x90 }
  - { offsetInCU: 0x25F4B, offset: 0x25F4B, size: 0x8, addend: 0x0, symName: __ZNSt3__16vectorIP6WeightNS_9allocatorIS2_EEE16__destroy_vectorC2ERS5_, symObjAddr: 0x10130, symBinAddr: 0x1000601C0, symSize: 0x20 }
  - { offsetInCU: 0x25F83, offset: 0x25F83, size: 0x8, addend: 0x0, symName: __ZNSt3__16vectorIP6WeightNS_9allocatorIS2_EEE7__clearB7v160006Ev, symObjAddr: 0x10160, symBinAddr: 0x1000601F0, symSize: 0x20 }
  - { offsetInCU: 0x25FA8, offset: 0x25FA8, size: 0x8, addend: 0x0, symName: __ZNSt3__16vectorIP6WeightNS_9allocatorIS2_EEE22__base_destruct_at_endB7v160006EPS2_, symObjAddr: 0x10180, symBinAddr: 0x100060210, symSize: 0x80 }
  - { offsetInCU: 0x25FEB, offset: 0x25FEB, size: 0x8, addend: 0x0, symName: __ZNSt3__16vectorIP6NeuronNS_9allocatorIS2_EEED2B7v160006Ev, symObjAddr: 0x10200, symBinAddr: 0x100060290, symSize: 0x40 }
  - { offsetInCU: 0x26014, offset: 0x26014, size: 0x8, addend: 0x0, symName: __ZN10SimulationD2Ev, symObjAddr: 0x10240, symBinAddr: 0x1000602D0, symSize: 0x70 }
  - { offsetInCU: 0x2603F, offset: 0x2603F, size: 0x8, addend: 0x0, symName: __ZNSt3__16vectorIP4WallNS_9allocatorIS2_EEEC1ERKS5_, symObjAddr: 0x102B0, symBinAddr: 0x100060340, symSize: 0x30 }
  - { offsetInCU: 0x26079, offset: 0x26079, size: 0x8, addend: 0x0, symName: __ZNSt3__16vectorIP4WallNS_9allocatorIS2_EEEC2ERKS5_, symObjAddr: 0x102E0, symBinAddr: 0x100060370, symSize: 0x110 }
  - { offsetInCU: 0x260D9, offset: 0x260D9, size: 0x8, addend: 0x0, symName: __ZNSt3__116allocator_traitsINS_9allocatorIP4WallEEE37select_on_container_copy_constructionB7v160006IS4_vvEES4_RKS4_, symObjAddr: 0x103F0, symBinAddr: 0x100060480, symSize: 0x10 }
  - { offsetInCU: 0x2610D, offset: 0x2610D, size: 0x8, addend: 0x0, symName: __ZNSt3__117__compressed_pairIPP4WallNS_9allocatorIS2_EEEC1B7v160006IDnS5_EEOT_OT0_, symObjAddr: 0x10400, symBinAddr: 0x100060490, symSize: 0x30 }
  - { offsetInCU: 0x26164, offset: 0x26164, size: 0x8, addend: 0x0, symName: __ZNSt3__16vectorIP4WallNS_9allocatorIS2_EEE16__destroy_vectorC1ERS5_, symObjAddr: 0x10470, symBinAddr: 0x100060500, symSize: 0x30 }
  - { offsetInCU: 0x2619C, offset: 0x2619C, size: 0x8, addend: 0x0, symName: __ZNSt3__16vectorIP4WallNS_9allocatorIS2_EEE11__vallocateB7v160006Em, symObjAddr: 0x104A0, symBinAddr: 0x100060530, symSize: 0xA0 }
  - { offsetInCU: 0x261DE, offset: 0x261DE, size: 0x8, addend: 0x0, symName: __ZNSt3__16vectorIP4WallNS_9allocatorIS2_EEE18__construct_at_endIPS2_Li0EEEvT_S8_m, symObjAddr: 0x10540, symBinAddr: 0x1000605D0, symSize: 0x90 }
  - { offsetInCU: 0x26250, offset: 0x26250, size: 0x8, addend: 0x0, symName: __ZNSt3__128__exception_guard_exceptionsINS_6vectorIP4WallNS_9allocatorIS3_EEE16__destroy_vectorEE10__completeB7v160006Ev, symObjAddr: 0x105D0, symBinAddr: 0x100060660, symSize: 0x20 }
  - { offsetInCU: 0x26275, offset: 0x26275, size: 0x8, addend: 0x0, symName: __ZNSt3__128__exception_guard_exceptionsINS_6vectorIP4WallNS_9allocatorIS3_EEE16__destroy_vectorEED1B7v160006Ev, symObjAddr: 0x105F0, symBinAddr: 0x100060680, symSize: 0x20 }
  - { offsetInCU: 0x2629E, offset: 0x2629E, size: 0x8, addend: 0x0, symName: __ZNSt3__117__compressed_pairIPP4WallNS_9allocatorIS2_EEEC2B7v160006IDnS5_EEOT_OT0_, symObjAddr: 0x10610, symBinAddr: 0x1000606A0, symSize: 0x40 }
  - { offsetInCU: 0x262F5, offset: 0x262F5, size: 0x8, addend: 0x0, symName: __ZNSt3__122__compressed_pair_elemINS_9allocatorIP4WallEELi1ELb1EEC2B7v160006IS4_vEEOT_, symObjAddr: 0x10650, symBinAddr: 0x1000606E0, symSize: 0x10 }
  - { offsetInCU: 0x26336, offset: 0x26336, size: 0x8, addend: 0x0, symName: __ZNSt3__128__exception_guard_exceptionsINS_6vectorIP4WallNS_9allocatorIS3_EEE16__destroy_vectorEEC1B7v160006ES7_, symObjAddr: 0x10660, symBinAddr: 0x1000606F0, symSize: 0x30 }
  - { offsetInCU: 0x2636D, offset: 0x2636D, size: 0x8, addend: 0x0, symName: __ZNSt3__128__exception_guard_exceptionsINS_6vectorIP4WallNS_9allocatorIS3_EEE16__destroy_vectorEEC2B7v160006ES7_, symObjAddr: 0x10690, symBinAddr: 0x100060720, symSize: 0x20 }
  - { offsetInCU: 0x263A4, offset: 0x263A4, size: 0x8, addend: 0x0, symName: __ZNSt3__16vectorIP4WallNS_9allocatorIS2_EEE16__destroy_vectorC2ERS5_, symObjAddr: 0x106B0, symBinAddr: 0x100060740, symSize: 0x20 }
  - { offsetInCU: 0x263DC, offset: 0x263DC, size: 0x8, addend: 0x0, symName: __ZNSt3__129_AllocatorDestroyRangeReverseINS_9allocatorIP4WallEEPS3_EC1B7v160006ERS4_RS5_S8_, symObjAddr: 0x10830, symBinAddr: 0x1000608C0, symSize: 0x40 }
  - { offsetInCU: 0x26432, offset: 0x26432, size: 0x8, addend: 0x0, symName: __ZNSt3__116allocator_traitsINS_9allocatorIP4WallEEE9constructB7v160006IS3_JRS3_EvEEvRS4_PT_DpOT0_, symObjAddr: 0x10870, symBinAddr: 0x100060900, symSize: 0x30 }
  - { offsetInCU: 0x26489, offset: 0x26489, size: 0x8, addend: 0x0, symName: __ZNSt3__128__exception_guard_exceptionsINS_29_AllocatorDestroyRangeReverseINS_9allocatorIP4WallEEPS4_EEE10__completeB7v160006Ev, symObjAddr: 0x108A0, symBinAddr: 0x100060930, symSize: 0x20 }
  - { offsetInCU: 0x264AE, offset: 0x264AE, size: 0x8, addend: 0x0, symName: __ZNSt3__128__exception_guard_exceptionsINS_29_AllocatorDestroyRangeReverseINS_9allocatorIP4WallEEPS4_EEED1B7v160006Ev, symObjAddr: 0x108C0, symBinAddr: 0x100060950, symSize: 0x20 }
  - { offsetInCU: 0x264D7, offset: 0x264D7, size: 0x8, addend: 0x0, symName: __ZNSt3__128__exception_guard_exceptionsINS_29_AllocatorDestroyRangeReverseINS_9allocatorIP4WallEEPS4_EEEC1B7v160006ES7_, symObjAddr: 0x108E0, symBinAddr: 0x100060970, symSize: 0x40 }
  - { offsetInCU: 0x2650E, offset: 0x2650E, size: 0x8, addend: 0x0, symName: __ZNSt3__128__exception_guard_exceptionsINS_29_AllocatorDestroyRangeReverseINS_9allocatorIP4WallEEPS4_EEEC2B7v160006ES7_, symObjAddr: 0x10920, symBinAddr: 0x1000609B0, symSize: 0x30 }
  - { offsetInCU: 0x26545, offset: 0x26545, size: 0x8, addend: 0x0, symName: __ZNSt3__129_AllocatorDestroyRangeReverseINS_9allocatorIP4WallEEPS3_EC2B7v160006ERS4_RS5_S8_, symObjAddr: 0x10950, symBinAddr: 0x1000609E0, symSize: 0x40 }
  - { offsetInCU: 0x2659B, offset: 0x2659B, size: 0x8, addend: 0x0, symName: __ZNSt3__19allocatorIP4WallE9constructB7v160006IS2_JRS2_EEEvPT_DpOT0_, symObjAddr: 0x10990, symBinAddr: 0x100060A20, symSize: 0x20 }
  - { offsetInCU: 0x265F0, offset: 0x265F0, size: 0x8, addend: 0x0, symName: __ZNSt3__128__exception_guard_exceptionsINS_29_AllocatorDestroyRangeReverseINS_9allocatorIP4WallEEPS4_EEED2B7v160006Ev, symObjAddr: 0x109B0, symBinAddr: 0x100060A40, symSize: 0x40 }
  - { offsetInCU: 0x26619, offset: 0x26619, size: 0x8, addend: 0x0, symName: __ZNKSt3__129_AllocatorDestroyRangeReverseINS_9allocatorIP4WallEEPS3_EclB7v160006Ev, symObjAddr: 0x109F0, symBinAddr: 0x100060A80, symSize: 0x60 }
  - { offsetInCU: 0x26643, offset: 0x26643, size: 0x8, addend: 0x0, symName: __ZNSt3__119__to_address_helperINS_16reverse_iteratorIPP4WallEEvE6__callB7v160006ERKS5_, symObjAddr: 0x10AE0, symBinAddr: 0x100060B70, symSize: 0x40 }
  - { offsetInCU: 0x26666, offset: 0x26666, size: 0x8, addend: 0x0, symName: __ZNKSt3__116reverse_iteratorIPP4WallEptB7v160006Ev, symObjAddr: 0x10B20, symBinAddr: 0x100060BB0, symSize: 0x20 }
  - { offsetInCU: 0x2668B, offset: 0x2668B, size: 0x8, addend: 0x0, symName: __ZNSt3__128__exception_guard_exceptionsINS_6vectorIP4WallNS_9allocatorIS3_EEE16__destroy_vectorEED2B7v160006Ev, symObjAddr: 0x10B40, symBinAddr: 0x100060BD0, symSize: 0x40 }
  - { offsetInCU: 0x266B4, offset: 0x266B4, size: 0x8, addend: 0x0, symName: __ZNSt3__16vectorIP4WallNS_9allocatorIS2_EEE16__destroy_vectorclB7v160006Ev, symObjAddr: 0x10B80, symBinAddr: 0x100060C10, symSize: 0x90 }
  - { offsetInCU: 0x266D9, offset: 0x266D9, size: 0x8, addend: 0x0, symName: __ZNSt3__16vectorIP4WallNS_9allocatorIS2_EEE7__clearB7v160006Ev, symObjAddr: 0x10C20, symBinAddr: 0x100060CB0, symSize: 0x20 }
  - { offsetInCU: 0x266FE, offset: 0x266FE, size: 0x8, addend: 0x0, symName: __ZNSt3__16vectorIP4WallNS_9allocatorIS2_EEE22__base_destruct_at_endB7v160006EPS2_, symObjAddr: 0x10C40, symBinAddr: 0x100060CD0, symSize: 0x80 }
  - { offsetInCU: 0x26741, offset: 0x26741, size: 0x8, addend: 0x0, symName: __ZNSt3__16vectorIP4FoodNS_9allocatorIS2_EEEC1ERKS5_, symObjAddr: 0x10CC0, symBinAddr: 0x100060D50, symSize: 0x30 }
  - { offsetInCU: 0x2677B, offset: 0x2677B, size: 0x8, addend: 0x0, symName: __ZNSt3__16vectorIP4FoodNS_9allocatorIS2_EEEC2ERKS5_, symObjAddr: 0x10CF0, symBinAddr: 0x100060D80, symSize: 0x110 }
  - { offsetInCU: 0x267DB, offset: 0x267DB, size: 0x8, addend: 0x0, symName: __ZNSt3__116allocator_traitsINS_9allocatorIP4FoodEEE37select_on_container_copy_constructionB7v160006IS4_vvEES4_RKS4_, symObjAddr: 0x10E00, symBinAddr: 0x100060E90, symSize: 0x10 }
  - { offsetInCU: 0x2680F, offset: 0x2680F, size: 0x8, addend: 0x0, symName: __ZNSt3__117__compressed_pairIPP4FoodNS_9allocatorIS2_EEEC1B7v160006IDnS5_EEOT_OT0_, symObjAddr: 0x10E10, symBinAddr: 0x100060EA0, symSize: 0x30 }
  - { offsetInCU: 0x26866, offset: 0x26866, size: 0x8, addend: 0x0, symName: __ZNSt3__16vectorIP4FoodNS_9allocatorIS2_EEE16__destroy_vectorC1ERS5_, symObjAddr: 0x10E80, symBinAddr: 0x100060F10, symSize: 0x30 }
  - { offsetInCU: 0x2689E, offset: 0x2689E, size: 0x8, addend: 0x0, symName: __ZNSt3__16vectorIP4FoodNS_9allocatorIS2_EEE11__vallocateB7v160006Em, symObjAddr: 0x10EB0, symBinAddr: 0x100060F40, symSize: 0xA0 }
  - { offsetInCU: 0x268E0, offset: 0x268E0, size: 0x8, addend: 0x0, symName: __ZNSt3__16vectorIP4FoodNS_9allocatorIS2_EEE18__construct_at_endIPS2_Li0EEEvT_S8_m, symObjAddr: 0x10F50, symBinAddr: 0x100060FE0, symSize: 0x90 }
  - { offsetInCU: 0x26952, offset: 0x26952, size: 0x8, addend: 0x0, symName: __ZNSt3__128__exception_guard_exceptionsINS_6vectorIP4FoodNS_9allocatorIS3_EEE16__destroy_vectorEE10__completeB7v160006Ev, symObjAddr: 0x10FE0, symBinAddr: 0x100061070, symSize: 0x20 }
  - { offsetInCU: 0x26977, offset: 0x26977, size: 0x8, addend: 0x0, symName: __ZNSt3__128__exception_guard_exceptionsINS_6vectorIP4FoodNS_9allocatorIS3_EEE16__destroy_vectorEED1B7v160006Ev, symObjAddr: 0x11000, symBinAddr: 0x100061090, symSize: 0x20 }
  - { offsetInCU: 0x269A0, offset: 0x269A0, size: 0x8, addend: 0x0, symName: __ZNSt3__117__compressed_pairIPP4FoodNS_9allocatorIS2_EEEC2B7v160006IDnS5_EEOT_OT0_, symObjAddr: 0x11020, symBinAddr: 0x1000610B0, symSize: 0x40 }
  - { offsetInCU: 0x269F7, offset: 0x269F7, size: 0x8, addend: 0x0, symName: __ZNSt3__122__compressed_pair_elemINS_9allocatorIP4FoodEELi1ELb1EEC2B7v160006IS4_vEEOT_, symObjAddr: 0x11060, symBinAddr: 0x1000610F0, symSize: 0x10 }
  - { offsetInCU: 0x26A38, offset: 0x26A38, size: 0x8, addend: 0x0, symName: __ZNSt3__128__exception_guard_exceptionsINS_6vectorIP4FoodNS_9allocatorIS3_EEE16__destroy_vectorEEC1B7v160006ES7_, symObjAddr: 0x11070, symBinAddr: 0x100061100, symSize: 0x30 }
  - { offsetInCU: 0x26A6F, offset: 0x26A6F, size: 0x8, addend: 0x0, symName: __ZNSt3__128__exception_guard_exceptionsINS_6vectorIP4FoodNS_9allocatorIS3_EEE16__destroy_vectorEEC2B7v160006ES7_, symObjAddr: 0x110A0, symBinAddr: 0x100061130, symSize: 0x20 }
  - { offsetInCU: 0x26AA6, offset: 0x26AA6, size: 0x8, addend: 0x0, symName: __ZNSt3__16vectorIP4FoodNS_9allocatorIS2_EEE16__destroy_vectorC2ERS5_, symObjAddr: 0x110C0, symBinAddr: 0x100061150, symSize: 0x20 }
  - { offsetInCU: 0x26ADE, offset: 0x26ADE, size: 0x8, addend: 0x0, symName: __ZNSt3__129_AllocatorDestroyRangeReverseINS_9allocatorIP4FoodEEPS3_EC1B7v160006ERS4_RS5_S8_, symObjAddr: 0x11240, symBinAddr: 0x1000612D0, symSize: 0x40 }
  - { offsetInCU: 0x26B34, offset: 0x26B34, size: 0x8, addend: 0x0, symName: __ZNSt3__116allocator_traitsINS_9allocatorIP4FoodEEE9constructB7v160006IS3_JRS3_EvEEvRS4_PT_DpOT0_, symObjAddr: 0x11280, symBinAddr: 0x100061310, symSize: 0x30 }
  - { offsetInCU: 0x26B8B, offset: 0x26B8B, size: 0x8, addend: 0x0, symName: __ZNSt3__128__exception_guard_exceptionsINS_29_AllocatorDestroyRangeReverseINS_9allocatorIP4FoodEEPS4_EEE10__completeB7v160006Ev, symObjAddr: 0x112B0, symBinAddr: 0x100061340, symSize: 0x20 }
  - { offsetInCU: 0x26BB0, offset: 0x26BB0, size: 0x8, addend: 0x0, symName: __ZNSt3__128__exception_guard_exceptionsINS_29_AllocatorDestroyRangeReverseINS_9allocatorIP4FoodEEPS4_EEED1B7v160006Ev, symObjAddr: 0x112D0, symBinAddr: 0x100061360, symSize: 0x20 }
  - { offsetInCU: 0x26BD9, offset: 0x26BD9, size: 0x8, addend: 0x0, symName: __ZNSt3__128__exception_guard_exceptionsINS_29_AllocatorDestroyRangeReverseINS_9allocatorIP4FoodEEPS4_EEEC1B7v160006ES7_, symObjAddr: 0x112F0, symBinAddr: 0x100061380, symSize: 0x40 }
  - { offsetInCU: 0x26C10, offset: 0x26C10, size: 0x8, addend: 0x0, symName: __ZNSt3__128__exception_guard_exceptionsINS_29_AllocatorDestroyRangeReverseINS_9allocatorIP4FoodEEPS4_EEEC2B7v160006ES7_, symObjAddr: 0x11330, symBinAddr: 0x1000613C0, symSize: 0x30 }
  - { offsetInCU: 0x26C47, offset: 0x26C47, size: 0x8, addend: 0x0, symName: __ZNSt3__129_AllocatorDestroyRangeReverseINS_9allocatorIP4FoodEEPS3_EC2B7v160006ERS4_RS5_S8_, symObjAddr: 0x11360, symBinAddr: 0x1000613F0, symSize: 0x40 }
  - { offsetInCU: 0x26C9D, offset: 0x26C9D, size: 0x8, addend: 0x0, symName: __ZNSt3__19allocatorIP4FoodE9constructB7v160006IS2_JRS2_EEEvPT_DpOT0_, symObjAddr: 0x113A0, symBinAddr: 0x100061430, symSize: 0x20 }
  - { offsetInCU: 0x26CF2, offset: 0x26CF2, size: 0x8, addend: 0x0, symName: __ZNSt3__128__exception_guard_exceptionsINS_29_AllocatorDestroyRangeReverseINS_9allocatorIP4FoodEEPS4_EEED2B7v160006Ev, symObjAddr: 0x113C0, symBinAddr: 0x100061450, symSize: 0x40 }
  - { offsetInCU: 0x26D1B, offset: 0x26D1B, size: 0x8, addend: 0x0, symName: __ZNKSt3__129_AllocatorDestroyRangeReverseINS_9allocatorIP4FoodEEPS3_EclB7v160006Ev, symObjAddr: 0x11400, symBinAddr: 0x100061490, symSize: 0x60 }
  - { offsetInCU: 0x26D45, offset: 0x26D45, size: 0x8, addend: 0x0, symName: __ZNSt3__119__to_address_helperINS_16reverse_iteratorIPP4FoodEEvE6__callB7v160006ERKS5_, symObjAddr: 0x114F0, symBinAddr: 0x100061580, symSize: 0x40 }
  - { offsetInCU: 0x26D68, offset: 0x26D68, size: 0x8, addend: 0x0, symName: __ZNKSt3__116reverse_iteratorIPP4FoodEptB7v160006Ev, symObjAddr: 0x11530, symBinAddr: 0x1000615C0, symSize: 0x20 }
  - { offsetInCU: 0x26D8D, offset: 0x26D8D, size: 0x8, addend: 0x0, symName: __ZNSt3__128__exception_guard_exceptionsINS_6vectorIP4FoodNS_9allocatorIS3_EEE16__destroy_vectorEED2B7v160006Ev, symObjAddr: 0x11550, symBinAddr: 0x1000615E0, symSize: 0x40 }
  - { offsetInCU: 0x26DB6, offset: 0x26DB6, size: 0x8, addend: 0x0, symName: __ZNSt3__16vectorIP4FoodNS_9allocatorIS2_EEE16__destroy_vectorclB7v160006Ev, symObjAddr: 0x11590, symBinAddr: 0x100061620, symSize: 0x90 }
  - { offsetInCU: 0x26DDB, offset: 0x26DDB, size: 0x8, addend: 0x0, symName: __ZNSt3__16vectorIP4FoodNS_9allocatorIS2_EEE7__clearB7v160006Ev, symObjAddr: 0x11630, symBinAddr: 0x1000616C0, symSize: 0x20 }
  - { offsetInCU: 0x26E00, offset: 0x26E00, size: 0x8, addend: 0x0, symName: __ZNSt3__16vectorIP4FoodNS_9allocatorIS2_EEE22__base_destruct_at_endB7v160006EPS2_, symObjAddr: 0x11650, symBinAddr: 0x1000616E0, symSize: 0x80 }
  - { offsetInCU: 0x26E42, offset: 0x26E42, size: 0x8, addend: 0x0, symName: __ZNSt3__16vectorIP6EntityNS_9allocatorIS2_EEE7reserveEm, symObjAddr: 0x116D0, symBinAddr: 0x100061760, symSize: 0xF0 }
  - { offsetInCU: 0x26E9C, offset: 0x26E9C, size: 0x8, addend: 0x0, symName: __ZNSt3__16vectorIP6EntityNS_9allocatorIS2_EEE6insertINS_11__wrap_iterIPS2_EELi0EEES9_NS7_IPKS2_EET_SD_, symObjAddr: 0x117C0, symBinAddr: 0x100061850, symSize: 0x300 }
  - { offsetInCU: 0x26FAF, offset: 0x26FAF, size: 0x8, addend: 0x0, symName: __ZNSt3__16vectorIP6EntityNS_9allocatorIS2_EEE3endB7v160006Ev, symObjAddr: 0x11AC0, symBinAddr: 0x100061B50, symSize: 0x30 }
  - { offsetInCU: 0x26FE0, offset: 0x26FE0, size: 0x8, addend: 0x0, symName: __ZNSt3__111__wrap_iterIPKP6EntityEC1B7v160006IPS2_EERKNS0_IT_EEPNS_9enable_ifIXsr14is_convertibleIS8_S4_EE5valueEvE4typeE, symObjAddr: 0x11AF0, symBinAddr: 0x100061B80, symSize: 0x30 }
  - { offsetInCU: 0x27029, offset: 0x27029, size: 0x8, addend: 0x0, symName: __ZNSt3__16vectorIP6EntityNS_9allocatorIS2_EEE5beginB7v160006Ev, symObjAddr: 0x11B20, symBinAddr: 0x100061BB0, symSize: 0x30 }
  - { offsetInCU: 0x27050, offset: 0x27050, size: 0x8, addend: 0x0, symName: __ZN6Entity11SetIsTrumanEv, symObjAddr: 0x11B50, symBinAddr: 0x100061BE0, symSize: 0x20 }
  - { offsetInCU: 0x27075, offset: 0x27075, size: 0x8, addend: 0x0, symName: __ZN6Entity16GetNeuralNetworkEv, symObjAddr: 0x11B70, symBinAddr: 0x100061C00, symSize: 0x20 }
  - { offsetInCU: 0x2709A, offset: 0x2709A, size: 0x8, addend: 0x0, symName: __ZN13NeuralNetwork10GetNeuronsEv, symObjAddr: 0x11B90, symBinAddr: 0x100061C20, symSize: 0x30 }
  - { offsetInCU: 0x270BE, offset: 0x270BE, size: 0x8, addend: 0x0, symName: __ZNSt3__16vectorIP6NeuronNS_9allocatorIS2_EEEaSB7v160006EOS5_, symObjAddr: 0x11BC0, symBinAddr: 0x100061C50, symSize: 0x30 }
  - { offsetInCU: 0x270F4, offset: 0x270F4, size: 0x8, addend: 0x0, symName: __ZN13NeuralNetwork10GetWeightsEv, symObjAddr: 0x11BF0, symBinAddr: 0x100061C80, symSize: 0x30 }
  - { offsetInCU: 0x27118, offset: 0x27118, size: 0x8, addend: 0x0, symName: __ZNSt3__16vectorIP6WeightNS_9allocatorIS2_EEEaSB7v160006EOS5_, symObjAddr: 0x11C20, symBinAddr: 0x100061CB0, symSize: 0x30 }
  - { offsetInCU: 0x2714E, offset: 0x2714E, size: 0x8, addend: 0x0, symName: __ZNSt3__16vectorIP6EntityNS_9allocatorIS2_EEE5frontB7v160006Ev, symObjAddr: 0x11C50, symBinAddr: 0x100061CE0, symSize: 0x20 }
  - { offsetInCU: 0x27173, offset: 0x27173, size: 0x8, addend: 0x0, symName: __ZN6Entity14CollectRayDataENSt3__16vectorIPS_NS0_9allocatorIS2_EEEENS1_IP4WallNS3_IS7_EEEENS1_IP4FoodNS3_ISB_EEEE7Vector2, symObjAddr: 0x11C70, symBinAddr: 0x100061D00, symSize: 0xE80 }
  - { offsetInCU: 0x273EF, offset: 0x273EF, size: 0x8, addend: 0x0, symName: __ZNSt3__16vectorIP6EntityNS_9allocatorIS2_EEEC1ERKS5_, symObjAddr: 0x12AF0, symBinAddr: 0x100062B80, symSize: 0x30 }
  - { offsetInCU: 0x27429, offset: 0x27429, size: 0x8, addend: 0x0, symName: __ZN6Entity12ProcessInputEv, symObjAddr: 0x12B20, symBinAddr: 0x100062BB0, symSize: 0x350 }
  - { offsetInCU: 0x27497, offset: 0x27497, size: 0x8, addend: 0x0, symName: __ZN6Entity17UpdateOrientationEv, symObjAddr: 0x12E70, symBinAddr: 0x100062F00, symSize: 0x90 }
  - { offsetInCU: 0x274BC, offset: 0x274BC, size: 0x8, addend: 0x0, symName: __ZN6Entity13UpdatePosMoveENSt3__16vectorIP4WallNS0_9allocatorIS3_EEEE, symObjAddr: 0x12F00, symBinAddr: 0x100062F90, symSize: 0x1F0 }
  - { offsetInCU: 0x27561, offset: 0x27561, size: 0x8, addend: 0x0, symName: __ZN6Entity6GetPosEv, symObjAddr: 0x130F0, symBinAddr: 0x100063180, symSize: 0x20 }
  - { offsetInCU: 0x27586, offset: 0x27586, size: 0x8, addend: 0x0, symName: __ZN6Entity15IncrementHealthEf, symObjAddr: 0x13110, symBinAddr: 0x1000631A0, symSize: 0x20 }
  - { offsetInCU: 0x275BA, offset: 0x275BA, size: 0x8, addend: 0x0, symName: __ZN6Entity9GetDamageEv, symObjAddr: 0x13130, symBinAddr: 0x1000631C0, symSize: 0x20 }
  - { offsetInCU: 0x275DF, offset: 0x275DF, size: 0x8, addend: 0x0, symName: __ZN6Entity9GetIsPreyEv, symObjAddr: 0x13150, symBinAddr: 0x1000631E0, symSize: 0x20 }
  - { offsetInCU: 0x27604, offset: 0x27604, size: 0x8, addend: 0x0, symName: __ZN6Entity9GetRadiusEv, symObjAddr: 0x13170, symBinAddr: 0x100063200, symSize: 0x20 }
  - { offsetInCU: 0x27629, offset: 0x27629, size: 0x8, addend: 0x0, symName: __ZN6Entity9GetHealthEv, symObjAddr: 0x13190, symBinAddr: 0x100063220, symSize: 0x20 }
  - { offsetInCU: 0x2764E, offset: 0x2764E, size: 0x8, addend: 0x0, symName: __ZN6Entity17SetDinnerThisTickEv, symObjAddr: 0x131B0, symBinAddr: 0x100063240, symSize: 0x20 }
  - { offsetInCU: 0x27673, offset: 0x27673, size: 0x8, addend: 0x0, symName: __ZN6Entity21ResetTicksSinceDinnerEv, symObjAddr: 0x131D0, symBinAddr: 0x100063260, symSize: 0x20 }
  - { offsetInCU: 0x27698, offset: 0x27698, size: 0x8, addend: 0x0, symName: __ZN6Entity12SetKillCountEi, symObjAddr: 0x131F0, symBinAddr: 0x100063280, symSize: 0x20 }
  - { offsetInCU: 0x276CC, offset: 0x276CC, size: 0x8, addend: 0x0, symName: __ZN6Entity12GetKillCountEv, symObjAddr: 0x13210, symBinAddr: 0x1000632A0, symSize: 0x20 }
  - { offsetInCU: 0x276F1, offset: 0x276F1, size: 0x8, addend: 0x0, symName: __ZN6Entity9SetHealthEi, symObjAddr: 0x13260, symBinAddr: 0x1000632F0, symSize: 0x20 }
  - { offsetInCU: 0x27724, offset: 0x27724, size: 0x8, addend: 0x0, symName: __ZNSt3__16vectorIP4FoodNS_9allocatorIS2_EEEixB7v160006Em, symObjAddr: 0x13280, symBinAddr: 0x100063310, symSize: 0x20 }
  - { offsetInCU: 0x2775A, offset: 0x2775A, size: 0x8, addend: 0x0, symName: __ZN4Food6GetPosEv, symObjAddr: 0x132A0, symBinAddr: 0x100063330, symSize: 0x20 }
  - { offsetInCU: 0x2777F, offset: 0x2777F, size: 0x8, addend: 0x0, symName: __ZN4Food9GetRadiusEv, symObjAddr: 0x132C0, symBinAddr: 0x100063350, symSize: 0x20 }
  - { offsetInCU: 0x277A4, offset: 0x277A4, size: 0x8, addend: 0x0, symName: __ZN4Food20UpdateValueRemainingEf, symObjAddr: 0x132E0, symBinAddr: 0x100063370, symSize: 0x30 }
  - { offsetInCU: 0x277D7, offset: 0x277D7, size: 0x8, addend: 0x0, symName: __ZN4Food17GetValueRemainingEv, symObjAddr: 0x13310, symBinAddr: 0x1000633A0, symSize: 0x20 }
  - { offsetInCU: 0x277FB, offset: 0x277FB, size: 0x8, addend: 0x0, symName: __ZNSt3__16vectorIP4FoodNS_9allocatorIS2_EEE5eraseENS_11__wrap_iterIPKS2_EES9_, symObjAddr: 0x13330, symBinAddr: 0x1000633C0, symSize: 0xE0 }
  - { offsetInCU: 0x27854, offset: 0x27854, size: 0x8, addend: 0x0, symName: __ZNSt3__111__wrap_iterIPKP4FoodEC1B7v160006IPS2_EERKNS0_IT_EEPNS_9enable_ifIXsr14is_convertibleIS8_S4_EE5valueEvE4typeE, symObjAddr: 0x134F0, symBinAddr: 0x100063580, symSize: 0x30 }
  - { offsetInCU: 0x2789E, offset: 0x2789E, size: 0x8, addend: 0x0, symName: __ZNSt3__16vectorIP4FoodNS_9allocatorIS2_EEE5clearB7v160006Ev, symObjAddr: 0x13520, symBinAddr: 0x1000635B0, symSize: 0x50 }
  - { offsetInCU: 0x278D2, offset: 0x278D2, size: 0x8, addend: 0x0, symName: __ZN6Entity21DidHaveDinnerThisTickEv, symObjAddr: 0x13570, symBinAddr: 0x100063600, symSize: 0x20 }
  - { offsetInCU: 0x278F7, offset: 0x278F7, size: 0x8, addend: 0x0, symName: __ZN6Entity25IncrementTicksSinceDinnerEv, symObjAddr: 0x13590, symBinAddr: 0x100063620, symSize: 0x20 }
  - { offsetInCU: 0x2791C, offset: 0x2791C, size: 0x8, addend: 0x0, symName: __ZN6Entity10DeleteNetsEv, symObjAddr: 0x135B0, symBinAddr: 0x100063640, symSize: 0xC0 }
  - { offsetInCU: 0x27941, offset: 0x27941, size: 0x8, addend: 0x0, symName: __ZN6EntityD1Ev, symObjAddr: 0x13670, symBinAddr: 0x100063700, symSize: 0x20 }
  - { offsetInCU: 0x27969, offset: 0x27969, size: 0x8, addend: 0x0, symName: __ZNSt3__16vectorIP6EntityNS_9allocatorIS2_EEE5eraseENS_11__wrap_iterIPKS2_EES9_, symObjAddr: 0x13690, symBinAddr: 0x100063720, symSize: 0xE0 }
  - { offsetInCU: 0x279BD, offset: 0x279BD, size: 0x8, addend: 0x0, symName: __ZNSt3__16vectorIP6EntityNS_9allocatorIS2_EEE5clearB7v160006Ev, symObjAddr: 0x13850, symBinAddr: 0x1000638E0, symSize: 0x50 }
  - { offsetInCU: 0x279F0, offset: 0x279F0, size: 0x8, addend: 0x0, symName: __ZNSt3__16vectorIP6EntityNS_9allocatorIS2_EEE9push_backB7v160006EOS2_, symObjAddr: 0x138A0, symBinAddr: 0x100063930, symSize: 0x60 }
  - { offsetInCU: 0x27A26, offset: 0x27A26, size: 0x8, addend: 0x0, symName: __ZN6EntityC1E7Vector2b, symObjAddr: 0x13900, symBinAddr: 0x100063990, symSize: 0x40 }
  - { offsetInCU: 0x27A6B, offset: 0x27A6B, size: 0x8, addend: 0x0, symName: __ZN6Entity22IncrementTicksSurvivedEv, symObjAddr: 0x13940, symBinAddr: 0x1000639D0, symSize: 0x20 }
  - { offsetInCU: 0x27A90, offset: 0x27A90, size: 0x8, addend: 0x0, symName: __ZN6Entity16GetTicksSurvivedEv, symObjAddr: 0x13960, symBinAddr: 0x1000639F0, symSize: 0x20 }
  - { offsetInCU: 0x27AB5, offset: 0x27AB5, size: 0x8, addend: 0x0, symName: __ZN6Entity9ReproduceE7Vector2i, symObjAddr: 0x13980, symBinAddr: 0x100063A10, symSize: 0x510 }
  - { offsetInCU: 0x27B65, offset: 0x27B65, size: 0x8, addend: 0x0, symName: __ZNSt3__16vectorIP6EntityNS_9allocatorIS2_EEE18__construct_at_endINS_11__wrap_iterIPS2_EELi0EEEvT_SA_m, symObjAddr: 0x13F60, symBinAddr: 0x100063FF0, symSize: 0xA0 }
  - { offsetInCU: 0x27BD6, offset: 0x27BD6, size: 0x8, addend: 0x0, symName: __ZNSt3__16vectorIP6EntityNS_9allocatorIS2_EEE12__move_rangeEPS2_S6_S6_, symObjAddr: 0x14000, symBinAddr: 0x100064090, symSize: 0x130 }
  - { offsetInCU: 0x27C92, offset: 0x27C92, size: 0x8, addend: 0x0, symName: __ZNSt3__114__split_bufferIP6EntityRNS_9allocatorIS2_EEE18__construct_at_endINS_11__wrap_iterIPS2_EEEENS_9enable_ifIXsr27__is_cpp17_forward_iteratorIT_EE5valueEvE4typeESC_SC_, symObjAddr: 0x14180, symBinAddr: 0x100064210, symSize: 0xF0 }
  - { offsetInCU: 0x27CED, offset: 0x27CED, size: 0x8, addend: 0x0, symName: __ZNSt3__16vectorIP6EntityNS_9allocatorIS2_EEE11__make_iterB7v160006EPS2_, symObjAddr: 0x143E0, symBinAddr: 0x100064470, symSize: 0x30 }
  - { offsetInCU: 0x27D21, offset: 0x27D21, size: 0x8, addend: 0x0, symName: __ZNKSt3__111__wrap_iterIPKP6EntityE4baseB7v160006Ev, symObjAddr: 0x14410, symBinAddr: 0x1000644A0, symSize: 0x20 }
  - { offsetInCU: 0x27D46, offset: 0x27D46, size: 0x8, addend: 0x0, symName: __ZNKSt3__111__wrap_iterIPP6EntityE4baseB7v160006Ev, symObjAddr: 0x14430, symBinAddr: 0x1000644C0, symSize: 0x20 }
  - { offsetInCU: 0x27D6B, offset: 0x27D6B, size: 0x8, addend: 0x0, symName: __ZNSt3__111__wrap_iterIPP6EntityEpLB7v160006El, symObjAddr: 0x14500, symBinAddr: 0x100064590, symSize: 0x20 }
  - { offsetInCU: 0x27D9E, offset: 0x27D9E, size: 0x8, addend: 0x0, symName: __ZNSt3__129_AllocatorDestroyRangeReverseINS_9allocatorIP6EntityEEPS3_EC1B7v160006ERS4_RS5_S8_, symObjAddr: 0x146A0, symBinAddr: 0x100064730, symSize: 0x40 }
  - { offsetInCU: 0x27DF4, offset: 0x27DF4, size: 0x8, addend: 0x0, symName: __ZNSt3__116allocator_traitsINS_9allocatorIP6EntityEEE9constructB7v160006IS3_JRS3_EvEEvRS4_PT_DpOT0_, symObjAddr: 0x14710, symBinAddr: 0x1000647A0, symSize: 0x30 }
  - { offsetInCU: 0x27E4B, offset: 0x27E4B, size: 0x8, addend: 0x0, symName: __ZNKSt3__111__wrap_iterIPP6EntityEdeB7v160006Ev, symObjAddr: 0x14740, symBinAddr: 0x1000647D0, symSize: 0x20 }
  - { offsetInCU: 0x27E70, offset: 0x27E70, size: 0x8, addend: 0x0, symName: __ZNSt3__111__wrap_iterIPP6EntityEppB7v160006Ev, symObjAddr: 0x14760, symBinAddr: 0x1000647F0, symSize: 0x20 }
  - { offsetInCU: 0x27E95, offset: 0x27E95, size: 0x8, addend: 0x0, symName: __ZNSt3__128__exception_guard_exceptionsINS_29_AllocatorDestroyRangeReverseINS_9allocatorIP6EntityEEPS4_EEE10__completeB7v160006Ev, symObjAddr: 0x14780, symBinAddr: 0x100064810, symSize: 0x20 }
  - { offsetInCU: 0x27EBA, offset: 0x27EBA, size: 0x8, addend: 0x0, symName: __ZNSt3__128__exception_guard_exceptionsINS_29_AllocatorDestroyRangeReverseINS_9allocatorIP6EntityEEPS4_EEED1B7v160006Ev, symObjAddr: 0x147A0, symBinAddr: 0x100064830, symSize: 0x20 }
  - { offsetInCU: 0x27EE3, offset: 0x27EE3, size: 0x8, addend: 0x0, symName: __ZNSt3__128__exception_guard_exceptionsINS_29_AllocatorDestroyRangeReverseINS_9allocatorIP6EntityEEPS4_EEEC1B7v160006ES7_, symObjAddr: 0x147C0, symBinAddr: 0x100064850, symSize: 0x40 }
  - { offsetInCU: 0x27F1A, offset: 0x27F1A, size: 0x8, addend: 0x0, symName: __ZNSt3__128__exception_guard_exceptionsINS_29_AllocatorDestroyRangeReverseINS_9allocatorIP6EntityEEPS4_EEEC2B7v160006ES7_, symObjAddr: 0x14800, symBinAddr: 0x100064890, symSize: 0x30 }
  - { offsetInCU: 0x27F51, offset: 0x27F51, size: 0x8, addend: 0x0, symName: __ZNSt3__129_AllocatorDestroyRangeReverseINS_9allocatorIP6EntityEEPS3_EC2B7v160006ERS4_RS5_S8_, symObjAddr: 0x14830, symBinAddr: 0x1000648C0, symSize: 0x40 }
  - { offsetInCU: 0x27FA7, offset: 0x27FA7, size: 0x8, addend: 0x0, symName: __ZNSt3__19allocatorIP6EntityE9constructB7v160006IS2_JRS2_EEEvPT_DpOT0_, symObjAddr: 0x148B0, symBinAddr: 0x100064940, symSize: 0x20 }
  - { offsetInCU: 0x27FFC, offset: 0x27FFC, size: 0x8, addend: 0x0, symName: __ZNSt3__128__exception_guard_exceptionsINS_29_AllocatorDestroyRangeReverseINS_9allocatorIP6EntityEEPS4_EEED2B7v160006Ev, symObjAddr: 0x148D0, symBinAddr: 0x100064960, symSize: 0x40 }
  - { offsetInCU: 0x28025, offset: 0x28025, size: 0x8, addend: 0x0, symName: __ZNKSt3__129_AllocatorDestroyRangeReverseINS_9allocatorIP6EntityEEPS3_EclB7v160006Ev, symObjAddr: 0x14910, symBinAddr: 0x1000649A0, symSize: 0x60 }
  - { offsetInCU: 0x2804F, offset: 0x2804F, size: 0x8, addend: 0x0, symName: __ZNSt3__119__to_address_helperINS_16reverse_iteratorIPP6EntityEEvE6__callB7v160006ERKS5_, symObjAddr: 0x14A00, symBinAddr: 0x100064A90, symSize: 0x40 }
  - { offsetInCU: 0x28072, offset: 0x28072, size: 0x8, addend: 0x0, symName: __ZNKSt3__116reverse_iteratorIPP6EntityEptB7v160006Ev, symObjAddr: 0x14A40, symBinAddr: 0x100064AD0, symSize: 0x20 }
  - { offsetInCU: 0x28097, offset: 0x28097, size: 0x8, addend: 0x0, symName: __ZNSt3__116allocator_traitsINS_9allocatorIP6EntityEEE9constructB7v160006IS3_JS3_EvEEvRS4_PT_DpOT0_, symObjAddr: 0x14A60, symBinAddr: 0x100064AF0, symSize: 0x30 }
  - { offsetInCU: 0x280EE, offset: 0x280EE, size: 0x8, addend: 0x0, symName: __ZNSt3__19allocatorIP6EntityE9constructB7v160006IS2_JS2_EEEvPT_DpOT0_, symObjAddr: 0x14AD0, symBinAddr: 0x100064B60, symSize: 0x20 }
  - { offsetInCU: 0x28166, offset: 0x28166, size: 0x8, addend: 0x0, symName: __ZNKSt3__123__move_backward_trivialclB7v160006IP6EntityS3_Li0EEENS_4pairIPT_PT0_EES6_S6_S8_, symObjAddr: 0x14C70, symBinAddr: 0x100064D00, symSize: 0x40 }
  - { offsetInCU: 0x281CD, offset: 0x281CD, size: 0x8, addend: 0x0, symName: __ZNSt3__14pairIPP6EntityS3_EC1B7v160006IRS3_S6_LPv0EEEOT_OT0_, symObjAddr: 0x14E20, symBinAddr: 0x100064EB0, symSize: 0x30 }
  - { offsetInCU: 0x2822A, offset: 0x2822A, size: 0x8, addend: 0x0, symName: __ZNSt3__14pairIPP6EntityS3_EC2B7v160006IRS3_S6_LPv0EEEOT_OT0_, symObjAddr: 0x14E50, symBinAddr: 0x100064EE0, symSize: 0x30 }
  - { offsetInCU: 0x28287, offset: 0x28287, size: 0x8, addend: 0x0, symName: __ZNSt3__118__unwrap_iter_implIPP6EntityLb1EE8__unwrapB7v160006ES3_, symObjAddr: 0x14E80, symBinAddr: 0x100064F10, symSize: 0x20 }
  - { offsetInCU: 0x282AF, offset: 0x282AF, size: 0x8, addend: 0x0, symName: __ZNSt3__14pairIPP6EntityS3_EC1B7v160006IS3_S3_LPv0EEEOT_OT0_, symObjAddr: 0x14EA0, symBinAddr: 0x100064F30, symSize: 0x30 }
  - { offsetInCU: 0x2830C, offset: 0x2830C, size: 0x8, addend: 0x0, symName: __ZNSt3__14pairIPP6EntityS3_EC2B7v160006IS3_S3_LPv0EEEOT_OT0_, symObjAddr: 0x14ED0, symBinAddr: 0x100064F60, symSize: 0x30 }
  - { offsetInCU: 0x28369, offset: 0x28369, size: 0x8, addend: 0x0, symName: __ZNSt3__118__unwrap_iter_implIPP6EntityLb1EE8__rewrapB7v160006ES3_S3_, symObjAddr: 0x14F00, symBinAddr: 0x100064F90, symSize: 0x50 }
  - { offsetInCU: 0x283A4, offset: 0x283A4, size: 0x8, addend: 0x0, symName: __ZNKSt3__114__copy_trivialclB7v160006IP6EntityS3_Li0EEENS_4pairIPT_PT0_EES6_S6_S8_, symObjAddr: 0x15120, symBinAddr: 0x1000651B0, symSize: 0x40 }
  - { offsetInCU: 0x2840B, offset: 0x2840B, size: 0x8, addend: 0x0, symName: __ZNSt3__118__unwrap_iter_implINS_11__wrap_iterIPP6EntityEELb1EE8__unwrapB7v160006ES5_, symObjAddr: 0x15200, symBinAddr: 0x100065290, symSize: 0x20 }
  - { offsetInCU: 0x28433, offset: 0x28433, size: 0x8, addend: 0x0, symName: __ZNSt3__119__to_address_helperINS_11__wrap_iterIPP6EntityEEvE6__callB7v160006ERKS5_, symObjAddr: 0x15240, symBinAddr: 0x1000652D0, symSize: 0x30 }
  - { offsetInCU: 0x28456, offset: 0x28456, size: 0x8, addend: 0x0, symName: __ZNSt3__114pointer_traitsINS_11__wrap_iterIPP6EntityEEE10to_addressB7v160006ES5_, symObjAddr: 0x15270, symBinAddr: 0x100065300, symSize: 0x30 }
  - { offsetInCU: 0x2847A, offset: 0x2847A, size: 0x8, addend: 0x0, symName: __ZNSt3__14pairIPP6EntityS3_EC1B7v160006IRS3_S3_LPv0EEEOT_OT0_, symObjAddr: 0x15340, symBinAddr: 0x1000653D0, symSize: 0x30 }
  - { offsetInCU: 0x284D7, offset: 0x284D7, size: 0x8, addend: 0x0, symName: __ZNSt3__14pairIPP6EntityS3_EC2B7v160006IRS3_S3_LPv0EEEOT_OT0_, symObjAddr: 0x15370, symBinAddr: 0x100065400, symSize: 0x30 }
  - { offsetInCU: 0x28552, offset: 0x28552, size: 0x8, addend: 0x0, symName: __ZNSt3__14pairINS_11__wrap_iterIPP6EntityEES4_EC1B7v160006IS5_S4_LPv0EEEOT_OT0_, symObjAddr: 0x153A0, symBinAddr: 0x100065430, symSize: 0x30 }
  - { offsetInCU: 0x285AF, offset: 0x285AF, size: 0x8, addend: 0x0, symName: __ZNSt3__14pairINS_11__wrap_iterIPP6EntityEES4_EC2B7v160006IS5_S4_LPv0EEEOT_OT0_, symObjAddr: 0x153D0, symBinAddr: 0x100065460, symSize: 0x30 }
  - { offsetInCU: 0x2860C, offset: 0x2860C, size: 0x8, addend: 0x0, symName: __ZNSt3__118__unwrap_iter_implINS_11__wrap_iterIPP6EntityEELb1EE8__rewrapB7v160006ES5_S4_, symObjAddr: 0x15450, symBinAddr: 0x1000654E0, symSize: 0x50 }
  - { offsetInCU: 0x2863D, offset: 0x2863D, size: 0x8, addend: 0x0, symName: __ZNKSt3__111__wrap_iterIPP6EntityEplB7v160006El, symObjAddr: 0x154A0, symBinAddr: 0x100065530, symSize: 0x40 }
  - { offsetInCU: 0x28688, offset: 0x28688, size: 0x8, addend: 0x0, symName: __ZNSt3__114__split_bufferIP6EntityRNS_9allocatorIS2_EEE21_ConstructTransactionC1B7v160006EPPS2_m, symObjAddr: 0x154E0, symBinAddr: 0x100065570, symSize: 0x30 }
  - { offsetInCU: 0x286CD, offset: 0x286CD, size: 0x8, addend: 0x0, symName: __ZNSt3__114__split_bufferIP6EntityRNS_9allocatorIS2_EEE21_ConstructTransactionD1B7v160006Ev, symObjAddr: 0x15510, symBinAddr: 0x1000655A0, symSize: 0x20 }
  - { offsetInCU: 0x286F6, offset: 0x286F6, size: 0x8, addend: 0x0, symName: __ZNSt3__114__split_bufferIP6EntityRNS_9allocatorIS2_EEE21_ConstructTransactionC2B7v160006EPPS2_m, symObjAddr: 0x15530, symBinAddr: 0x1000655C0, symSize: 0x40 }
  - { offsetInCU: 0x2873B, offset: 0x2873B, size: 0x8, addend: 0x0, symName: __ZNSt3__114__split_bufferIP6EntityRNS_9allocatorIS2_EEE21_ConstructTransactionD2B7v160006Ev, symObjAddr: 0x15570, symBinAddr: 0x100065600, symSize: 0x20 }
  - { offsetInCU: 0x2876E, offset: 0x2876E, size: 0x8, addend: 0x0, symName: __ZNKSt3__114__move_trivialclB7v160006IP6EntityS3_Li0EEENS_4pairIPT_PT0_EES6_S6_S8_, symObjAddr: 0x15730, symBinAddr: 0x1000657C0, symSize: 0x40 }
  - { offsetInCU: 0x287D5, offset: 0x287D5, size: 0x8, addend: 0x0, symName: __ZNSt3__111__wrap_iterIPP6EntityEC1B7v160006EPKvS3_, symObjAddr: 0x15770, symBinAddr: 0x100065800, symSize: 0x30 }
  - { offsetInCU: 0x2881A, offset: 0x2881A, size: 0x8, addend: 0x0, symName: __ZNSt3__111__wrap_iterIPP6EntityEC2B7v160006EPKvS3_, symObjAddr: 0x157A0, symBinAddr: 0x100065830, symSize: 0x20 }
  - { offsetInCU: 0x2885F, offset: 0x2885F, size: 0x8, addend: 0x0, symName: __ZNSt3__111__wrap_iterIPKP6EntityEC2B7v160006IPS2_EERKNS0_IT_EEPNS_9enable_ifIXsr14is_convertibleIS8_S4_EE5valueEvE4typeE, symObjAddr: 0x157C0, symBinAddr: 0x100065850, symSize: 0x40 }
  - { offsetInCU: 0x288A8, offset: 0x288A8, size: 0x8, addend: 0x0, symName: __ZNSt3__16vectorIP6NeuronNS_9allocatorIS2_EEE13__move_assignERS5_NS_17integral_constantIbLb1EEE, symObjAddr: 0x15800, symBinAddr: 0x100065890, symSize: 0xA0 }
  - { offsetInCU: 0x288E8, offset: 0x288E8, size: 0x8, addend: 0x0, symName: __ZNSt3__16vectorIP6NeuronNS_9allocatorIS2_EEE13__vdeallocateEv, symObjAddr: 0x158A0, symBinAddr: 0x100065930, symSize: 0x80 }
  - { offsetInCU: 0x2890F, offset: 0x2890F, size: 0x8, addend: 0x0, symName: __ZNSt3__16vectorIP6NeuronNS_9allocatorIS2_EEE19__move_assign_allocB7v160006ERS5_, symObjAddr: 0x15920, symBinAddr: 0x1000659B0, symSize: 0x30 }
  - { offsetInCU: 0x28943, offset: 0x28943, size: 0x8, addend: 0x0, symName: __ZNSt3__16vectorIP6NeuronNS_9allocatorIS2_EEE5clearB7v160006Ev, symObjAddr: 0x15950, symBinAddr: 0x1000659E0, symSize: 0x50 }
  - { offsetInCU: 0x28977, offset: 0x28977, size: 0x8, addend: 0x0, symName: __ZNKSt3__16vectorIP6NeuronNS_9allocatorIS2_EEE17__annotate_shrinkB7v160006Em, symObjAddr: 0x159A0, symBinAddr: 0x100065A30, symSize: 0xA0 }
  - { offsetInCU: 0x289AB, offset: 0x289AB, size: 0x8, addend: 0x0, symName: __ZNSt3__16vectorIP6NeuronNS_9allocatorIS2_EEE19__move_assign_allocB7v160006ERS5_NS_17integral_constantIbLb1EEE, symObjAddr: 0x15A40, symBinAddr: 0x100065AD0, symSize: 0x30 }
  - { offsetInCU: 0x289EA, offset: 0x289EA, size: 0x8, addend: 0x0, symName: __ZNSt3__16vectorIP6WeightNS_9allocatorIS2_EEEC1ERKS5_, symObjAddr: 0x15A70, symBinAddr: 0x100065B00, symSize: 0x30 }
  - { offsetInCU: 0x28A24, offset: 0x28A24, size: 0x8, addend: 0x0, symName: __ZNSt3__16vectorIP6WeightNS_9allocatorIS2_EEEC2ERKS5_, symObjAddr: 0x15AA0, symBinAddr: 0x100065B30, symSize: 0x110 }
  - { offsetInCU: 0x28A84, offset: 0x28A84, size: 0x8, addend: 0x0, symName: __ZNSt3__116allocator_traitsINS_9allocatorIP6WeightEEE37select_on_container_copy_constructionB7v160006IS4_vvEES4_RKS4_, symObjAddr: 0x15BB0, symBinAddr: 0x100065C40, symSize: 0x10 }
  - { offsetInCU: 0x28AB8, offset: 0x28AB8, size: 0x8, addend: 0x0, symName: __ZNSt3__117__compressed_pairIPP6WeightNS_9allocatorIS2_EEEC1B7v160006IDnS5_EEOT_OT0_, symObjAddr: 0x15BC0, symBinAddr: 0x100065C50, symSize: 0x30 }
  - { offsetInCU: 0x28B0F, offset: 0x28B0F, size: 0x8, addend: 0x0, symName: __ZNSt3__16vectorIP6WeightNS_9allocatorIS2_EEE11__vallocateB7v160006Em, symObjAddr: 0x15C30, symBinAddr: 0x100065CC0, symSize: 0xA0 }
  - { offsetInCU: 0x28B51, offset: 0x28B51, size: 0x8, addend: 0x0, symName: __ZNSt3__16vectorIP6WeightNS_9allocatorIS2_EEE18__construct_at_endIPS2_Li0EEEvT_S8_m, symObjAddr: 0x15CD0, symBinAddr: 0x100065D60, symSize: 0x90 }
  - { offsetInCU: 0x28BC3, offset: 0x28BC3, size: 0x8, addend: 0x0, symName: __ZNSt3__128__exception_guard_exceptionsINS_6vectorIP6WeightNS_9allocatorIS3_EEE16__destroy_vectorEE10__completeB7v160006Ev, symObjAddr: 0x15D60, symBinAddr: 0x100065DF0, symSize: 0x20 }
  - { offsetInCU: 0x28BE8, offset: 0x28BE8, size: 0x8, addend: 0x0, symName: __ZNSt3__128__exception_guard_exceptionsINS_6vectorIP6WeightNS_9allocatorIS3_EEE16__destroy_vectorEED1B7v160006Ev, symObjAddr: 0x15D80, symBinAddr: 0x100065E10, symSize: 0x20 }
  - { offsetInCU: 0x28C11, offset: 0x28C11, size: 0x8, addend: 0x0, symName: __ZNSt3__117__compressed_pairIPP6WeightNS_9allocatorIS2_EEEC2B7v160006IDnS5_EEOT_OT0_, symObjAddr: 0x15DA0, symBinAddr: 0x100065E30, symSize: 0x40 }
  - { offsetInCU: 0x28C68, offset: 0x28C68, size: 0x8, addend: 0x0, symName: __ZNSt3__122__compressed_pair_elemINS_9allocatorIP6WeightEELi1ELb1EEC2B7v160006IS4_vEEOT_, symObjAddr: 0x15DE0, symBinAddr: 0x100065E70, symSize: 0x10 }
  - { offsetInCU: 0x28CA9, offset: 0x28CA9, size: 0x8, addend: 0x0, symName: __ZNSt3__128__exception_guard_exceptionsINS_6vectorIP6WeightNS_9allocatorIS3_EEE16__destroy_vectorEEC1B7v160006ES7_, symObjAddr: 0x15DF0, symBinAddr: 0x100065E80, symSize: 0x30 }
  - { offsetInCU: 0x28CE0, offset: 0x28CE0, size: 0x8, addend: 0x0, symName: __ZNSt3__128__exception_guard_exceptionsINS_6vectorIP6WeightNS_9allocatorIS3_EEE16__destroy_vectorEEC2B7v160006ES7_, symObjAddr: 0x15E20, symBinAddr: 0x100065EB0, symSize: 0x20 }
  - { offsetInCU: 0x28D17, offset: 0x28D17, size: 0x8, addend: 0x0, symName: __ZNSt3__129_AllocatorDestroyRangeReverseINS_9allocatorIP6WeightEEPS3_EC1B7v160006ERS4_RS5_S8_, symObjAddr: 0x15FA0, symBinAddr: 0x100066030, symSize: 0x40 }
  - { offsetInCU: 0x28D6D, offset: 0x28D6D, size: 0x8, addend: 0x0, symName: __ZNSt3__116allocator_traitsINS_9allocatorIP6WeightEEE9constructB7v160006IS3_JRS3_EvEEvRS4_PT_DpOT0_, symObjAddr: 0x15FE0, symBinAddr: 0x100066070, symSize: 0x30 }
  - { offsetInCU: 0x28DC4, offset: 0x28DC4, size: 0x8, addend: 0x0, symName: __ZNSt3__128__exception_guard_exceptionsINS_29_AllocatorDestroyRangeReverseINS_9allocatorIP6WeightEEPS4_EEE10__completeB7v160006Ev, symObjAddr: 0x16010, symBinAddr: 0x1000660A0, symSize: 0x20 }
  - { offsetInCU: 0x28DE9, offset: 0x28DE9, size: 0x8, addend: 0x0, symName: __ZNSt3__128__exception_guard_exceptionsINS_29_AllocatorDestroyRangeReverseINS_9allocatorIP6WeightEEPS4_EEED1B7v160006Ev, symObjAddr: 0x16030, symBinAddr: 0x1000660C0, symSize: 0x20 }
  - { offsetInCU: 0x28E12, offset: 0x28E12, size: 0x8, addend: 0x0, symName: __ZNSt3__128__exception_guard_exceptionsINS_29_AllocatorDestroyRangeReverseINS_9allocatorIP6WeightEEPS4_EEEC1B7v160006ES7_, symObjAddr: 0x16050, symBinAddr: 0x1000660E0, symSize: 0x40 }
  - { offsetInCU: 0x28E49, offset: 0x28E49, size: 0x8, addend: 0x0, symName: __ZNSt3__128__exception_guard_exceptionsINS_29_AllocatorDestroyRangeReverseINS_9allocatorIP6WeightEEPS4_EEEC2B7v160006ES7_, symObjAddr: 0x16090, symBinAddr: 0x100066120, symSize: 0x30 }
  - { offsetInCU: 0x28E80, offset: 0x28E80, size: 0x8, addend: 0x0, symName: __ZNSt3__129_AllocatorDestroyRangeReverseINS_9allocatorIP6WeightEEPS3_EC2B7v160006ERS4_RS5_S8_, symObjAddr: 0x160C0, symBinAddr: 0x100066150, symSize: 0x40 }
  - { offsetInCU: 0x28ED6, offset: 0x28ED6, size: 0x8, addend: 0x0, symName: __ZNSt3__19allocatorIP6WeightE9constructB7v160006IS2_JRS2_EEEvPT_DpOT0_, symObjAddr: 0x16100, symBinAddr: 0x100066190, symSize: 0x20 }
  - { offsetInCU: 0x28F2B, offset: 0x28F2B, size: 0x8, addend: 0x0, symName: __ZNSt3__128__exception_guard_exceptionsINS_29_AllocatorDestroyRangeReverseINS_9allocatorIP6WeightEEPS4_EEED2B7v160006Ev, symObjAddr: 0x16120, symBinAddr: 0x1000661B0, symSize: 0x40 }
  - { offsetInCU: 0x28F54, offset: 0x28F54, size: 0x8, addend: 0x0, symName: __ZNKSt3__129_AllocatorDestroyRangeReverseINS_9allocatorIP6WeightEEPS3_EclB7v160006Ev, symObjAddr: 0x16160, symBinAddr: 0x1000661F0, symSize: 0x60 }
  - { offsetInCU: 0x28F7E, offset: 0x28F7E, size: 0x8, addend: 0x0, symName: __ZNSt3__119__to_address_helperINS_16reverse_iteratorIPP6WeightEEvE6__callB7v160006ERKS5_, symObjAddr: 0x16250, symBinAddr: 0x1000662E0, symSize: 0x40 }
  - { offsetInCU: 0x28FA1, offset: 0x28FA1, size: 0x8, addend: 0x0, symName: __ZNKSt3__116reverse_iteratorIPP6WeightEptB7v160006Ev, symObjAddr: 0x16290, symBinAddr: 0x100066320, symSize: 0x20 }
  - { offsetInCU: 0x28FC6, offset: 0x28FC6, size: 0x8, addend: 0x0, symName: __ZNSt3__128__exception_guard_exceptionsINS_6vectorIP6WeightNS_9allocatorIS3_EEE16__destroy_vectorEED2B7v160006Ev, symObjAddr: 0x162B0, symBinAddr: 0x100066340, symSize: 0x40 }
  - { offsetInCU: 0x28FEE, offset: 0x28FEE, size: 0x8, addend: 0x0, symName: __ZNSt3__16vectorIP6WeightNS_9allocatorIS2_EEE13__move_assignERS5_NS_17integral_constantIbLb1EEE, symObjAddr: 0x162F0, symBinAddr: 0x100066380, symSize: 0xB0 }
  - { offsetInCU: 0x2902E, offset: 0x2902E, size: 0x8, addend: 0x0, symName: __ZNSt3__16vectorIP6WeightNS_9allocatorIS2_EEE13__vdeallocateEv, symObjAddr: 0x163A0, symBinAddr: 0x100066430, symSize: 0x80 }
  - { offsetInCU: 0x29055, offset: 0x29055, size: 0x8, addend: 0x0, symName: __ZNSt3__16vectorIP6WeightNS_9allocatorIS2_EEE19__move_assign_allocB7v160006ERS5_, symObjAddr: 0x16420, symBinAddr: 0x1000664B0, symSize: 0x30 }
  - { offsetInCU: 0x29089, offset: 0x29089, size: 0x8, addend: 0x0, symName: __ZNSt3__16vectorIP6WeightNS_9allocatorIS2_EEE5clearB7v160006Ev, symObjAddr: 0x16460, symBinAddr: 0x1000664F0, symSize: 0x50 }
  - { offsetInCU: 0x290BD, offset: 0x290BD, size: 0x8, addend: 0x0, symName: __ZNKSt3__16vectorIP6WeightNS_9allocatorIS2_EEE17__annotate_shrinkB7v160006Em, symObjAddr: 0x164B0, symBinAddr: 0x100066540, symSize: 0xA0 }
  - { offsetInCU: 0x290F1, offset: 0x290F1, size: 0x8, addend: 0x0, symName: __ZNSt3__16vectorIP6WeightNS_9allocatorIS2_EEE19__move_assign_allocB7v160006ERS5_NS_17integral_constantIbLb1EEE, symObjAddr: 0x16550, symBinAddr: 0x1000665E0, symSize: 0x30 }
  - { offsetInCU: 0x29130, offset: 0x29130, size: 0x8, addend: 0x0, symName: __ZN6Entity25CalculateBoundingTriangleEP7Vector2, symObjAddr: 0x16580, symBinAddr: 0x100066610, symSize: 0x190 }
  - { offsetInCU: 0x2917F, offset: 0x2917F, size: 0x8, addend: 0x0, symName: __ZN6Entity21IsPointInsideTriangleE7Vector2S0_S0_S0_, symObjAddr: 0x16800, symBinAddr: 0x100066890, symSize: 0x130 }
  - { offsetInCU: 0x29214, offset: 0x29214, size: 0x8, addend: 0x0, symName: __ZN6Entity34CheckCircleAndLineSegmentCollisionE7Vector2fS0_S0_, symObjAddr: 0x16930, symBinAddr: 0x1000669C0, symSize: 0x200 }
  - { offsetInCU: 0x2930F, offset: 0x2930F, size: 0x8, addend: 0x0, symName: __Z3cosB7v160006f, symObjAddr: 0x16B30, symBinAddr: 0x100066BC0, symSize: 0x20 }
  - { offsetInCU: 0x2933D, offset: 0x2933D, size: 0x8, addend: 0x0, symName: __Z3sinB7v160006f, symObjAddr: 0x16B50, symBinAddr: 0x100066BE0, symSize: 0x20 }
  - { offsetInCU: 0x2936C, offset: 0x2936C, size: 0x8, addend: 0x0, symName: __ZN6Entity18CheckCollisionWallEP4Wall7Vector2, symObjAddr: 0x16B70, symBinAddr: 0x100066C00, symSize: 0x1C0 }
  - { offsetInCU: 0x293C8, offset: 0x293C8, size: 0x8, addend: 0x0, symName: __ZNSt3__16vectorIP4WallNS_9allocatorIS2_EEEixB7v160006Em, symObjAddr: 0x16D30, symBinAddr: 0x100066DC0, symSize: 0x20 }
  - { offsetInCU: 0x293FE, offset: 0x293FE, size: 0x8, addend: 0x0, symName: __ZNSt3__15tupleIJP4WallfEEaSB7v160006EOS3_, symObjAddr: 0x16D80, symBinAddr: 0x100066E10, symSize: 0x40 }
  - { offsetInCU: 0x29469, offset: 0x29469, size: 0x8, addend: 0x0, symName: __ZNSt3__15tupleIJP4WallfEEaSB7v160006IJDnfELi0EEERS3_ONS0_IJDpT_EEE, symObjAddr: 0x16DF0, symBinAddr: 0x100066E80, symSize: 0x40 }
  - { offsetInCU: 0x294B3, offset: 0x294B3, size: 0x8, addend: 0x0, symName: __ZNSt3__15tupleIJP4FoodfEEaSB7v160006EOS3_, symObjAddr: 0x16E60, symBinAddr: 0x100066EF0, symSize: 0x40 }
  - { offsetInCU: 0x294E7, offset: 0x294E7, size: 0x8, addend: 0x0, symName: __ZNSt3__15tupleIJP4FoodfEEaSB7v160006IJDnfELi0EEERS3_ONS0_IJDpT_EEE, symObjAddr: 0x16EA0, symBinAddr: 0x100066F30, symSize: 0x40 }
  - { offsetInCU: 0x29531, offset: 0x29531, size: 0x8, addend: 0x0, symName: __ZN6Entity20CheckCollisionEntityEPS_7Vector2, symObjAddr: 0x16EE0, symBinAddr: 0x100066F70, symSize: 0xC0 }
  - { offsetInCU: 0x29580, offset: 0x29580, size: 0x8, addend: 0x0, symName: __ZNSt3__15tupleIJP6EntityfEEaSB7v160006EOS3_, symObjAddr: 0x16FD0, symBinAddr: 0x100067060, symSize: 0x40 }
  - { offsetInCU: 0x295B4, offset: 0x295B4, size: 0x8, addend: 0x0, symName: __ZNSt3__15tupleIJP6EntityfEEaSB7v160006IJDnfELi0EEERS3_ONS0_IJDpT_EEE, symObjAddr: 0x17010, symBinAddr: 0x1000670A0, symSize: 0x40 }
  - { offsetInCU: 0x295FE, offset: 0x295FE, size: 0x8, addend: 0x0, symName: __ZN4Wall9GetCoordsEv, symObjAddr: 0x170D0, symBinAddr: 0x100067160, symSize: 0x20 }
  - { offsetInCU: 0x29628, offset: 0x29628, size: 0x8, addend: 0x0, symName: __ZNSt3__15tupleIJP4WallfEEC1B7v160006IJRS2_fELi0EEEDpOT_, symObjAddr: 0x170F0, symBinAddr: 0x100067180, symSize: 0x30 }
  - { offsetInCU: 0x29685, offset: 0x29685, size: 0x8, addend: 0x0, symName: __ZNSt3__15tupleIJP4WallfEEC2B7v160006IJRS2_fELi0EEEDpOT_, symObjAddr: 0x17120, symBinAddr: 0x1000671B0, symSize: 0x30 }
  - { offsetInCU: 0x296E2, offset: 0x296E2, size: 0x8, addend: 0x0, symName: __ZNSt3__112__tuple_implINS_15__tuple_indicesIJLm0ELm1EEEEJP4WallfEEC1B7v160006IJLm0ELm1EEJS4_fEJEJEJRS4_fEEENS1_IJXspT_EEEENS_13__tuple_typesIJDpT0_EEENS1_IJXspT1_EEEENS9_IJDpT2_EEEDpOT3_, symObjAddr: 0x17150, symBinAddr: 0x1000671E0, symSize: 0x30 }
  - { offsetInCU: 0x29791, offset: 0x29791, size: 0x8, addend: 0x0, symName: __ZNSt3__112__tuple_implINS_15__tuple_indicesIJLm0ELm1EEEEJP4WallfEEC2B7v160006IJLm0ELm1EEJS4_fEJEJEJRS4_fEEENS1_IJXspT_EEEENS_13__tuple_typesIJDpT0_EEENS1_IJXspT1_EEEENS9_IJDpT2_EEEDpOT3_, symObjAddr: 0x17180, symBinAddr: 0x100067210, symSize: 0x40 }
  - { offsetInCU: 0x29840, offset: 0x29840, size: 0x8, addend: 0x0, symName: __ZNSt3__112__tuple_leafILm0EP4WallLb0EEC2B7v160006IRS2_vEEOT_, symObjAddr: 0x171C0, symBinAddr: 0x100067250, symSize: 0x20 }
  - { offsetInCU: 0x29882, offset: 0x29882, size: 0x8, addend: 0x0, symName: __ZNSt3__112__tuple_leafILm1EfLb0EEC2B7v160006IfvEEOT_, symObjAddr: 0x171E0, symBinAddr: 0x100067270, symSize: 0x20 }
  - { offsetInCU: 0x298C4, offset: 0x298C4, size: 0x8, addend: 0x0, symName: __ZNSt3__15tupleIJDnfEEC1B7v160006IJDnfELi0EEEDpOT_, symObjAddr: 0x17280, symBinAddr: 0x100067310, symSize: 0x30 }
  - { offsetInCU: 0x29921, offset: 0x29921, size: 0x8, addend: 0x0, symName: __ZNSt3__15tupleIJDnfEEC2B7v160006IJDnfELi0EEEDpOT_, symObjAddr: 0x172B0, symBinAddr: 0x100067340, symSize: 0x30 }
  - { offsetInCU: 0x2997E, offset: 0x2997E, size: 0x8, addend: 0x0, symName: __ZNSt3__112__tuple_implINS_15__tuple_indicesIJLm0ELm1EEEEJDnfEEC1B7v160006IJLm0ELm1EEJDnfEJEJEJDnfEEENS1_IJXspT_EEEENS_13__tuple_typesIJDpT0_EEENS1_IJXspT1_EEEENS6_IJDpT2_EEEDpOT3_, symObjAddr: 0x172E0, symBinAddr: 0x100067370, symSize: 0x30 }
  - { offsetInCU: 0x29A2D, offset: 0x29A2D, size: 0x8, addend: 0x0, symName: __ZNSt3__112__tuple_implINS_15__tuple_indicesIJLm0ELm1EEEEJDnfEEC2B7v160006IJLm0ELm1EEJDnfEJEJEJDnfEEENS1_IJXspT_EEEENS_13__tuple_typesIJDpT0_EEENS1_IJXspT1_EEEENS6_IJDpT2_EEEDpOT3_, symObjAddr: 0x17310, symBinAddr: 0x1000673A0, symSize: 0x40 }
  - { offsetInCU: 0x29ADC, offset: 0x29ADC, size: 0x8, addend: 0x0, symName: __ZNSt3__15tupleIJP4FoodfEEC1B7v160006IJRS2_fELi0EEEDpOT_, symObjAddr: 0x17400, symBinAddr: 0x100067490, symSize: 0x30 }
  - { offsetInCU: 0x29B39, offset: 0x29B39, size: 0x8, addend: 0x0, symName: __ZNSt3__15tupleIJP4FoodfEEC2B7v160006IJRS2_fELi0EEEDpOT_, symObjAddr: 0x17430, symBinAddr: 0x1000674C0, symSize: 0x30 }
  - { offsetInCU: 0x29B96, offset: 0x29B96, size: 0x8, addend: 0x0, symName: __ZNSt3__112__tuple_implINS_15__tuple_indicesIJLm0ELm1EEEEJP4FoodfEEC1B7v160006IJLm0ELm1EEJS4_fEJEJEJRS4_fEEENS1_IJXspT_EEEENS_13__tuple_typesIJDpT0_EEENS1_IJXspT1_EEEENS9_IJDpT2_EEEDpOT3_, symObjAddr: 0x17460, symBinAddr: 0x1000674F0, symSize: 0x30 }
  - { offsetInCU: 0x29C45, offset: 0x29C45, size: 0x8, addend: 0x0, symName: __ZNSt3__112__tuple_implINS_15__tuple_indicesIJLm0ELm1EEEEJP4FoodfEEC2B7v160006IJLm0ELm1EEJS4_fEJEJEJRS4_fEEENS1_IJXspT_EEEENS_13__tuple_typesIJDpT0_EEENS1_IJXspT1_EEEENS9_IJDpT2_EEEDpOT3_, symObjAddr: 0x17490, symBinAddr: 0x100067520, symSize: 0x40 }
  - { offsetInCU: 0x29CF4, offset: 0x29CF4, size: 0x8, addend: 0x0, symName: __ZNSt3__112__tuple_leafILm0EP4FoodLb0EEC2B7v160006IRS2_vEEOT_, symObjAddr: 0x174D0, symBinAddr: 0x100067560, symSize: 0x20 }
  - { offsetInCU: 0x29D36, offset: 0x29D36, size: 0x8, addend: 0x0, symName: __ZN6Entity14FastSquareRootEff, symObjAddr: 0x175E0, symBinAddr: 0x100067670, symSize: 0xC0 }
  - { offsetInCU: 0x29D84, offset: 0x29D84, size: 0x8, addend: 0x0, symName: __Z3absB7v160006d, symObjAddr: 0x176A0, symBinAddr: 0x100067730, symSize: 0x20 }
  - { offsetInCU: 0x29DB1, offset: 0x29DB1, size: 0x8, addend: 0x0, symName: __ZNSt3__15tupleIJP6EntityfEEC1B7v160006IJRS2_fELi0EEEDpOT_, symObjAddr: 0x176C0, symBinAddr: 0x100067750, symSize: 0x30 }
  - { offsetInCU: 0x29E0E, offset: 0x29E0E, size: 0x8, addend: 0x0, symName: __ZNSt3__15tupleIJP6EntityfEEC2B7v160006IJRS2_fELi0EEEDpOT_, symObjAddr: 0x176F0, symBinAddr: 0x100067780, symSize: 0x30 }
  - { offsetInCU: 0x29E6B, offset: 0x29E6B, size: 0x8, addend: 0x0, symName: __ZNSt3__112__tuple_implINS_15__tuple_indicesIJLm0ELm1EEEEJP6EntityfEEC1B7v160006IJLm0ELm1EEJS4_fEJEJEJRS4_fEEENS1_IJXspT_EEEENS_13__tuple_typesIJDpT0_EEENS1_IJXspT1_EEEENS9_IJDpT2_EEEDpOT3_, symObjAddr: 0x17720, symBinAddr: 0x1000677B0, symSize: 0x30 }
  - { offsetInCU: 0x29F1A, offset: 0x29F1A, size: 0x8, addend: 0x0, symName: __ZNSt3__112__tuple_implINS_15__tuple_indicesIJLm0ELm1EEEEJP6EntityfEEC2B7v160006IJLm0ELm1EEJS4_fEJEJEJRS4_fEEENS1_IJXspT_EEEENS_13__tuple_typesIJDpT0_EEENS1_IJXspT1_EEEENS9_IJDpT2_EEEDpOT3_, symObjAddr: 0x17750, symBinAddr: 0x1000677E0, symSize: 0x40 }
  - { offsetInCU: 0x29FC9, offset: 0x29FC9, size: 0x8, addend: 0x0, symName: __ZNSt3__112__tuple_leafILm0EP6EntityLb0EEC2B7v160006IRS2_vEEOT_, symObjAddr: 0x17790, symBinAddr: 0x100067820, symSize: 0x20 }
  - { offsetInCU: 0x2A00B, offset: 0x2A00B, size: 0x8, addend: 0x0, symName: __ZNSt3__16vectorIP6EntityNS_9allocatorIS2_EEEC2ERKS5_, symObjAddr: 0x178A0, symBinAddr: 0x100067930, symSize: 0x110 }
  - { offsetInCU: 0x2A06B, offset: 0x2A06B, size: 0x8, addend: 0x0, symName: __ZNSt3__116allocator_traitsINS_9allocatorIP6EntityEEE37select_on_container_copy_constructionB7v160006IS4_vvEES4_RKS4_, symObjAddr: 0x179B0, symBinAddr: 0x100067A40, symSize: 0x10 }
  - { offsetInCU: 0x2A09F, offset: 0x2A09F, size: 0x8, addend: 0x0, symName: __ZNSt3__117__compressed_pairIPP6EntityNS_9allocatorIS2_EEEC1B7v160006IDnS5_EEOT_OT0_, symObjAddr: 0x179C0, symBinAddr: 0x100067A50, symSize: 0x30 }
  - { offsetInCU: 0x2A0F6, offset: 0x2A0F6, size: 0x8, addend: 0x0, symName: __ZNSt3__16vectorIP6EntityNS_9allocatorIS2_EEE16__destroy_vectorC1ERS5_, symObjAddr: 0x17A30, symBinAddr: 0x100067AC0, symSize: 0x30 }
  - { offsetInCU: 0x2A12E, offset: 0x2A12E, size: 0x8, addend: 0x0, symName: __ZNSt3__16vectorIP6EntityNS_9allocatorIS2_EEE11__vallocateB7v160006Em, symObjAddr: 0x17A60, symBinAddr: 0x100067AF0, symSize: 0xA0 }
  - { offsetInCU: 0x2A170, offset: 0x2A170, size: 0x8, addend: 0x0, symName: __ZNSt3__16vectorIP6EntityNS_9allocatorIS2_EEE18__construct_at_endIPS2_Li0EEEvT_S8_m, symObjAddr: 0x17B00, symBinAddr: 0x100067B90, symSize: 0x90 }
  - { offsetInCU: 0x2A1E2, offset: 0x2A1E2, size: 0x8, addend: 0x0, symName: __ZNSt3__128__exception_guard_exceptionsINS_6vectorIP6EntityNS_9allocatorIS3_EEE16__destroy_vectorEE10__completeB7v160006Ev, symObjAddr: 0x17B90, symBinAddr: 0x100067C20, symSize: 0x20 }
  - { offsetInCU: 0x2A207, offset: 0x2A207, size: 0x8, addend: 0x0, symName: __ZNSt3__128__exception_guard_exceptionsINS_6vectorIP6EntityNS_9allocatorIS3_EEE16__destroy_vectorEED1B7v160006Ev, symObjAddr: 0x17BB0, symBinAddr: 0x100067C40, symSize: 0x20 }
  - { offsetInCU: 0x2A230, offset: 0x2A230, size: 0x8, addend: 0x0, symName: __ZNSt3__117__compressed_pairIPP6EntityNS_9allocatorIS2_EEEC2B7v160006IDnS5_EEOT_OT0_, symObjAddr: 0x17BD0, symBinAddr: 0x100067C60, symSize: 0x40 }
  - { offsetInCU: 0x2A287, offset: 0x2A287, size: 0x8, addend: 0x0, symName: __ZNSt3__122__compressed_pair_elemINS_9allocatorIP6EntityEELi1ELb1EEC2B7v160006IS4_vEEOT_, symObjAddr: 0x17C10, symBinAddr: 0x100067CA0, symSize: 0x10 }
  - { offsetInCU: 0x2A2C8, offset: 0x2A2C8, size: 0x8, addend: 0x0, symName: __ZNSt3__128__exception_guard_exceptionsINS_6vectorIP6EntityNS_9allocatorIS3_EEE16__destroy_vectorEEC1B7v160006ES7_, symObjAddr: 0x17C20, symBinAddr: 0x100067CB0, symSize: 0x30 }
  - { offsetInCU: 0x2A2FF, offset: 0x2A2FF, size: 0x8, addend: 0x0, symName: __ZNSt3__128__exception_guard_exceptionsINS_6vectorIP6EntityNS_9allocatorIS3_EEE16__destroy_vectorEEC2B7v160006ES7_, symObjAddr: 0x17C50, symBinAddr: 0x100067CE0, symSize: 0x20 }
  - { offsetInCU: 0x2A336, offset: 0x2A336, size: 0x8, addend: 0x0, symName: __ZNSt3__16vectorIP6EntityNS_9allocatorIS2_EEE16__destroy_vectorC2ERS5_, symObjAddr: 0x17C70, symBinAddr: 0x100067D00, symSize: 0x20 }
  - { offsetInCU: 0x2A36E, offset: 0x2A36E, size: 0x8, addend: 0x0, symName: __ZNSt3__128__exception_guard_exceptionsINS_6vectorIP6EntityNS_9allocatorIS3_EEE16__destroy_vectorEED2B7v160006Ev, symObjAddr: 0x17D90, symBinAddr: 0x100067E20, symSize: 0x40 }
  - { offsetInCU: 0x2A397, offset: 0x2A397, size: 0x8, addend: 0x0, symName: __ZNSt3__16vectorIP6EntityNS_9allocatorIS2_EEE16__destroy_vectorclB7v160006Ev, symObjAddr: 0x17DD0, symBinAddr: 0x100067E60, symSize: 0x90 }
  - { offsetInCU: 0x2A3BC, offset: 0x2A3BC, size: 0x8, addend: 0x0, symName: __ZNSt3__16vectorIP6EntityNS_9allocatorIS2_EEE7__clearB7v160006Ev, symObjAddr: 0x17E70, symBinAddr: 0x100067F00, symSize: 0x20 }
  - { offsetInCU: 0x2A3E1, offset: 0x2A3E1, size: 0x8, addend: 0x0, symName: __ZNSt3__16vectorIP6EntityNS_9allocatorIS2_EEE22__base_destruct_at_endB7v160006EPS2_, symObjAddr: 0x17E90, symBinAddr: 0x100067F20, symSize: 0x80 }
  - { offsetInCU: 0x2A424, offset: 0x2A424, size: 0x8, addend: 0x0, symName: __ZNSt3__16vectorIfNS_9allocatorIfEEEC1B7v160006Ev, symObjAddr: 0x17F10, symBinAddr: 0x100067FA0, symSize: 0x20 }
  - { offsetInCU: 0x2A44C, offset: 0x2A44C, size: 0x8, addend: 0x0, symName: __ZNSt3__16vectorIfNS_9allocatorIfEEE9push_backB7v160006ERKf, symObjAddr: 0x17F30, symBinAddr: 0x100067FC0, symSize: 0x60 }
  - { offsetInCU: 0x2A481, offset: 0x2A481, size: 0x8, addend: 0x0, symName: __ZNSt3__16vectorIfNS_9allocatorIfEEE9push_backB7v160006EOf, symObjAddr: 0x17F90, symBinAddr: 0x100068020, symSize: 0x60 }
  - { offsetInCU: 0x2A4B7, offset: 0x2A4B7, size: 0x8, addend: 0x0, symName: __ZN6Entity16ReturnWallorFoodENSt3__15tupleIJP4WallfEEENS1_IJP4FoodfEEE, symObjAddr: 0x17FF0, symBinAddr: 0x100068080, symSize: 0x70 }
  - { offsetInCU: 0x2A4F8, offset: 0x2A4F8, size: 0x8, addend: 0x0, symName: __ZN13NeuralNetwork18ComputeOutputLayerENSt3__16vectorIfNS0_9allocatorIfEEEE, symObjAddr: 0x18060, symBinAddr: 0x1000680F0, symSize: 0x130 }
  - { offsetInCU: 0x2A59C, offset: 0x2A59C, size: 0x8, addend: 0x0, symName: __ZNSt3__16vectorIfNS_9allocatorIfEEEC1ERKS3_, symObjAddr: 0x18190, symBinAddr: 0x100068220, symSize: 0x30 }
  - { offsetInCU: 0x2A5D6, offset: 0x2A5D6, size: 0x8, addend: 0x0, symName: __ZNSt3__16vectorIfNS_9allocatorIfEEED1B7v160006Ev, symObjAddr: 0x181C0, symBinAddr: 0x100068250, symSize: 0x20 }
  - { offsetInCU: 0x2A5FE, offset: 0x2A5FE, size: 0x8, addend: 0x0, symName: __Z5roundB7v160006f, symObjAddr: 0x181E0, symBinAddr: 0x100068270, symSize: 0x40 }
  - { offsetInCU: 0x2A62D, offset: 0x2A62D, size: 0x8, addend: 0x0, symName: __ZN13NeuralNetwork12returnOutputEv, symObjAddr: 0x18220, symBinAddr: 0x1000682B0, symSize: 0x30 }
  - { offsetInCU: 0x2A652, offset: 0x2A652, size: 0x8, addend: 0x0, symName: __ZN6Neuron8getValueEv, symObjAddr: 0x18250, symBinAddr: 0x1000682E0, symSize: 0x20 }
  - { offsetInCU: 0x2A677, offset: 0x2A677, size: 0x8, addend: 0x0, symName: __ZNSt3__16vectorIfNS_9allocatorIfEEEC2B7v160006Ev, symObjAddr: 0x18270, symBinAddr: 0x100068300, symSize: 0x60 }
  - { offsetInCU: 0x2A6A0, offset: 0x2A6A0, size: 0x8, addend: 0x0, symName: __ZNSt3__117__compressed_pairIPfNS_9allocatorIfEEEC1B7v160006IDnNS_18__default_init_tagEEEOT_OT0_, symObjAddr: 0x182D0, symBinAddr: 0x100068360, symSize: 0x30 }
  - { offsetInCU: 0x2A6F7, offset: 0x2A6F7, size: 0x8, addend: 0x0, symName: __ZNSt3__117__compressed_pairIPfNS_9allocatorIfEEEC2B7v160006IDnNS_18__default_init_tagEEEOT_OT0_, symObjAddr: 0x18310, symBinAddr: 0x1000683A0, symSize: 0x40 }
  - { offsetInCU: 0x2A74E, offset: 0x2A74E, size: 0x8, addend: 0x0, symName: __ZNSt3__122__compressed_pair_elemIPfLi0ELb0EEC2B7v160006IDnvEEOT_, symObjAddr: 0x18350, symBinAddr: 0x1000683E0, symSize: 0x20 }
  - { offsetInCU: 0x2A78F, offset: 0x2A78F, size: 0x8, addend: 0x0, symName: __ZNSt3__122__compressed_pair_elemINS_9allocatorIfEELi1ELb1EEC2B7v160006ENS_18__default_init_tagE, symObjAddr: 0x18370, symBinAddr: 0x100068400, symSize: 0x20 }
  - { offsetInCU: 0x2A7C2, offset: 0x2A7C2, size: 0x8, addend: 0x0, symName: __ZNSt3__19allocatorIfEC2B7v160006Ev, symObjAddr: 0x18390, symBinAddr: 0x100068420, symSize: 0x20 }
  - { offsetInCU: 0x2A7EB, offset: 0x2A7EB, size: 0x8, addend: 0x0, symName: __ZNSt3__116__non_trivial_ifILb1ENS_9allocatorIfEEEC2B7v160006Ev, symObjAddr: 0x183B0, symBinAddr: 0x100068440, symSize: 0x10 }
  - { offsetInCU: 0x2A814, offset: 0x2A814, size: 0x8, addend: 0x0, symName: __ZNSt3__16vectorIfNS_9allocatorIfEEE9__end_capB7v160006Ev, symObjAddr: 0x183C0, symBinAddr: 0x100068450, symSize: 0x20 }
  - { offsetInCU: 0x2A839, offset: 0x2A839, size: 0x8, addend: 0x0, symName: __ZNSt3__16vectorIfNS_9allocatorIfEEE22__construct_one_at_endB7v160006IJRKfEEEvDpOT_, symObjAddr: 0x183E0, symBinAddr: 0x100068470, symSize: 0x90 }
  - { offsetInCU: 0x2A886, offset: 0x2A886, size: 0x8, addend: 0x0, symName: __ZNSt3__16vectorIfNS_9allocatorIfEEE21__push_back_slow_pathIRKfEEvOT_, symObjAddr: 0x18470, symBinAddr: 0x100068500, symSize: 0xD0 }
  - { offsetInCU: 0x2A8E3, offset: 0x2A8E3, size: 0x8, addend: 0x0, symName: __ZNSt3__117__compressed_pairIPfNS_9allocatorIfEEE5firstB7v160006Ev, symObjAddr: 0x18540, symBinAddr: 0x1000685D0, symSize: 0x20 }
  - { offsetInCU: 0x2A908, offset: 0x2A908, size: 0x8, addend: 0x0, symName: __ZNSt3__122__compressed_pair_elemIPfLi0ELb0EE5__getB7v160006Ev, symObjAddr: 0x18560, symBinAddr: 0x1000685F0, symSize: 0x10 }
  - { offsetInCU: 0x2A946, offset: 0x2A946, size: 0x8, addend: 0x0, symName: __ZNSt3__16vectorIfNS_9allocatorIfEEE21_ConstructTransactionC1B7v160006ERS3_m, symObjAddr: 0x18570, symBinAddr: 0x100068600, symSize: 0x30 }
  - { offsetInCU: 0x2A98D, offset: 0x2A98D, size: 0x8, addend: 0x0, symName: __ZNSt3__116allocator_traitsINS_9allocatorIfEEE9constructB7v160006IfJRKfEvEEvRS2_PT_DpOT0_, symObjAddr: 0x185A0, symBinAddr: 0x100068630, symSize: 0x30 }
  - { offsetInCU: 0x2A9E4, offset: 0x2A9E4, size: 0x8, addend: 0x0, symName: __ZNSt3__16vectorIfNS_9allocatorIfEEE7__allocB7v160006Ev, symObjAddr: 0x185D0, symBinAddr: 0x100068660, symSize: 0x20 }
  - { offsetInCU: 0x2AA09, offset: 0x2AA09, size: 0x8, addend: 0x0, symName: __ZNSt3__16vectorIfNS_9allocatorIfEEE21_ConstructTransactionD1B7v160006Ev, symObjAddr: 0x18600, symBinAddr: 0x100068690, symSize: 0x20 }
  - { offsetInCU: 0x2AA32, offset: 0x2AA32, size: 0x8, addend: 0x0, symName: __ZNSt3__16vectorIfNS_9allocatorIfEEE21_ConstructTransactionC2B7v160006ERS3_m, symObjAddr: 0x18620, symBinAddr: 0x1000686B0, symSize: 0x40 }
  - { offsetInCU: 0x2AA79, offset: 0x2AA79, size: 0x8, addend: 0x0, symName: __ZNSt3__19allocatorIfE9constructB7v160006IfJRKfEEEvPT_DpOT0_, symObjAddr: 0x18660, symBinAddr: 0x1000686F0, symSize: 0x30 }
  - { offsetInCU: 0x2AACE, offset: 0x2AACE, size: 0x8, addend: 0x0, symName: __ZNSt3__117__compressed_pairIPfNS_9allocatorIfEEE6secondB7v160006Ev, symObjAddr: 0x18690, symBinAddr: 0x100068720, symSize: 0x20 }
  - { offsetInCU: 0x2AAF3, offset: 0x2AAF3, size: 0x8, addend: 0x0, symName: __ZNSt3__122__compressed_pair_elemINS_9allocatorIfEELi1ELb1EE5__getB7v160006Ev, symObjAddr: 0x186B0, symBinAddr: 0x100068740, symSize: 0x10 }
  - { offsetInCU: 0x2AB18, offset: 0x2AB18, size: 0x8, addend: 0x0, symName: __ZNSt3__16vectorIfNS_9allocatorIfEEE21_ConstructTransactionD2B7v160006Ev, symObjAddr: 0x186C0, symBinAddr: 0x100068750, symSize: 0x20 }
  - { offsetInCU: 0x2AB40, offset: 0x2AB40, size: 0x8, addend: 0x0, symName: __ZNKSt3__16vectorIfNS_9allocatorIfEEE11__recommendB7v160006Em, symObjAddr: 0x186E0, symBinAddr: 0x100068770, symSize: 0xA0 }
  - { offsetInCU: 0x2AB94, offset: 0x2AB94, size: 0x8, addend: 0x0, symName: __ZNKSt3__16vectorIfNS_9allocatorIfEEE4sizeB7v160006Ev, symObjAddr: 0x18780, symBinAddr: 0x100068810, symSize: 0x20 }
  - { offsetInCU: 0x2ABB9, offset: 0x2ABB9, size: 0x8, addend: 0x0, symName: __ZNSt3__114__split_bufferIfRNS_9allocatorIfEEEC1EmmS3_, symObjAddr: 0x187A0, symBinAddr: 0x100068830, symSize: 0x40 }
  - { offsetInCU: 0x2AC0E, offset: 0x2AC0E, size: 0x8, addend: 0x0, symName: __ZNSt3__114__split_bufferIfRNS_9allocatorIfEEED1Ev, symObjAddr: 0x18910, symBinAddr: 0x1000689A0, symSize: 0x20 }
  - { offsetInCU: 0x2AC38, offset: 0x2AC38, size: 0x8, addend: 0x0, symName: __ZNKSt3__16vectorIfNS_9allocatorIfEEE8max_sizeEv, symObjAddr: 0x18930, symBinAddr: 0x1000689C0, symSize: 0x60 }
  - { offsetInCU: 0x2AC5F, offset: 0x2AC5F, size: 0x8, addend: 0x0, symName: __ZNKSt3__16vectorIfNS_9allocatorIfEEE20__throw_length_errorB7v160006Ev, symObjAddr: 0x18990, symBinAddr: 0x100068A20, symSize: 0x20 }
  - { offsetInCU: 0x2AC84, offset: 0x2AC84, size: 0x8, addend: 0x0, symName: __ZNKSt3__16vectorIfNS_9allocatorIfEEE8capacityB7v160006Ev, symObjAddr: 0x189B0, symBinAddr: 0x100068A40, symSize: 0x30 }
  - { offsetInCU: 0x2ACB3, offset: 0x2ACB3, size: 0x8, addend: 0x0, symName: __ZNSt3__116allocator_traitsINS_9allocatorIfEEE8max_sizeB7v160006IS2_vEEmRKS2_, symObjAddr: 0x189E0, symBinAddr: 0x100068A70, symSize: 0x20 }
  - { offsetInCU: 0x2ACE1, offset: 0x2ACE1, size: 0x8, addend: 0x0, symName: __ZNKSt3__16vectorIfNS_9allocatorIfEEE7__allocB7v160006Ev, symObjAddr: 0x18A00, symBinAddr: 0x100068A90, symSize: 0x20 }
  - { offsetInCU: 0x2AD06, offset: 0x2AD06, size: 0x8, addend: 0x0, symName: __ZNKSt3__19allocatorIfE8max_sizeB7v160006Ev, symObjAddr: 0x18A20, symBinAddr: 0x100068AB0, symSize: 0x20 }
  - { offsetInCU: 0x2AD2B, offset: 0x2AD2B, size: 0x8, addend: 0x0, symName: __ZNKSt3__117__compressed_pairIPfNS_9allocatorIfEEE6secondB7v160006Ev, symObjAddr: 0x18A40, symBinAddr: 0x100068AD0, symSize: 0x20 }
  - { offsetInCU: 0x2AD50, offset: 0x2AD50, size: 0x8, addend: 0x0, symName: __ZNKSt3__122__compressed_pair_elemINS_9allocatorIfEELi1ELb1EE5__getB7v160006Ev, symObjAddr: 0x18A60, symBinAddr: 0x100068AF0, symSize: 0x10 }
  - { offsetInCU: 0x2AD75, offset: 0x2AD75, size: 0x8, addend: 0x0, symName: __ZNKSt3__16vectorIfNS_9allocatorIfEEE9__end_capB7v160006Ev, symObjAddr: 0x18A70, symBinAddr: 0x100068B00, symSize: 0x20 }
  - { offsetInCU: 0x2AD9A, offset: 0x2AD9A, size: 0x8, addend: 0x0, symName: __ZNKSt3__117__compressed_pairIPfNS_9allocatorIfEEE5firstB7v160006Ev, symObjAddr: 0x18A90, symBinAddr: 0x100068B20, symSize: 0x20 }
  - { offsetInCU: 0x2ADBF, offset: 0x2ADBF, size: 0x8, addend: 0x0, symName: __ZNKSt3__122__compressed_pair_elemIPfLi0ELb0EE5__getB7v160006Ev, symObjAddr: 0x18AB0, symBinAddr: 0x100068B40, symSize: 0x10 }
  - { offsetInCU: 0x2ADE4, offset: 0x2ADE4, size: 0x8, addend: 0x0, symName: __ZNSt3__114__split_bufferIfRNS_9allocatorIfEEEC2EmmS3_, symObjAddr: 0x18AC0, symBinAddr: 0x100068B50, symSize: 0xD0 }
  - { offsetInCU: 0x2AE56, offset: 0x2AE56, size: 0x8, addend: 0x0, symName: __ZNSt3__117__compressed_pairIPfRNS_9allocatorIfEEEC1B7v160006IDnS4_EEOT_OT0_, symObjAddr: 0x18B90, symBinAddr: 0x100068C20, symSize: 0x30 }
  - { offsetInCU: 0x2AEAD, offset: 0x2AEAD, size: 0x8, addend: 0x0, symName: __ZNSt3__114__split_bufferIfRNS_9allocatorIfEEE7__allocB7v160006Ev, symObjAddr: 0x18C00, symBinAddr: 0x100068C90, symSize: 0x20 }
  - { offsetInCU: 0x2AED2, offset: 0x2AED2, size: 0x8, addend: 0x0, symName: __ZNSt3__114__split_bufferIfRNS_9allocatorIfEEE9__end_capB7v160006Ev, symObjAddr: 0x18C20, symBinAddr: 0x100068CB0, symSize: 0x20 }
  - { offsetInCU: 0x2AEF7, offset: 0x2AEF7, size: 0x8, addend: 0x0, symName: __ZNSt3__117__compressed_pairIPfRNS_9allocatorIfEEEC2B7v160006IDnS4_EEOT_OT0_, symObjAddr: 0x18C40, symBinAddr: 0x100068CD0, symSize: 0x40 }
  - { offsetInCU: 0x2AF4E, offset: 0x2AF4E, size: 0x8, addend: 0x0, symName: __ZNSt3__122__compressed_pair_elemIRNS_9allocatorIfEELi1ELb0EEC2B7v160006IS3_vEEOT_, symObjAddr: 0x18C80, symBinAddr: 0x100068D10, symSize: 0x20 }
  - { offsetInCU: 0x2AF8F, offset: 0x2AF8F, size: 0x8, addend: 0x0, symName: __ZNSt3__19allocatorIfE8allocateB7v160006Em, symObjAddr: 0x18CA0, symBinAddr: 0x100068D30, symSize: 0x50 }
  - { offsetInCU: 0x2AFC2, offset: 0x2AFC2, size: 0x8, addend: 0x0, symName: __ZNSt3__117__compressed_pairIPfRNS_9allocatorIfEEE6secondB7v160006Ev, symObjAddr: 0x18CF0, symBinAddr: 0x100068D80, symSize: 0x20 }
  - { offsetInCU: 0x2AFE7, offset: 0x2AFE7, size: 0x8, addend: 0x0, symName: __ZNSt3__122__compressed_pair_elemIRNS_9allocatorIfEELi1ELb0EE5__getB7v160006Ev, symObjAddr: 0x18D10, symBinAddr: 0x100068DA0, symSize: 0x20 }
  - { offsetInCU: 0x2B00C, offset: 0x2B00C, size: 0x8, addend: 0x0, symName: __ZNSt3__117__compressed_pairIPfRNS_9allocatorIfEEE5firstB7v160006Ev, symObjAddr: 0x18D30, symBinAddr: 0x100068DC0, symSize: 0x20 }
  - { offsetInCU: 0x2B031, offset: 0x2B031, size: 0x8, addend: 0x0, symName: __ZNKSt3__16vectorIfNS_9allocatorIfEEE17__annotate_deleteB7v160006Ev, symObjAddr: 0x18D50, symBinAddr: 0x100068DE0, symSize: 0xB0 }
  - { offsetInCU: 0x2B056, offset: 0x2B056, size: 0x8, addend: 0x0, symName: __ZNSt3__116reverse_iteratorIPfEC1B7v160006ES1_, symObjAddr: 0x18E70, symBinAddr: 0x100068F00, symSize: 0x30 }
  - { offsetInCU: 0x2B08D, offset: 0x2B08D, size: 0x8, addend: 0x0, symName: __ZNKSt3__116reverse_iteratorIPfE4baseB7v160006Ev, symObjAddr: 0x18EA0, symBinAddr: 0x100068F30, symSize: 0x20 }
  - { offsetInCU: 0x2B0B2, offset: 0x2B0B2, size: 0x8, addend: 0x0, symName: __ZNKSt3__16vectorIfNS_9allocatorIfEEE14__annotate_newB7v160006Em, symObjAddr: 0x18F00, symBinAddr: 0x100068F90, symSize: 0xB0 }
  - { offsetInCU: 0x2B0E6, offset: 0x2B0E6, size: 0x8, addend: 0x0, symName: __ZNKSt3__16vectorIfNS_9allocatorIfEEE31__annotate_contiguous_containerB7v160006EPKvS5_S5_S5_, symObjAddr: 0x18FC0, symBinAddr: 0x100069050, symSize: 0x20 }
  - { offsetInCU: 0x2B137, offset: 0x2B137, size: 0x8, addend: 0x0, symName: __ZNKSt3__16vectorIfNS_9allocatorIfEEE4dataB7v160006Ev, symObjAddr: 0x18FE0, symBinAddr: 0x100069070, symSize: 0x20 }
  - { offsetInCU: 0x2B175, offset: 0x2B175, size: 0x8, addend: 0x0, symName: __ZNKSt3__111__move_loopINS_17_ClassicAlgPolicyEEclB7v160006INS_16reverse_iteratorIPfEES6_S6_EENS_4pairIT_T1_EES8_T0_S9_, symObjAddr: 0x19440, symBinAddr: 0x1000694D0, symSize: 0xA0 }
  - { offsetInCU: 0x2B1DF, offset: 0x2B1DF, size: 0x8, addend: 0x0, symName: __ZNSt3__18_IterOpsINS_17_ClassicAlgPolicyEE11__iter_moveB7v160006IRNS_16reverse_iteratorIPfEEEENS_9enable_ifIXsr12is_referenceIDTdeclsr3stdE7declvalIRT_EEEEE5valueEDTclsr3stdE4movedeclsr3stdE7declvalISA_EEEEE4typeEOS9_, symObjAddr: 0x19660, symBinAddr: 0x1000696F0, symSize: 0x20 }
  - { offsetInCU: 0x2B20B, offset: 0x2B20B, size: 0x8, addend: 0x0, symName: __ZNKSt3__116reverse_iteratorIPfEdeB7v160006Ev, symObjAddr: 0x19680, symBinAddr: 0x100069710, symSize: 0x30 }
  - { offsetInCU: 0x2B23E, offset: 0x2B23E, size: 0x8, addend: 0x0, symName: __ZNSt3__116reverse_iteratorIPfEppB7v160006Ev, symObjAddr: 0x196B0, symBinAddr: 0x100069740, symSize: 0x20 }
  - { offsetInCU: 0x2B263, offset: 0x2B263, size: 0x8, addend: 0x0, symName: __ZNSt3__18_IterOpsINS_17_ClassicAlgPolicyEE25__validate_iter_referenceB7v160006IRNS_16reverse_iteratorIPfEEEEvv, symObjAddr: 0x196D0, symBinAddr: 0x100069760, symSize: 0x10 }
  - { offsetInCU: 0x2B281, offset: 0x2B281, size: 0x8, addend: 0x0, symName: __ZNSt3__118__unwrap_iter_implINS_16reverse_iteratorIPfEELb0EE8__unwrapB7v160006ES3_, symObjAddr: 0x196E0, symBinAddr: 0x100069770, symSize: 0x20 }
  - { offsetInCU: 0x2B2A9, offset: 0x2B2A9, size: 0x8, addend: 0x0, symName: __ZNSt3__14pairINS_16reverse_iteratorIPfEES3_EC1B7v160006IS3_S3_LPv0EEEOT_OT0_, symObjAddr: 0x19700, symBinAddr: 0x100069790, symSize: 0x30 }
  - { offsetInCU: 0x2B306, offset: 0x2B306, size: 0x8, addend: 0x0, symName: __ZNSt3__14pairINS_16reverse_iteratorIPfEES3_EC2B7v160006IS3_S3_LPv0EEEOT_OT0_, symObjAddr: 0x19730, symBinAddr: 0x1000697C0, symSize: 0x40 }
  - { offsetInCU: 0x2B363, offset: 0x2B363, size: 0x8, addend: 0x0, symName: __ZNSt3__118__unwrap_iter_implINS_16reverse_iteratorIPfEELb0EE8__rewrapB7v160006ES3_S3_, symObjAddr: 0x19770, symBinAddr: 0x100069800, symSize: 0x30 }
  - { offsetInCU: 0x2B390, offset: 0x2B390, size: 0x8, addend: 0x0, symName: __ZNSt3__116reverse_iteratorIPfEC2B7v160006ES1_, symObjAddr: 0x197A0, symBinAddr: 0x100069830, symSize: 0x30 }
  - { offsetInCU: 0x2B3C7, offset: 0x2B3C7, size: 0x8, addend: 0x0, symName: __ZNSt3__114__split_bufferIfRNS_9allocatorIfEEED2Ev, symObjAddr: 0x197D0, symBinAddr: 0x100069860, symSize: 0x70 }
  - { offsetInCU: 0x2B3F2, offset: 0x2B3F2, size: 0x8, addend: 0x0, symName: __ZNSt3__114__split_bufferIfRNS_9allocatorIfEEE5clearB7v160006Ev, symObjAddr: 0x19840, symBinAddr: 0x1000698D0, symSize: 0x20 }
  - { offsetInCU: 0x2B417, offset: 0x2B417, size: 0x8, addend: 0x0, symName: __ZNSt3__116allocator_traitsINS_9allocatorIfEEE10deallocateB7v160006ERS2_Pfm, symObjAddr: 0x19860, symBinAddr: 0x1000698F0, symSize: 0x30 }
  - { offsetInCU: 0x2B459, offset: 0x2B459, size: 0x8, addend: 0x0, symName: __ZNKSt3__114__split_bufferIfRNS_9allocatorIfEEE8capacityB7v160006Ev, symObjAddr: 0x19890, symBinAddr: 0x100069920, symSize: 0x30 }
  - { offsetInCU: 0x2B47E, offset: 0x2B47E, size: 0x8, addend: 0x0, symName: __ZNSt3__114__split_bufferIfRNS_9allocatorIfEEE17__destruct_at_endB7v160006EPf, symObjAddr: 0x198C0, symBinAddr: 0x100069950, symSize: 0x30 }
  - { offsetInCU: 0x2B4B0, offset: 0x2B4B0, size: 0x8, addend: 0x0, symName: __ZNSt3__114__split_bufferIfRNS_9allocatorIfEEE17__destruct_at_endB7v160006EPfNS_17integral_constantIbLb0EEE, symObjAddr: 0x198F0, symBinAddr: 0x100069980, symSize: 0x80 }
  - { offsetInCU: 0x2B4EF, offset: 0x2B4EF, size: 0x8, addend: 0x0, symName: __ZNSt3__116allocator_traitsINS_9allocatorIfEEE7destroyB7v160006IfvEEvRS2_PT_, symObjAddr: 0x19970, symBinAddr: 0x100069A00, symSize: 0x30 }
  - { offsetInCU: 0x2B52C, offset: 0x2B52C, size: 0x8, addend: 0x0, symName: __ZNSt3__19allocatorIfE7destroyB7v160006EPf, symObjAddr: 0x199A0, symBinAddr: 0x100069A30, symSize: 0x10 }
  - { offsetInCU: 0x2B55F, offset: 0x2B55F, size: 0x8, addend: 0x0, symName: __ZNSt3__19allocatorIfE10deallocateB7v160006EPfm, symObjAddr: 0x199B0, symBinAddr: 0x100069A40, symSize: 0x40 }
  - { offsetInCU: 0x2B5A0, offset: 0x2B5A0, size: 0x8, addend: 0x0, symName: __ZNKSt3__114__split_bufferIfRNS_9allocatorIfEEE9__end_capB7v160006Ev, symObjAddr: 0x199F0, symBinAddr: 0x100069A80, symSize: 0x20 }
  - { offsetInCU: 0x2B5C5, offset: 0x2B5C5, size: 0x8, addend: 0x0, symName: __ZNKSt3__117__compressed_pairIPfRNS_9allocatorIfEEE5firstB7v160006Ev, symObjAddr: 0x19A10, symBinAddr: 0x100069AA0, symSize: 0x20 }
  - { offsetInCU: 0x2B5EA, offset: 0x2B5EA, size: 0x8, addend: 0x0, symName: __ZNSt3__16vectorIfNS_9allocatorIfEEE22__construct_one_at_endB7v160006IJfEEEvDpOT_, symObjAddr: 0x19A30, symBinAddr: 0x100069AC0, symSize: 0x90 }
  - { offsetInCU: 0x2B637, offset: 0x2B637, size: 0x8, addend: 0x0, symName: __ZNSt3__16vectorIfNS_9allocatorIfEEE21__push_back_slow_pathIfEEvOT_, symObjAddr: 0x19AC0, symBinAddr: 0x100069B50, symSize: 0xD0 }
  - { offsetInCU: 0x2B694, offset: 0x2B694, size: 0x8, addend: 0x0, symName: __ZNSt3__116allocator_traitsINS_9allocatorIfEEE9constructB7v160006IfJfEvEEvRS2_PT_DpOT0_, symObjAddr: 0x19B90, symBinAddr: 0x100069C20, symSize: 0x30 }
  - { offsetInCU: 0x2B6EB, offset: 0x2B6EB, size: 0x8, addend: 0x0, symName: __ZNSt3__19allocatorIfE9constructB7v160006IfJfEEEvPT_DpOT0_, symObjAddr: 0x19BC0, symBinAddr: 0x100069C50, symSize: 0x30 }
  - { offsetInCU: 0x2B740, offset: 0x2B740, size: 0x8, addend: 0x0, symName: __ZN6Neuron8setValueEf, symObjAddr: 0x19BF0, symBinAddr: 0x100069C80, symSize: 0x20 }
  - { offsetInCU: 0x2B772, offset: 0x2B772, size: 0x8, addend: 0x0, symName: __ZNSt3__16vectorIfNS_9allocatorIfEEEixB7v160006Em, symObjAddr: 0x19C10, symBinAddr: 0x100069CA0, symSize: 0x20 }
  - { offsetInCU: 0x2B7A8, offset: 0x2B7A8, size: 0x8, addend: 0x0, symName: __ZN6Neuron12computeValueEv, symObjAddr: 0x19C30, symBinAddr: 0x100069CC0, symSize: 0x100 }
  - { offsetInCU: 0x2B7F6, offset: 0x2B7F6, size: 0x8, addend: 0x0, symName: __ZNSt3__16vectorIP6WeightNS_9allocatorIS2_EEEixB7v160006Em, symObjAddr: 0x19D30, symBinAddr: 0x100069DC0, symSize: 0x20 }
  - { offsetInCU: 0x2B82C, offset: 0x2B82C, size: 0x8, addend: 0x0, symName: __ZN6Weight9getWeightEv, symObjAddr: 0x19D50, symBinAddr: 0x100069DE0, symSize: 0x20 }
  - { offsetInCU: 0x2B851, offset: 0x2B851, size: 0x8, addend: 0x0, symName: __ZN6Weight15getConnectionInEv, symObjAddr: 0x19D70, symBinAddr: 0x100069E00, symSize: 0x20 }
  - { offsetInCU: 0x2B875, offset: 0x2B875, size: 0x8, addend: 0x0, symName: __Z3expB7v160006f, symObjAddr: 0x19D90, symBinAddr: 0x100069E20, symSize: 0x20 }
  - { offsetInCU: 0x2B8A4, offset: 0x2B8A4, size: 0x8, addend: 0x0, symName: __ZNSt3__16vectorIfNS_9allocatorIfEEEC2ERKS3_, symObjAddr: 0x19DB0, symBinAddr: 0x100069E40, symSize: 0x110 }
  - { offsetInCU: 0x2B904, offset: 0x2B904, size: 0x8, addend: 0x0, symName: __ZNSt3__116allocator_traitsINS_9allocatorIfEEE37select_on_container_copy_constructionB7v160006IS2_vvEES2_RKS2_, symObjAddr: 0x19EC0, symBinAddr: 0x100069F50, symSize: 0x10 }
  - { offsetInCU: 0x2B938, offset: 0x2B938, size: 0x8, addend: 0x0, symName: __ZNSt3__117__compressed_pairIPfNS_9allocatorIfEEEC1B7v160006IDnS3_EEOT_OT0_, symObjAddr: 0x19ED0, symBinAddr: 0x100069F60, symSize: 0x30 }
  - { offsetInCU: 0x2B98F, offset: 0x2B98F, size: 0x8, addend: 0x0, symName: __ZNSt3__16vectorIfNS_9allocatorIfEEE16__destroy_vectorC1ERS3_, symObjAddr: 0x19F40, symBinAddr: 0x100069FD0, symSize: 0x30 }
  - { offsetInCU: 0x2B9C7, offset: 0x2B9C7, size: 0x8, addend: 0x0, symName: __ZNSt3__16vectorIfNS_9allocatorIfEEE11__vallocateB7v160006Em, symObjAddr: 0x19F70, symBinAddr: 0x10006A000, symSize: 0xA0 }
  - { offsetInCU: 0x2BA09, offset: 0x2BA09, size: 0x8, addend: 0x0, symName: __ZNSt3__16vectorIfNS_9allocatorIfEEE18__construct_at_endIPfLi0EEEvT_S6_m, symObjAddr: 0x1A010, symBinAddr: 0x10006A0A0, symSize: 0x90 }
  - { offsetInCU: 0x2BA7B, offset: 0x2BA7B, size: 0x8, addend: 0x0, symName: __ZNSt3__128__exception_guard_exceptionsINS_6vectorIfNS_9allocatorIfEEE16__destroy_vectorEE10__completeB7v160006Ev, symObjAddr: 0x1A0A0, symBinAddr: 0x10006A130, symSize: 0x20 }
  - { offsetInCU: 0x2BAA0, offset: 0x2BAA0, size: 0x8, addend: 0x0, symName: __ZNSt3__128__exception_guard_exceptionsINS_6vectorIfNS_9allocatorIfEEE16__destroy_vectorEED1B7v160006Ev, symObjAddr: 0x1A0C0, symBinAddr: 0x10006A150, symSize: 0x20 }
  - { offsetInCU: 0x2BAC9, offset: 0x2BAC9, size: 0x8, addend: 0x0, symName: __ZNSt3__117__compressed_pairIPfNS_9allocatorIfEEEC2B7v160006IDnS3_EEOT_OT0_, symObjAddr: 0x1A0E0, symBinAddr: 0x10006A170, symSize: 0x40 }
  - { offsetInCU: 0x2BB20, offset: 0x2BB20, size: 0x8, addend: 0x0, symName: __ZNSt3__122__compressed_pair_elemINS_9allocatorIfEELi1ELb1EEC2B7v160006IS2_vEEOT_, symObjAddr: 0x1A120, symBinAddr: 0x10006A1B0, symSize: 0x10 }
  - { offsetInCU: 0x2BB61, offset: 0x2BB61, size: 0x8, addend: 0x0, symName: __ZNSt3__128__exception_guard_exceptionsINS_6vectorIfNS_9allocatorIfEEE16__destroy_vectorEEC1B7v160006ES5_, symObjAddr: 0x1A130, symBinAddr: 0x10006A1C0, symSize: 0x30 }
  - { offsetInCU: 0x2BB98, offset: 0x2BB98, size: 0x8, addend: 0x0, symName: __ZNSt3__128__exception_guard_exceptionsINS_6vectorIfNS_9allocatorIfEEE16__destroy_vectorEEC2B7v160006ES5_, symObjAddr: 0x1A160, symBinAddr: 0x10006A1F0, symSize: 0x20 }
  - { offsetInCU: 0x2BBCF, offset: 0x2BBCF, size: 0x8, addend: 0x0, symName: __ZNSt3__16vectorIfNS_9allocatorIfEEE16__destroy_vectorC2ERS3_, symObjAddr: 0x1A180, symBinAddr: 0x10006A210, symSize: 0x20 }
  - { offsetInCU: 0x2BC07, offset: 0x2BC07, size: 0x8, addend: 0x0, symName: __ZNSt3__129_AllocatorDestroyRangeReverseINS_9allocatorIfEEPfEC1B7v160006ERS2_RS3_S6_, symObjAddr: 0x1A300, symBinAddr: 0x10006A390, symSize: 0x40 }
  - { offsetInCU: 0x2BC5D, offset: 0x2BC5D, size: 0x8, addend: 0x0, symName: __ZNSt3__116allocator_traitsINS_9allocatorIfEEE9constructB7v160006IfJRfEvEEvRS2_PT_DpOT0_, symObjAddr: 0x1A340, symBinAddr: 0x10006A3D0, symSize: 0x30 }
  - { offsetInCU: 0x2BCB4, offset: 0x2BCB4, size: 0x8, addend: 0x0, symName: __ZNSt3__128__exception_guard_exceptionsINS_29_AllocatorDestroyRangeReverseINS_9allocatorIfEEPfEEE10__completeB7v160006Ev, symObjAddr: 0x1A370, symBinAddr: 0x10006A400, symSize: 0x20 }
  - { offsetInCU: 0x2BCD9, offset: 0x2BCD9, size: 0x8, addend: 0x0, symName: __ZNSt3__128__exception_guard_exceptionsINS_29_AllocatorDestroyRangeReverseINS_9allocatorIfEEPfEEED1B7v160006Ev, symObjAddr: 0x1A390, symBinAddr: 0x10006A420, symSize: 0x20 }
  - { offsetInCU: 0x2BD02, offset: 0x2BD02, size: 0x8, addend: 0x0, symName: __ZNSt3__128__exception_guard_exceptionsINS_29_AllocatorDestroyRangeReverseINS_9allocatorIfEEPfEEEC1B7v160006ES5_, symObjAddr: 0x1A3B0, symBinAddr: 0x10006A440, symSize: 0x40 }
  - { offsetInCU: 0x2BD39, offset: 0x2BD39, size: 0x8, addend: 0x0, symName: __ZNSt3__128__exception_guard_exceptionsINS_29_AllocatorDestroyRangeReverseINS_9allocatorIfEEPfEEEC2B7v160006ES5_, symObjAddr: 0x1A3F0, symBinAddr: 0x10006A480, symSize: 0x30 }
  - { offsetInCU: 0x2BD70, offset: 0x2BD70, size: 0x8, addend: 0x0, symName: __ZNSt3__129_AllocatorDestroyRangeReverseINS_9allocatorIfEEPfEC2B7v160006ERS2_RS3_S6_, symObjAddr: 0x1A420, symBinAddr: 0x10006A4B0, symSize: 0x40 }
  - { offsetInCU: 0x2BDC6, offset: 0x2BDC6, size: 0x8, addend: 0x0, symName: __ZNSt3__19allocatorIfE9constructB7v160006IfJRfEEEvPT_DpOT0_, symObjAddr: 0x1A460, symBinAddr: 0x10006A4F0, symSize: 0x30 }
  - { offsetInCU: 0x2BE1B, offset: 0x2BE1B, size: 0x8, addend: 0x0, symName: __ZNSt3__128__exception_guard_exceptionsINS_29_AllocatorDestroyRangeReverseINS_9allocatorIfEEPfEEED2B7v160006Ev, symObjAddr: 0x1A490, symBinAddr: 0x10006A520, symSize: 0x40 }
  - { offsetInCU: 0x2BE44, offset: 0x2BE44, size: 0x8, addend: 0x0, symName: __ZNKSt3__129_AllocatorDestroyRangeReverseINS_9allocatorIfEEPfEclB7v160006Ev, symObjAddr: 0x1A4D0, symBinAddr: 0x10006A560, symSize: 0x60 }
  - { offsetInCU: 0x2BE6E, offset: 0x2BE6E, size: 0x8, addend: 0x0, symName: __ZNSt3__119__to_address_helperINS_16reverse_iteratorIPfEEvE6__callB7v160006ERKS3_, symObjAddr: 0x1A5C0, symBinAddr: 0x10006A650, symSize: 0x40 }
  - { offsetInCU: 0x2BE91, offset: 0x2BE91, size: 0x8, addend: 0x0, symName: __ZNKSt3__116reverse_iteratorIPfEptB7v160006Ev, symObjAddr: 0x1A600, symBinAddr: 0x10006A690, symSize: 0x20 }
  - { offsetInCU: 0x2BEB6, offset: 0x2BEB6, size: 0x8, addend: 0x0, symName: __ZNSt3__128__exception_guard_exceptionsINS_6vectorIfNS_9allocatorIfEEE16__destroy_vectorEED2B7v160006Ev, symObjAddr: 0x1A620, symBinAddr: 0x10006A6B0, symSize: 0x40 }
  - { offsetInCU: 0x2BEDF, offset: 0x2BEDF, size: 0x8, addend: 0x0, symName: __ZNSt3__16vectorIfNS_9allocatorIfEEE16__destroy_vectorclB7v160006Ev, symObjAddr: 0x1A660, symBinAddr: 0x10006A6F0, symSize: 0x90 }
  - { offsetInCU: 0x2BF04, offset: 0x2BF04, size: 0x8, addend: 0x0, symName: __ZNSt3__16vectorIfNS_9allocatorIfEEE7__clearB7v160006Ev, symObjAddr: 0x1A700, symBinAddr: 0x10006A790, symSize: 0x20 }
  - { offsetInCU: 0x2BF29, offset: 0x2BF29, size: 0x8, addend: 0x0, symName: __ZNSt3__16vectorIfNS_9allocatorIfEEE22__base_destruct_at_endB7v160006EPf, symObjAddr: 0x1A720, symBinAddr: 0x10006A7B0, symSize: 0x80 }
  - { offsetInCU: 0x2BF6C, offset: 0x2BF6C, size: 0x8, addend: 0x0, symName: __ZNSt3__16vectorIfNS_9allocatorIfEEED2B7v160006Ev, symObjAddr: 0x1A7A0, symBinAddr: 0x10006A830, symSize: 0x40 }
  - { offsetInCU: 0x2BF95, offset: 0x2BF95, size: 0x8, addend: 0x0, symName: __ZNSt3__16vectorIP4FoodNS_9allocatorIS2_EEE17__destruct_at_endB7v160006EPS2_, symObjAddr: 0x1A850, symBinAddr: 0x10006A8E0, symSize: 0x60 }
  - { offsetInCU: 0x2BFD7, offset: 0x2BFD7, size: 0x8, addend: 0x0, symName: __ZNSt3__16vectorIP4FoodNS_9allocatorIS2_EEE27__invalidate_iterators_pastB7v160006EPS2_, symObjAddr: 0x1A930, symBinAddr: 0x10006A9C0, symSize: 0x10 }
  - { offsetInCU: 0x2C00D, offset: 0x2C00D, size: 0x8, addend: 0x0, symName: __ZNSt3__16vectorIP4FoodNS_9allocatorIS2_EEE11__make_iterB7v160006EPS2_, symObjAddr: 0x1A940, symBinAddr: 0x10006A9D0, symSize: 0x30 }
  - { offsetInCU: 0x2C041, offset: 0x2C041, size: 0x8, addend: 0x0, symName: __ZNKSt3__111__wrap_iterIPKP4FoodE4baseB7v160006Ev, symObjAddr: 0x1A970, symBinAddr: 0x10006AA00, symSize: 0x20 }
  - { offsetInCU: 0x2C066, offset: 0x2C066, size: 0x8, addend: 0x0, symName: __ZNKSt3__111__wrap_iterIPP4FoodE4baseB7v160006Ev, symObjAddr: 0x1A990, symBinAddr: 0x10006AA20, symSize: 0x20 }
  - { offsetInCU: 0x2C08B, offset: 0x2C08B, size: 0x8, addend: 0x0, symName: __ZNKSt3__16vectorIP4FoodNS_9allocatorIS2_EEE17__annotate_shrinkB7v160006Em, symObjAddr: 0x1A9F0, symBinAddr: 0x10006AA80, symSize: 0xA0 }
  - { offsetInCU: 0x2C0D8, offset: 0x2C0D8, size: 0x8, addend: 0x0, symName: __ZNKSt3__114__move_trivialclB7v160006IP4FoodS3_Li0EEENS_4pairIPT_PT0_EES6_S6_S8_, symObjAddr: 0x1AC10, symBinAddr: 0x10006ACA0, symSize: 0x40 }
  - { offsetInCU: 0x2C144, offset: 0x2C144, size: 0x8, addend: 0x0, symName: __ZNSt3__14pairIPP4FoodS3_EC1B7v160006IRS3_S3_LPv0EEEOT_OT0_, symObjAddr: 0x1ADB0, symBinAddr: 0x10006AE40, symSize: 0x30 }
  - { offsetInCU: 0x2C1A1, offset: 0x2C1A1, size: 0x8, addend: 0x0, symName: __ZNSt3__14pairIPP4FoodS3_EC2B7v160006IRS3_S3_LPv0EEEOT_OT0_, symObjAddr: 0x1ADE0, symBinAddr: 0x10006AE70, symSize: 0x30 }
  - { offsetInCU: 0x2C1FE, offset: 0x2C1FE, size: 0x8, addend: 0x0, symName: __ZNSt3__118__unwrap_iter_implIPP4FoodLb1EE8__unwrapB7v160006ES3_, symObjAddr: 0x1AE10, symBinAddr: 0x10006AEA0, symSize: 0x20 }
  - { offsetInCU: 0x2C221, offset: 0x2C221, size: 0x8, addend: 0x0, symName: __ZNSt3__14pairIPP4FoodS3_EC1B7v160006IS3_S3_LPv0EEEOT_OT0_, symObjAddr: 0x1AE30, symBinAddr: 0x10006AEC0, symSize: 0x30 }
  - { offsetInCU: 0x2C27E, offset: 0x2C27E, size: 0x8, addend: 0x0, symName: __ZNSt3__14pairIPP4FoodS3_EC2B7v160006IS3_S3_LPv0EEEOT_OT0_, symObjAddr: 0x1AE60, symBinAddr: 0x10006AEF0, symSize: 0x30 }
  - { offsetInCU: 0x2C2DB, offset: 0x2C2DB, size: 0x8, addend: 0x0, symName: __ZNSt3__118__unwrap_iter_implIPP4FoodLb1EE8__rewrapB7v160006ES3_S3_, symObjAddr: 0x1AE90, symBinAddr: 0x10006AF20, symSize: 0x50 }
  - { offsetInCU: 0x2C30C, offset: 0x2C30C, size: 0x8, addend: 0x0, symName: __ZNSt3__111__wrap_iterIPP4FoodEC1B7v160006EPKvS3_, symObjAddr: 0x1AEE0, symBinAddr: 0x10006AF70, symSize: 0x30 }
  - { offsetInCU: 0x2C351, offset: 0x2C351, size: 0x8, addend: 0x0, symName: __ZNSt3__111__wrap_iterIPP4FoodEC2B7v160006EPKvS3_, symObjAddr: 0x1AF10, symBinAddr: 0x10006AFA0, symSize: 0x20 }
  - { offsetInCU: 0x2C396, offset: 0x2C396, size: 0x8, addend: 0x0, symName: __ZNSt3__111__wrap_iterIPKP4FoodEC2B7v160006IPS2_EERKNS0_IT_EEPNS_9enable_ifIXsr14is_convertibleIS8_S4_EE5valueEvE4typeE, symObjAddr: 0x1AFA0, symBinAddr: 0x10006B030, symSize: 0x40 }
  - { offsetInCU: 0x2C3E0, offset: 0x2C3E0, size: 0x8, addend: 0x0, symName: __ZN13NeuralNetwork14DeleteContentsEv, symObjAddr: 0x1AFE0, symBinAddr: 0x10006B070, symSize: 0x290 }
  - { offsetInCU: 0x2C491, offset: 0x2C491, size: 0x8, addend: 0x0, symName: __ZN13NeuralNetworkD1Ev, symObjAddr: 0x1B270, symBinAddr: 0x10006B300, symSize: 0x20 }
  - { offsetInCU: 0x2C4BA, offset: 0x2C4BA, size: 0x8, addend: 0x0, symName: __ZN6NeuronD1Ev, symObjAddr: 0x1B290, symBinAddr: 0x10006B320, symSize: 0x20 }
  - { offsetInCU: 0x2C4E5, offset: 0x2C4E5, size: 0x8, addend: 0x0, symName: __ZN6NeuronD2Ev, symObjAddr: 0x1B2B0, symBinAddr: 0x10006B340, symSize: 0x30 }
  - { offsetInCU: 0x2C510, offset: 0x2C510, size: 0x8, addend: 0x0, symName: __ZN13NeuralNetworkD2Ev, symObjAddr: 0x1B2E0, symBinAddr: 0x10006B370, symSize: 0x60 }
  - { offsetInCU: 0x2C539, offset: 0x2C539, size: 0x8, addend: 0x0, symName: __ZN6EntityD2Ev, symObjAddr: 0x1B340, symBinAddr: 0x10006B3D0, symSize: 0x40 }
  - { offsetInCU: 0x2C562, offset: 0x2C562, size: 0x8, addend: 0x0, symName: __ZNSt3__16vectorIP6EntityNS_9allocatorIS2_EEE17__destruct_at_endB7v160006EPS2_, symObjAddr: 0x1B3B0, symBinAddr: 0x10006B440, symSize: 0x60 }
  - { offsetInCU: 0x2C5A4, offset: 0x2C5A4, size: 0x8, addend: 0x0, symName: __ZNSt3__16vectorIP6EntityNS_9allocatorIS2_EEE27__invalidate_iterators_pastB7v160006EPS2_, symObjAddr: 0x1B450, symBinAddr: 0x10006B4E0, symSize: 0x10 }
  - { offsetInCU: 0x2C5DA, offset: 0x2C5DA, size: 0x8, addend: 0x0, symName: __ZNKSt3__16vectorIP6EntityNS_9allocatorIS2_EEE17__annotate_shrinkB7v160006Em, symObjAddr: 0x1B4A0, symBinAddr: 0x10006B530, symSize: 0xA0 }
  - { offsetInCU: 0x2C60E, offset: 0x2C60E, size: 0x8, addend: 0x0, symName: __ZNSt3__16vectorIP6EntityNS_9allocatorIS2_EEE22__construct_one_at_endB7v160006IJS2_EEEvDpOT_, symObjAddr: 0x1B5B0, symBinAddr: 0x10006B640, symSize: 0x90 }
  - { offsetInCU: 0x2C65B, offset: 0x2C65B, size: 0x8, addend: 0x0, symName: __ZNSt3__16vectorIP6EntityNS_9allocatorIS2_EEE21__push_back_slow_pathIS2_EEvOT_, symObjAddr: 0x1B640, symBinAddr: 0x10006B6D0, symSize: 0xD0 }
  - { offsetInCU: 0x2C6B8, offset: 0x2C6B8, size: 0x8, addend: 0x0, symName: __ZN6EntityC2E7Vector2b, symObjAddr: 0x1B710, symBinAddr: 0x10006B7A0, symSize: 0x4E0 }
  - { offsetInCU: 0x2C74D, offset: 0x2C74D, size: 0x8, addend: 0x0, symName: __ZN6Entity17CreateNetToPassOnEi, symObjAddr: 0x1BBF0, symBinAddr: 0x10006BC80, symSize: 0x450 }
  - { offsetInCU: 0x2C853, offset: 0x2C853, size: 0x8, addend: 0x0, symName: __ZN6EntityC1EPS_7Vector2, symObjAddr: 0x1C040, symBinAddr: 0x10006C0D0, symSize: 0x30 }
  - { offsetInCU: 0x2C89A, offset: 0x2C89A, size: 0x8, addend: 0x0, symName: __ZN6Entity9SetRadiusEi, symObjAddr: 0x1C070, symBinAddr: 0x10006C100, symSize: 0x20 }
  - { offsetInCU: 0x2C8CE, offset: 0x2C8CE, size: 0x8, addend: 0x0, symName: __ZN6Entity11SetViewDistEf, symObjAddr: 0x1C090, symBinAddr: 0x10006C120, symSize: 0x20 }
  - { offsetInCU: 0x2C902, offset: 0x2C902, size: 0x8, addend: 0x0, symName: __ZN6Entity18SetSpeedMultiplyerEf, symObjAddr: 0x1C0B0, symBinAddr: 0x10006C140, symSize: 0x20 }
  - { offsetInCU: 0x2C936, offset: 0x2C936, size: 0x8, addend: 0x0, symName: __ZN6Entity9SetDamageEf, symObjAddr: 0x1C0D0, symBinAddr: 0x10006C160, symSize: 0x20 }
  - { offsetInCU: 0x2C96A, offset: 0x2C96A, size: 0x8, addend: 0x0, symName: __ZN6Entity6SetFOVEf, symObjAddr: 0x1C0F0, symBinAddr: 0x10006C180, symSize: 0x20 }
  - { offsetInCU: 0x2C99E, offset: 0x2C99E, size: 0x8, addend: 0x0, symName: __ZN13NeuralNetwork7CopyNetEv, symObjAddr: 0x1C110, symBinAddr: 0x10006C1A0, symSize: 0x200 }
  - { offsetInCU: 0x2CA21, offset: 0x2CA21, size: 0x8, addend: 0x0, symName: __ZN6Weight9setWeightEf, symObjAddr: 0x1C310, symBinAddr: 0x10006C3A0, symSize: 0x20 }
  - { offsetInCU: 0x2CA54, offset: 0x2CA54, size: 0x8, addend: 0x0, symName: __ZN6Neuron7SetBiasEf, symObjAddr: 0x1C330, symBinAddr: 0x10006C3C0, symSize: 0x20 }
  - { offsetInCU: 0x2CA87, offset: 0x2CA87, size: 0x8, addend: 0x0, symName: __ZN6Neuron7GetBiasEv, symObjAddr: 0x1C350, symBinAddr: 0x10006C3E0, symSize: 0x20 }
  - { offsetInCU: 0x2CAAC, offset: 0x2CAAC, size: 0x8, addend: 0x0, symName: __ZN6EntityC2EPS_7Vector2, symObjAddr: 0x1C370, symBinAddr: 0x10006C400, symSize: 0x410 }
  - { offsetInCU: 0x2CB10, offset: 0x2CB10, size: 0x8, addend: 0x0, symName: __ZN6Entity14GetOrientationEv, symObjAddr: 0x1C780, symBinAddr: 0x10006C810, symSize: 0x20 }
  - { offsetInCU: 0x2CB35, offset: 0x2CB35, size: 0x8, addend: 0x0, symName: __ZN6Entity9SetParentEPS_, symObjAddr: 0x1C7A0, symBinAddr: 0x10006C830, symSize: 0x20 }
  - { offsetInCU: 0x2CB69, offset: 0x2CB69, size: 0x8, addend: 0x0, symName: __ZN6Entity14GetNetToPassOnEv, symObjAddr: 0x1C7C0, symBinAddr: 0x10006C850, symSize: 0x20 }
  - { offsetInCU: 0x2CB8E, offset: 0x2CB8E, size: 0x8, addend: 0x0, symName: __ZN6Entity15GetLineageCountEv, symObjAddr: 0x1C7E0, symBinAddr: 0x10006C870, symSize: 0x20 }
  - { offsetInCU: 0x2CBB3, offset: 0x2CBB3, size: 0x8, addend: 0x0, symName: __ZNKSt3__111__wrap_iterIPP4WallE4baseB7v160006Ev, symObjAddr: 0x1C840, symBinAddr: 0x10006C8D0, symSize: 0x20 }
  - { offsetInCU: 0x2CBD8, offset: 0x2CBD8, size: 0x8, addend: 0x0, symName: __ZNKSt3__112basic_stringIcNS_11char_traitsIcEENS_9allocatorIcEEE4dataB7v160006Ev, symObjAddr: 0x1C8A0, symBinAddr: 0x10006C930, symSize: 0x30 }
  - { offsetInCU: 0x2CBFD, offset: 0x2CBFD, size: 0x8, addend: 0x0, symName: __ZNKSt3__112basic_stringIcNS_11char_traitsIcEENS_9allocatorIcEEE13__get_pointerB7v160006Ev, symObjAddr: 0x1C8E0, symBinAddr: 0x10006C970, symSize: 0x50 }
  - { offsetInCU: 0x2CC22, offset: 0x2CC22, size: 0x8, addend: 0x0, symName: __ZNKSt3__112basic_stringIcNS_11char_traitsIcEENS_9allocatorIcEEE9__is_longB7v160006Ev, symObjAddr: 0x1C930, symBinAddr: 0x10006C9C0, symSize: 0x30 }
  - { offsetInCU: 0x2CC47, offset: 0x2CC47, size: 0x8, addend: 0x0, symName: __ZNKSt3__112basic_stringIcNS_11char_traitsIcEENS_9allocatorIcEEE18__get_long_pointerB7v160006Ev, symObjAddr: 0x1C960, symBinAddr: 0x10006C9F0, symSize: 0x20 }
  - { offsetInCU: 0x2CC6C, offset: 0x2CC6C, size: 0x8, addend: 0x0, symName: __ZNKSt3__112basic_stringIcNS_11char_traitsIcEENS_9allocatorIcEEE19__get_short_pointerB7v160006Ev, symObjAddr: 0x1C980, symBinAddr: 0x10006CA10, symSize: 0x30 }
  - { offsetInCU: 0x2CC91, offset: 0x2CC91, size: 0x8, addend: 0x0, symName: __ZNKSt3__117__compressed_pairINS_12basic_stringIcNS_11char_traitsIcEENS_9allocatorIcEEE5__repES5_E5firstB7v160006Ev, symObjAddr: 0x1C9B0, symBinAddr: 0x10006CA40, symSize: 0x20 }
  - { offsetInCU: 0x2CCB6, offset: 0x2CCB6, size: 0x8, addend: 0x0, symName: __ZNKSt3__122__compressed_pair_elemINS_12basic_stringIcNS_11char_traitsIcEENS_9allocatorIcEEE5__repELi0ELb0EE5__getB7v160006Ev, symObjAddr: 0x1C9D0, symBinAddr: 0x10006CA60, symSize: 0x10 }
  - { offsetInCU: 0x2CCDB, offset: 0x2CCDB, size: 0x8, addend: 0x0, symName: __ZNSt3__114pointer_traitsIPKcE10pointer_toB7v160006ERS1_, symObjAddr: 0x1C9E0, symBinAddr: 0x10006CA70, symSize: 0x10 }
  - { offsetInCU: 0x2CCFE, offset: 0x2CCFE, size: 0x8, addend: 0x0, symName: __ZNSt3__16vectorIP6EntityNS_9allocatorIS2_EEED2B7v160006Ev, symObjAddr: 0x1C9F0, symBinAddr: 0x10006CA80, symSize: 0x40 }
  - { offsetInCU: 0x2CD27, offset: 0x2CD27, size: 0x8, addend: 0x0, symName: __ZNSt3__16vectorIP4FoodNS_9allocatorIS2_EEED2B7v160006Ev, symObjAddr: 0x1CA30, symBinAddr: 0x10006CAC0, symSize: 0x40 }
  - { offsetInCU: 0x2CD50, offset: 0x2CD50, size: 0x8, addend: 0x0, symName: __ZNSt3__16vectorIP4WallNS_9allocatorIS2_EEE11__make_iterB7v160006EPS2_, symObjAddr: 0x1CA70, symBinAddr: 0x10006CB00, symSize: 0x30 }
  - { offsetInCU: 0x2CD84, offset: 0x2CD84, size: 0x8, addend: 0x0, symName: __ZNSt3__111__wrap_iterIPP4WallEC1B7v160006EPKvS3_, symObjAddr: 0x1CAA0, symBinAddr: 0x10006CB30, symSize: 0x30 }
  - { offsetInCU: 0x2CDC9, offset: 0x2CDC9, size: 0x8, addend: 0x0, symName: __ZNSt3__111__wrap_iterIPP4WallEC2B7v160006EPKvS3_, symObjAddr: 0x1CAD0, symBinAddr: 0x10006CB60, symSize: 0x20 }
  - { offsetInCU: 0x2CE0E, offset: 0x2CE0E, size: 0x8, addend: 0x0, symName: __ZNSt3__16vectorIP4WallNS_9allocatorIS2_EEED2B7v160006Ev, symObjAddr: 0x1CAF0, symBinAddr: 0x10006CB80, symSize: 0x40 }
  - { offsetInCU: 0x2CE37, offset: 0x2CE37, size: 0x8, addend: 0x0, symName: __ZNSt3__112basic_stringIcNS_11char_traitsIcEENS_9allocatorIcEEEC2B7v160006Ev, symObjAddr: 0x1CB30, symBinAddr: 0x10006CBC0, symSize: 0x50 }
  - { offsetInCU: 0x2CE60, offset: 0x2CE60, size: 0x8, addend: 0x0, symName: __ZNSt3__112basic_stringIcNS_11char_traitsIcEENS_9allocatorIcEEE14__default_initB7v160006Ev, symObjAddr: 0x1CB80, symBinAddr: 0x10006CC10, symSize: 0x50 }
  - { offsetInCU: 0x2CE85, offset: 0x2CE85, size: 0x8, addend: 0x0, symName: __ZNSt3__117__compressed_pairINS_12basic_stringIcNS_11char_traitsIcEENS_9allocatorIcEEE5__repES5_E5firstB7v160006Ev, symObjAddr: 0x1CBD0, symBinAddr: 0x10006CC60, symSize: 0x20 }
  - { offsetInCU: 0x2CEAA, offset: 0x2CEAA, size: 0x8, addend: 0x0, symName: __ZNSt3__122__compressed_pair_elemINS_12basic_stringIcNS_11char_traitsIcEENS_9allocatorIcEEE5__repELi0ELb0EE5__getB7v160006Ev, symObjAddr: 0x1CBF0, symBinAddr: 0x10006CC80, symSize: 0x10 }
  - { offsetInCU: 0x2CECE, offset: 0x2CECE, size: 0x8, addend: 0x0, symName: __ZNSt3__112basic_stringIcNS_11char_traitsIcEENS_9allocatorIcEEE13__move_assignB7v160006ERS5_NS_17integral_constantIbLb1EEE, symObjAddr: 0x1CC00, symBinAddr: 0x10006CC90, symSize: 0xD0 }
  - { offsetInCU: 0x2CF0F, offset: 0x2CF0F, size: 0x8, addend: 0x0, symName: __ZNSt3__116allocator_traitsINS_9allocatorIcEEE10deallocateB7v160006ERS2_Pcm, symObjAddr: 0x1CCD0, symBinAddr: 0x10006CD60, symSize: 0x30 }
  - { offsetInCU: 0x2CF51, offset: 0x2CF51, size: 0x8, addend: 0x0, symName: __ZNSt3__112basic_stringIcNS_11char_traitsIcEENS_9allocatorIcEEE7__allocB7v160006Ev, symObjAddr: 0x1CD00, symBinAddr: 0x10006CD90, symSize: 0x20 }
  - { offsetInCU: 0x2CF76, offset: 0x2CF76, size: 0x8, addend: 0x0, symName: __ZNSt3__112basic_stringIcNS_11char_traitsIcEENS_9allocatorIcEEE18__get_long_pointerB7v160006Ev, symObjAddr: 0x1CD20, symBinAddr: 0x10006CDB0, symSize: 0x20 }
  - { offsetInCU: 0x2CF9B, offset: 0x2CF9B, size: 0x8, addend: 0x0, symName: __ZNKSt3__112basic_stringIcNS_11char_traitsIcEENS_9allocatorIcEEE14__get_long_capB7v160006Ev, symObjAddr: 0x1CD40, symBinAddr: 0x10006CDD0, symSize: 0x30 }
  - { offsetInCU: 0x2CFC0, offset: 0x2CFC0, size: 0x8, addend: 0x0, symName: __ZNSt3__112basic_stringIcNS_11char_traitsIcEENS_9allocatorIcEEE19__move_assign_allocB7v160006ERS5_, symObjAddr: 0x1CD70, symBinAddr: 0x10006CE00, symSize: 0x30 }
  - { offsetInCU: 0x2CFF4, offset: 0x2CFF4, size: 0x8, addend: 0x0, symName: __ZNSt3__112basic_stringIcNS_11char_traitsIcEENS_9allocatorIcEEE16__set_short_sizeB7v160006Em, symObjAddr: 0x1CDA0, symBinAddr: 0x10006CE30, symSize: 0x50 }
  - { offsetInCU: 0x2D028, offset: 0x2D028, size: 0x8, addend: 0x0, symName: __ZNSt3__111char_traitsIcE6assignERcRKc, symObjAddr: 0x1CDF0, symBinAddr: 0x10006CE80, symSize: 0x20 }
  - { offsetInCU: 0x2D059, offset: 0x2D059, size: 0x8, addend: 0x0, symName: __ZNSt3__112basic_stringIcNS_11char_traitsIcEENS_9allocatorIcEEE19__get_short_pointerB7v160006Ev, symObjAddr: 0x1CE10, symBinAddr: 0x10006CEA0, symSize: 0x30 }
  - { offsetInCU: 0x2D07E, offset: 0x2D07E, size: 0x8, addend: 0x0, symName: __ZNSt3__19allocatorIcE10deallocateB7v160006EPcm, symObjAddr: 0x1CE40, symBinAddr: 0x10006CED0, symSize: 0x40 }
  - { offsetInCU: 0x2D0BF, offset: 0x2D0BF, size: 0x8, addend: 0x0, symName: __ZNSt3__117__compressed_pairINS_12basic_stringIcNS_11char_traitsIcEENS_9allocatorIcEEE5__repES5_E6secondB7v160006Ev, symObjAddr: 0x1CE80, symBinAddr: 0x10006CF10, symSize: 0x20 }
  - { offsetInCU: 0x2D0E4, offset: 0x2D0E4, size: 0x8, addend: 0x0, symName: __ZNSt3__122__compressed_pair_elemINS_9allocatorIcEELi1ELb1EE5__getB7v160006Ev, symObjAddr: 0x1CEA0, symBinAddr: 0x10006CF30, symSize: 0x10 }
  - { offsetInCU: 0x2D109, offset: 0x2D109, size: 0x8, addend: 0x0, symName: __ZNSt3__112basic_stringIcNS_11char_traitsIcEENS_9allocatorIcEEE19__move_assign_allocB7v160006ERS5_NS_17integral_constantIbLb1EEE, symObjAddr: 0x1CEB0, symBinAddr: 0x10006CF40, symSize: 0x30 }
  - { offsetInCU: 0x2D148, offset: 0x2D148, size: 0x8, addend: 0x0, symName: __ZNSt3__114pointer_traitsIPcE10pointer_toB7v160006ERc, symObjAddr: 0x1CEE0, symBinAddr: 0x10006CF70, symSize: 0xE }
...
