---
triple:          'x86_64-apple-darwin'
binary-path:     '/Users/colinwareham/Desktop/Evolution/tests'
relocations:
  - { offsetInCU: 0xBF25, offset: 0xBF25, size: 0x8, addend: 0x0, symName: __ZNSt3__124__put_character_sequenceB7v160006IcNS_11char_traitsIcEEEERNS_13basic_ostreamIT_T0_EES7_PKS4_m, symObjAddr: 0xE4C0, symBinAddr: 0x10005CA40, symSize: 0x1F0 }
  - { offsetInCU: 0xE324, offset: 0xE324, size: 0x8, addend: 0x0, symName: __ZNSt3__16removeB7v160006INS_11__wrap_iterIPP6EntityEES3_EET_S6_S6_RKT0_, symObjAddr: 0xA80, symBinAddr: 0x10004F000, symSize: 0xF0 }
  - { offsetInCU: 0xE3B6, offset: 0xE3B6, size: 0x8, addend: 0x0, symName: __ZNSt3__1lsB7v160006INS_11char_traitsIcEEEERNS_13basic_ostreamIcT_EES6_PKc, symObjAddr: 0x1AB0, symBinAddr: 0x100050030, symSize: 0x40 }
  - { offsetInCU: 0xE3FC, offset: 0xE3FC, size: 0x8, addend: 0x0, symName: __ZNSt3__14endlB7v160006IcNS_11char_traitsIcEEEERNS_13basic_ostreamIT_T0_EES7_, symObjAddr: 0x1B10, symBinAddr: 0x100050090, symSize: 0x50 }
  - { offsetInCU: 0xE521, offset: 0xE521, size: 0x8, addend: 0x0, symName: __ZNSt3__119__debug_db_insert_cB7v160006INS_6vectorIP6WeightNS_9allocatorIS3_EEEEEEvPT_, symObjAddr: 0x4560, symBinAddr: 0x100052AE0, symSize: 0x10 }
  - { offsetInCU: 0xE552, offset: 0xE552, size: 0x8, addend: 0x0, symName: __ZNSt3__119__debug_db_insert_cB7v160006INS_12basic_stringIcNS_11char_traitsIcEENS_9allocatorIcEEEEEEvPT_, symObjAddr: 0x4710, symBinAddr: 0x100052C90, symSize: 0x10 }
  - { offsetInCU: 0xE583, offset: 0xE583, size: 0x8, addend: 0x0, symName: __ZNSt3__118__constexpr_strlenB7v160006EPKc, symObjAddr: 0x47B0, symBinAddr: 0x100052D30, symSize: 0x20 }
  - { offsetInCU: 0xE5D3, offset: 0xE5D3, size: 0x8, addend: 0x0, symName: __ZNSt3__113__countl_zeroB7v160006IjEEiT_, symObjAddr: 0x4B10, symBinAddr: 0x100053090, symSize: 0x40 }
  - { offsetInCU: 0xE608, offset: 0xE608, size: 0x8, addend: 0x0, symName: __ZNSt3__112__libcpp_clzB7v160006Ej, symObjAddr: 0x4F00, symBinAddr: 0x100053480, symSize: 0x20 }
  - { offsetInCU: 0xE7E3, offset: 0xE7E3, size: 0x8, addend: 0x0, symName: __ZNSt3__118generate_canonicalB7v160006IfLm24ENS_23mersenne_twister_engineIjLm32ELm624ELm397ELm31ELj2567483615ELm11ELj4294967295ELm7ELj2636928640ELm15ELj4022730752ELm18ELj1812433253EEEEET_RT1_, symObjAddr: 0x5200, symBinAddr: 0x100053780, symSize: 0x100 }
  - { offsetInCU: 0xE8A9, offset: 0xE8A9, size: 0x8, addend: 0x0, symName: __ZNSt3__119__debug_db_insert_cB7v160006INS_6vectorIP6NeuronNS_9allocatorIS3_EEEEEEvPT_, symObjAddr: 0x5B10, symBinAddr: 0x100054090, symSize: 0x10 }
  - { offsetInCU: 0xE8DA, offset: 0xE8DA, size: 0x8, addend: 0x0, symName: __ZNSt3__119__debug_db_insert_cB7v160006INS_6vectorINS1_IP6NeuronNS_9allocatorIS3_EEEENS4_IS6_EEEEEEvPT_, symObjAddr: 0x5C60, symBinAddr: 0x1000541E0, symSize: 0x10 }
  - { offsetInCU: 0xE90B, offset: 0xE90B, size: 0x8, addend: 0x0, symName: __ZNSt3__112__to_addressB7v160006IP6NeuronEEPT_S4_, symObjAddr: 0x6140, symBinAddr: 0x1000546C0, symSize: 0x10 }
  - { offsetInCU: 0xE940, offset: 0xE940, size: 0x8, addend: 0x0, symName: __ZNSt3__13maxB7v160006ImEERKT_S3_S3_, symObjAddr: 0x6500, symBinAddr: 0x100054A80, symSize: 0x30 }
  - { offsetInCU: 0xE983, offset: 0xE983, size: 0x8, addend: 0x0, symName: __ZNSt3__13minB7v160006ImEERKT_S3_S3_, symObjAddr: 0x6530, symBinAddr: 0x100054AB0, symSize: 0x30 }
  - { offsetInCU: 0xEBC7, offset: 0xEBC7, size: 0x8, addend: 0x0, symName: __ZNSt3__13minB7v160006ImNS_6__lessImmEEEERKT_S5_S5_T0_, symObjAddr: 0x65B0, symBinAddr: 0x100054B30, symSize: 0x50 }
  - { offsetInCU: 0xEC5C, offset: 0xEC5C, size: 0x8, addend: 0x0, symName: __ZNSt3__120__throw_length_errorB7v160006EPKc, symObjAddr: 0x6690, symBinAddr: 0x100054C10, symSize: 0x70 }
  - { offsetInCU: 0xEC84, offset: 0xEC84, size: 0x8, addend: 0x0, symName: __ZNSt3__13maxB7v160006ImNS_6__lessImmEEEERKT_S5_S5_T0_, symObjAddr: 0x67C0, symBinAddr: 0x100054D40, symSize: 0x50 }
  - { offsetInCU: 0xECDE, offset: 0xECDE, size: 0x8, addend: 0x0, symName: __ZNSt3__119__allocate_at_leastB7v160006INS_9allocatorIP6NeuronEEEENS_19__allocation_resultINS_16allocator_traitsIT_E7pointerEEERS7_m, symObjAddr: 0x6910, symBinAddr: 0x100054E90, symSize: 0x40 }
  - { offsetInCU: 0xED21, offset: 0xED21, size: 0x8, addend: 0x0, symName: __ZNSt3__117__libcpp_allocateB7v160006Emm, symObjAddr: 0x6A80, symBinAddr: 0x100055000, symSize: 0x20 }
  - { offsetInCU: 0xED5E, offset: 0xED5E, size: 0x8, addend: 0x0, symName: __ZNSt3__121__libcpp_operator_newB7v160006IJmEEEPvDpT_, symObjAddr: 0x6AA0, symBinAddr: 0x100055020, symSize: 0x20 }
  - { offsetInCU: 0xED97, offset: 0xED97, size: 0x8, addend: 0x0, symName: __ZNSt3__142__uninitialized_allocator_move_if_noexceptB7v160006INS_9allocatorIP6NeuronEENS_16reverse_iteratorIPS3_EES7_S3_vEET1_RT_T0_SB_S8_, symObjAddr: 0x6BD0, symBinAddr: 0x100055150, symSize: 0x70 }
  - { offsetInCU: 0xEE13, offset: 0xEE13, size: 0x8, addend: 0x0, symName: __ZNSt3__14swapB7v160006IPP6NeuronEENS_9enable_ifIXaasr21is_move_constructibleIT_EE5valuesr18is_move_assignableIS5_EE5valueEvE4typeERS5_S8_, symObjAddr: 0x6C90, symBinAddr: 0x100055210, symSize: 0x40 }
  - { offsetInCU: 0xEE64, offset: 0xEE64, size: 0x8, addend: 0x0, symName: __ZNSt3__125__debug_db_invalidate_allB7v160006INS_6vectorIP6NeuronNS_9allocatorIS3_EEEEEEvPT_, symObjAddr: 0x6D80, symBinAddr: 0x100055300, symSize: 0x10 }
  - { offsetInCU: 0xEE95, offset: 0xEE95, size: 0x8, addend: 0x0, symName: __ZNSt3__14moveB7v160006INS_16reverse_iteratorIPP6NeuronEES5_EET0_T_S7_S6_, symObjAddr: 0x6DD0, symBinAddr: 0x100055350, symSize: 0x80 }
  - { offsetInCU: 0xEEEF, offset: 0xEEEF, size: 0x8, addend: 0x0, symName: __ZNSt3__16__moveB7v160006INS_17_ClassicAlgPolicyENS_16reverse_iteratorIPP6NeuronEES6_S6_EENS_4pairIT0_T2_EES8_T1_S9_, symObjAddr: 0x6E50, symBinAddr: 0x1000553D0, symSize: 0x90 }
  - { offsetInCU: 0xEF5B, offset: 0xEF5B, size: 0x8, addend: 0x0, symName: __ZNSt3__123__dispatch_copy_or_moveB7v160006INS_17_ClassicAlgPolicyENS_11__move_loopIS1_EENS_14__move_trivialENS_16reverse_iteratorIPP6NeuronEES9_S9_EENS_4pairIT2_T4_EESB_T3_SC_, symObjAddr: 0x6EE0, symBinAddr: 0x100055460, symSize: 0x90 }
  - { offsetInCU: 0xEFD9, offset: 0xEFD9, size: 0x8, addend: 0x0, symName: __ZNSt3__121__unwrap_and_dispatchB7v160006INS_10__overloadINS_11__move_loopINS_17_ClassicAlgPolicyEEENS_14__move_trivialEEENS_16reverse_iteratorIPP6NeuronEESB_SB_Li0EEENS_4pairIT0_T2_EESD_T1_SE_, symObjAddr: 0x6F70, symBinAddr: 0x1000554F0, symSize: 0x210 }
  - { offsetInCU: 0xF068, offset: 0xF068, size: 0x8, addend: 0x0, symName: __ZNSt3__114__unwrap_rangeB7v160006INS_16reverse_iteratorIPP6NeuronEES5_EENS_4pairIT0_S7_EET_S9_, symObjAddr: 0x7180, symBinAddr: 0x100055700, symSize: 0x90 }
  - { offsetInCU: 0xF261, offset: 0xF261, size: 0x8, addend: 0x0, symName: __ZNSt3__113__unwrap_iterB7v160006INS_16reverse_iteratorIPP6NeuronEENS_18__unwrap_iter_implIS5_Lb0EEELi0EEEDTclsrT0_8__unwrapclsr3stdE7declvalIT_EEEES9_, symObjAddr: 0x72B0, symBinAddr: 0x100055830, symSize: 0x40 }
  - { offsetInCU: 0xF2A5, offset: 0xF2A5, size: 0x8, addend: 0x0, symName: __ZNSt3__19make_pairB7v160006INS_16reverse_iteratorIPP6NeuronEES5_EENS_4pairINS_18__unwrap_ref_decayIT_E4typeENS7_IT0_E4typeEEEOS8_OSB_, symObjAddr: 0x72F0, symBinAddr: 0x100055870, symSize: 0x30 }
  - { offsetInCU: 0xF2F4, offset: 0xF2F4, size: 0x8, addend: 0x0, symName: __ZNSt3__114__rewrap_rangeB7v160006INS_16reverse_iteratorIPP6NeuronEES5_EET_S6_T0_, symObjAddr: 0x7320, symBinAddr: 0x1000558A0, symSize: 0x60 }
  - { offsetInCU: 0xF340, offset: 0xF340, size: 0x8, addend: 0x0, symName: __ZNSt3__113__rewrap_iterB7v160006INS_16reverse_iteratorIPP6NeuronEES5_NS_18__unwrap_iter_implIS5_Lb0EEEEET_S8_T0_, symObjAddr: 0x7380, symBinAddr: 0x100055900, symSize: 0x70 }
  - { offsetInCU: 0xF395, offset: 0xF395, size: 0x8, addend: 0x0, symName: __ZNSt3__1neB7v160006IPP6NeuronS3_EEbRKNS_16reverse_iteratorIT_EERKNS4_IT0_EE, symObjAddr: 0x73F0, symBinAddr: 0x100055970, symSize: 0x40 }
  - { offsetInCU: 0xF4F9, offset: 0xF4F9, size: 0x8, addend: 0x0, symName: __ZNSt3__119__libcpp_deallocateB7v160006EPvmm, symObjAddr: 0x77C0, symBinAddr: 0x100055D40, symSize: 0x30 }
  - { offsetInCU: 0xF541, offset: 0xF541, size: 0x8, addend: 0x0, symName: __ZNSt3__127__do_deallocate_handle_sizeB7v160006IJEEEvPvmDpT_, symObjAddr: 0x77F0, symBinAddr: 0x100055D70, symSize: 0x20 }
  - { offsetInCU: 0xF57F, offset: 0xF57F, size: 0x8, addend: 0x0, symName: __ZNSt3__124__libcpp_operator_deleteB7v160006IJPvEEEvDpT_, symObjAddr: 0x7810, symBinAddr: 0x100055D90, symSize: 0x20 }
  - { offsetInCU: 0xF5B4, offset: 0xF5B4, size: 0x8, addend: 0x0, symName: __ZNSt3__112__to_addressB7v160006INS_6vectorIP6NeuronNS_9allocatorIS3_EEEEEEPT_S8_, symObjAddr: 0x7AA0, symBinAddr: 0x100056020, symSize: 0x10 }
  - { offsetInCU: 0xF5E9, offset: 0xF5E9, size: 0x8, addend: 0x0, symName: __ZNSt3__122__make_exception_guardB7v160006INS_6vectorIP6NeuronNS_9allocatorIS3_EEE16__destroy_vectorEEENS_28__exception_guard_exceptionsIT_EES9_, symObjAddr: 0x7CC0, symBinAddr: 0x100056240, symSize: 0x40 }
  - { offsetInCU: 0xF61E, offset: 0xF61E, size: 0x8, addend: 0x0, symName: __ZNSt3__130__uninitialized_allocator_copyB7v160006INS_9allocatorIP6NeuronEEPS3_S5_S5_EET2_RT_T0_T1_S6_, symObjAddr: 0x7F60, symBinAddr: 0x1000564E0, symSize: 0x100 }
  - { offsetInCU: 0xF6BC, offset: 0xF6BC, size: 0x8, addend: 0x0, symName: __ZNSt3__122__make_exception_guardB7v160006INS_29_AllocatorDestroyRangeReverseINS_9allocatorIP6NeuronEEPS4_EEEENS_28__exception_guard_exceptionsIT_EES9_, symObjAddr: 0x8060, symBinAddr: 0x1000565E0, symSize: 0x60 }
  - { offsetInCU: 0xF6F1, offset: 0xF6F1, size: 0x8, addend: 0x0, symName: __ZNSt3__119__allocator_destroyB7v160006INS_9allocatorIP6NeuronEENS_16reverse_iteratorIPS3_EES7_EEvRT_T0_T1_, symObjAddr: 0x82E0, symBinAddr: 0x100056860, symSize: 0x70 }
  - { offsetInCU: 0xF754, offset: 0xF754, size: 0x8, addend: 0x0, symName: __ZNSt3__112__to_addressB7v160006INS_16reverse_iteratorIPP6NeuronEEvEENS_5decayIDTclsr19__to_address_helperIT_EE6__callclsr3stdE7declvalIRKS7_EEEEE4typeES9_, symObjAddr: 0x8350, symBinAddr: 0x1000568D0, symSize: 0x20 }
  - { offsetInCU: 0xF7B3, offset: 0xF7B3, size: 0x8, addend: 0x0, symName: __ZNSt3__118__debug_db_erase_cB7v160006INS_6vectorIP6NeuronNS_9allocatorIS3_EEEEEEvPT_, symObjAddr: 0x84A0, symBinAddr: 0x100056A20, symSize: 0x10 }
  - { offsetInCU: 0xF7E4, offset: 0xF7E4, size: 0x8, addend: 0x0, symName: __ZNSt3__119__allocate_at_leastB7v160006INS_9allocatorINS_6vectorIP6NeuronNS1_IS4_EEEEEEEENS_19__allocation_resultINS_16allocator_traitsIT_E7pointerEEERSA_m, symObjAddr: 0x8A90, symBinAddr: 0x100057010, symSize: 0x40 }
  - { offsetInCU: 0xF827, offset: 0xF827, size: 0x8, addend: 0x0, symName: __ZNSt3__142__uninitialized_allocator_move_if_noexceptB7v160006INS_9allocatorINS_6vectorIP6NeuronNS1_IS4_EEEEEENS_16reverse_iteratorIPS6_EESA_SA_EET2_RT_T0_T1_SB_, symObjAddr: 0x8CD0, symBinAddr: 0x100057250, symSize: 0x180 }
  - { offsetInCU: 0xF8C6, offset: 0xF8C6, size: 0x8, addend: 0x0, symName: __ZNSt3__14swapB7v160006IPNS_6vectorIP6NeuronNS_9allocatorIS3_EEEEEENS_9enable_ifIXaasr21is_move_constructibleIT_EE5valuesr18is_move_assignableIS9_EE5valueEvE4typeERS9_SC_, symObjAddr: 0x8EA0, symBinAddr: 0x100057420, symSize: 0x40 }
  - { offsetInCU: 0xF917, offset: 0xF917, size: 0x8, addend: 0x0, symName: __ZNSt3__125__debug_db_invalidate_allB7v160006INS_6vectorINS1_IP6NeuronNS_9allocatorIS3_EEEENS4_IS6_EEEEEEvPT_, symObjAddr: 0x8F80, symBinAddr: 0x100057500, symSize: 0x10 }
  - { offsetInCU: 0xF948, offset: 0xF948, size: 0x8, addend: 0x0, symName: __ZNSt3__122__make_exception_guardB7v160006INS_29_AllocatorDestroyRangeReverseINS_9allocatorINS_6vectorIP6NeuronNS2_IS5_EEEEEENS_16reverse_iteratorIPS7_EEEEEENS_28__exception_guard_exceptionsIT_EESE_, symObjAddr: 0x8FD0, symBinAddr: 0x100057550, symSize: 0x60 }
  - { offsetInCU: 0xF97D, offset: 0xF97D, size: 0x8, addend: 0x0, symName: __ZNSt3__1neB7v160006IPNS_6vectorIP6NeuronNS_9allocatorIS3_EEEES7_EEbRKNS_16reverse_iteratorIT_EERKNS8_IT0_EE, symObjAddr: 0x9070, symBinAddr: 0x1000575F0, symSize: 0x40 }
  - { offsetInCU: 0xF9C9, offset: 0xF9C9, size: 0x8, addend: 0x0, symName: __ZNSt3__112__to_addressB7v160006INS_16reverse_iteratorIPNS_6vectorIP6NeuronNS_9allocatorIS4_EEEEEEvEENS_5decayIDTclsr19__to_address_helperIT_EE6__callclsr3stdE7declvalIRKSB_EEEEE4typeESD_, symObjAddr: 0x90E0, symBinAddr: 0x100057660, symSize: 0x20 }
  - { offsetInCU: 0xF9FF, offset: 0xF9FF, size: 0x8, addend: 0x0, symName: __ZNSt3__115__debug_db_swapB7v160006INS_6vectorIP6NeuronNS_9allocatorIS3_EEEEEEvPT_S8_, symObjAddr: 0x9380, symBinAddr: 0x100057900, symSize: 0x10 }
  - { offsetInCU: 0xFA67, offset: 0xFA67, size: 0x8, addend: 0x0, symName: __ZNSt3__119__allocator_destroyB7v160006INS_9allocatorINS_6vectorIP6NeuronNS1_IS4_EEEEEENS_16reverse_iteratorINS8_IPS6_EEEESB_EEvRT_T0_T1_, symObjAddr: 0x9520, symBinAddr: 0x100057AA0, symSize: 0x70 }
  - { offsetInCU: 0xFACA, offset: 0xFACA, size: 0x8, addend: 0x0, symName: __ZNSt3__1neB7v160006INS_16reverse_iteratorIPNS_6vectorIP6NeuronNS_9allocatorIS4_EEEEEES9_EEbRKNS1_IT_EERKNS1_IT0_EE, symObjAddr: 0x95C0, symBinAddr: 0x100057B40, symSize: 0x50 }
  - { offsetInCU: 0xFB16, offset: 0xFB16, size: 0x8, addend: 0x0, symName: __ZNSt3__112__to_addressB7v160006INS_16reverse_iteratorINS1_IPNS_6vectorIP6NeuronNS_9allocatorIS4_EEEEEEEEvEENS_5decayIDTclsr19__to_address_helperIT_EE6__callclsr3stdE7declvalIRKSC_EEEEE4typeESE_, symObjAddr: 0x9640, symBinAddr: 0x100057BC0, symSize: 0x20 }
  - { offsetInCU: 0xFB75, offset: 0xFB75, size: 0x8, addend: 0x0, symName: __ZNSt3__112__to_addressB7v160006IP6WeightEEPT_S4_, symObjAddr: 0x9CB0, symBinAddr: 0x100058230, symSize: 0x10 }
  - { offsetInCU: 0xFBAA, offset: 0xFBAA, size: 0x8, addend: 0x0, symName: __ZNSt3__119__allocate_at_leastB7v160006INS_9allocatorIP6WeightEEEENS_19__allocation_resultINS_16allocator_traitsIT_E7pointerEEERS7_m, symObjAddr: 0xA250, symBinAddr: 0x1000587D0, symSize: 0x40 }
  - { offsetInCU: 0xFBED, offset: 0xFBED, size: 0x8, addend: 0x0, symName: __ZNSt3__142__uninitialized_allocator_move_if_noexceptB7v160006INS_9allocatorIP6WeightEENS_16reverse_iteratorIPS3_EES7_S3_vEET1_RT_T0_SB_S8_, symObjAddr: 0xA490, symBinAddr: 0x100058A10, symSize: 0x70 }
  - { offsetInCU: 0xFC69, offset: 0xFC69, size: 0x8, addend: 0x0, symName: __ZNSt3__14swapB7v160006IPP6WeightEENS_9enable_ifIXaasr21is_move_constructibleIT_EE5valuesr18is_move_assignableIS5_EE5valueEvE4typeERS5_S8_, symObjAddr: 0xA550, symBinAddr: 0x100058AD0, symSize: 0x40 }
  - { offsetInCU: 0xFCBA, offset: 0xFCBA, size: 0x8, addend: 0x0, symName: __ZNSt3__125__debug_db_invalidate_allB7v160006INS_6vectorIP6WeightNS_9allocatorIS3_EEEEEEvPT_, symObjAddr: 0xA640, symBinAddr: 0x100058BC0, symSize: 0x10 }
  - { offsetInCU: 0xFCEB, offset: 0xFCEB, size: 0x8, addend: 0x0, symName: __ZNSt3__14moveB7v160006INS_16reverse_iteratorIPP6WeightEES5_EET0_T_S7_S6_, symObjAddr: 0xA690, symBinAddr: 0x100058C10, symSize: 0x80 }
  - { offsetInCU: 0xFD45, offset: 0xFD45, size: 0x8, addend: 0x0, symName: __ZNSt3__16__moveB7v160006INS_17_ClassicAlgPolicyENS_16reverse_iteratorIPP6WeightEES6_S6_EENS_4pairIT0_T2_EES8_T1_S9_, symObjAddr: 0xA710, symBinAddr: 0x100058C90, symSize: 0x90 }
  - { offsetInCU: 0xFDB1, offset: 0xFDB1, size: 0x8, addend: 0x0, symName: __ZNSt3__123__dispatch_copy_or_moveB7v160006INS_17_ClassicAlgPolicyENS_11__move_loopIS1_EENS_14__move_trivialENS_16reverse_iteratorIPP6WeightEES9_S9_EENS_4pairIT2_T4_EESB_T3_SC_, symObjAddr: 0xA7A0, symBinAddr: 0x100058D20, symSize: 0x90 }
  - { offsetInCU: 0xFE2F, offset: 0xFE2F, size: 0x8, addend: 0x0, symName: __ZNSt3__121__unwrap_and_dispatchB7v160006INS_10__overloadINS_11__move_loopINS_17_ClassicAlgPolicyEEENS_14__move_trivialEEENS_16reverse_iteratorIPP6WeightEESB_SB_Li0EEENS_4pairIT0_T2_EESD_T1_SE_, symObjAddr: 0xA830, symBinAddr: 0x100058DB0, symSize: 0x210 }
  - { offsetInCU: 0xFEBE, offset: 0xFEBE, size: 0x8, addend: 0x0, symName: __ZNSt3__114__unwrap_rangeB7v160006INS_16reverse_iteratorIPP6WeightEES5_EENS_4pairIT0_S7_EET_S9_, symObjAddr: 0xAA40, symBinAddr: 0x100058FC0, symSize: 0x90 }
  - { offsetInCU: 0xFFDE, offset: 0xFFDE, size: 0x8, addend: 0x0, symName: __ZNSt3__113__unwrap_iterB7v160006INS_16reverse_iteratorIPP6WeightEENS_18__unwrap_iter_implIS5_Lb0EEELi0EEEDTclsrT0_8__unwrapclsr3stdE7declvalIT_EEEES9_, symObjAddr: 0xAB70, symBinAddr: 0x1000590F0, symSize: 0x40 }
  - { offsetInCU: 0x10022, offset: 0x10022, size: 0x8, addend: 0x0, symName: __ZNSt3__19make_pairB7v160006INS_16reverse_iteratorIPP6WeightEES5_EENS_4pairINS_18__unwrap_ref_decayIT_E4typeENS7_IT0_E4typeEEEOS8_OSB_, symObjAddr: 0xABB0, symBinAddr: 0x100059130, symSize: 0x30 }
  - { offsetInCU: 0x10071, offset: 0x10071, size: 0x8, addend: 0x0, symName: __ZNSt3__114__rewrap_rangeB7v160006INS_16reverse_iteratorIPP6WeightEES5_EET_S6_T0_, symObjAddr: 0xABE0, symBinAddr: 0x100059160, symSize: 0x60 }
  - { offsetInCU: 0x100BD, offset: 0x100BD, size: 0x8, addend: 0x0, symName: __ZNSt3__113__rewrap_iterB7v160006INS_16reverse_iteratorIPP6WeightEES5_NS_18__unwrap_iter_implIS5_Lb0EEEEET_S8_T0_, symObjAddr: 0xAC40, symBinAddr: 0x1000591C0, symSize: 0x70 }
  - { offsetInCU: 0x10112, offset: 0x10112, size: 0x8, addend: 0x0, symName: __ZNSt3__1neB7v160006IPP6WeightS3_EEbRKNS_16reverse_iteratorIT_EERKNS4_IT0_EE, symObjAddr: 0xACB0, symBinAddr: 0x100059230, symSize: 0x40 }
  - { offsetInCU: 0x101CA, offset: 0x101CA, size: 0x8, addend: 0x0, symName: __ZNSt3__118__debug_db_erase_cB7v160006INS_6vectorINS1_IP6NeuronNS_9allocatorIS3_EEEENS4_IS6_EEEEEEvPT_, symObjAddr: 0xB1E0, symBinAddr: 0x100059760, symSize: 0x10 }
  - { offsetInCU: 0x101FB, offset: 0x101FB, size: 0x8, addend: 0x0, symName: __ZNSt3__110make_tupleB7v160006IJDniEEENS_5tupleIJDpNS_18__unwrap_ref_decayIT_E4typeEEEEDpOS3_, symObjAddr: 0xB760, symBinAddr: 0x100059CE0, symSize: 0x30 }
  - { offsetInCU: 0x1065F, offset: 0x1065F, size: 0x8, addend: 0x0, symName: __ZNSt3__122__make_exception_guardB7v160006INS_6vectorIP6WeightNS_9allocatorIS3_EEE16__destroy_vectorEEENS_28__exception_guard_exceptionsIT_EES9_, symObjAddr: 0xC110, symBinAddr: 0x10005A690, symSize: 0x40 }
  - { offsetInCU: 0x10694, offset: 0x10694, size: 0x8, addend: 0x0, symName: __ZNSt3__130__uninitialized_allocator_copyB7v160006INS_9allocatorIP6WeightEEPS3_S5_S5_EET2_RT_T0_T1_S6_, symObjAddr: 0xC3B0, symBinAddr: 0x10005A930, symSize: 0x100 }
  - { offsetInCU: 0x10732, offset: 0x10732, size: 0x8, addend: 0x0, symName: __ZNSt3__122__make_exception_guardB7v160006INS_29_AllocatorDestroyRangeReverseINS_9allocatorIP6WeightEEPS4_EEEENS_28__exception_guard_exceptionsIT_EES9_, symObjAddr: 0xC4B0, symBinAddr: 0x10005AA30, symSize: 0x60 }
  - { offsetInCU: 0x10767, offset: 0x10767, size: 0x8, addend: 0x0, symName: __ZNSt3__119__allocator_destroyB7v160006INS_9allocatorIP6WeightEENS_16reverse_iteratorIPS3_EES7_EEvRT_T0_T1_, symObjAddr: 0xC730, symBinAddr: 0x10005ACB0, symSize: 0x70 }
  - { offsetInCU: 0x107CA, offset: 0x107CA, size: 0x8, addend: 0x0, symName: __ZNSt3__112__to_addressB7v160006INS_16reverse_iteratorIPP6WeightEEvEENS_5decayIDTclsr19__to_address_helperIT_EE6__callclsr3stdE7declvalIRKS7_EEEEE4typeES9_, symObjAddr: 0xC7A0, symBinAddr: 0x10005AD20, symSize: 0x20 }
  - { offsetInCU: 0x10829, offset: 0x10829, size: 0x8, addend: 0x0, symName: __ZNSt3__118__debug_db_erase_cB7v160006INS_6vectorIP6WeightNS_9allocatorIS3_EEEEEEvPT_, symObjAddr: 0xC8F0, symBinAddr: 0x10005AE70, symSize: 0x10 }
  - { offsetInCU: 0x1085A, offset: 0x1085A, size: 0x8, addend: 0x0, symName: __ZNSt3__110make_tupleB7v160006IJDnfEEENS_5tupleIJDpNS_18__unwrap_ref_decayIT_E4typeEEEEDpOS3_, symObjAddr: 0xD050, symBinAddr: 0x10005B5D0, symSize: 0x30 }
  - { offsetInCU: 0x10A7C, offset: 0x10A7C, size: 0x8, addend: 0x0, symName: __ZNSt3__110make_tupleB7v160006IJRP6EntityfEEENS_5tupleIJDpNS_18__unwrap_ref_decayIT_E4typeEEEEDpOS6_, symObjAddr: 0xD1B0, symBinAddr: 0x10005B730, symSize: 0x30 }
  - { offsetInCU: 0x10AC9, offset: 0x10AC9, size: 0x8, addend: 0x0, symName: __ZNSt3__125__debug_db_invalidate_allB7v160006INS_6vectorIP6EntityNS_9allocatorIS3_EEEEEEvPT_, symObjAddr: 0xD2E0, symBinAddr: 0x10005B860, symSize: 0x10 }
  - { offsetInCU: 0x10AFA, offset: 0x10AFA, size: 0x8, addend: 0x0, symName: __ZNSt3__112__to_addressB7v160006IP6EntityEEPT_S4_, symObjAddr: 0xD3C0, symBinAddr: 0x10005B940, symSize: 0x10 }
  - { offsetInCU: 0x10B49, offset: 0x10B49, size: 0x8, addend: 0x0, symName: __ZNSt3__127__memberwise_forward_assignB7v160006INS_5tupleIJP6EntityfEEENS1_IJDnfEEEJDnfEJLm0ELm1EEEEvRT_OT0_NS_13__tuple_typesIJDpT1_EEENS_15__tuple_indicesIJXspT2_EEEE, symObjAddr: 0xD5C0, symBinAddr: 0x10005BB40, symSize: 0x70 }
  - { offsetInCU: 0x10BCC, offset: 0x10BCC, size: 0x8, addend: 0x0, symName: __ZNSt3__19__swallowB7v160006IJiiEEEvDpOT_, symObjAddr: 0xD630, symBinAddr: 0x10005BBB0, symSize: 0x10 }
  - { offsetInCU: 0x10C0D, offset: 0x10C0D, size: 0x8, addend: 0x0, symName: __ZNSt3__13getB7v160006ILm0EJDnfEEERNS_13tuple_elementIXT_ENS_5tupleIJDpT0_EEEE4typeERS5_, symObjAddr: 0xD640, symBinAddr: 0x10005BBC0, symSize: 0x20 }
  - { offsetInCU: 0x10C54, offset: 0x10C54, size: 0x8, addend: 0x0, symName: __ZNSt3__13getB7v160006ILm0EJP6EntityfEEERNS_13tuple_elementIXT_ENS_5tupleIJDpT0_EEEE4typeERS7_, symObjAddr: 0xD660, symBinAddr: 0x10005BBE0, symSize: 0x20 }
  - { offsetInCU: 0x10C9B, offset: 0x10C9B, size: 0x8, addend: 0x0, symName: __ZNSt3__13getB7v160006ILm1EJDnfEEERNS_13tuple_elementIXT_ENS_5tupleIJDpT0_EEEE4typeERS5_, symObjAddr: 0xD680, symBinAddr: 0x10005BC00, symSize: 0x20 }
  - { offsetInCU: 0x10CE2, offset: 0x10CE2, size: 0x8, addend: 0x0, symName: __ZNSt3__13getB7v160006ILm1EJP6EntityfEEERNS_13tuple_elementIXT_ENS_5tupleIJDpT0_EEEE4typeERS7_, symObjAddr: 0xD6A0, symBinAddr: 0x10005BC20, symSize: 0x20 }
  - { offsetInCU: 0x10D44, offset: 0x10D44, size: 0x8, addend: 0x0, symName: __ZNSt3__127__memberwise_forward_assignB7v160006INS_5tupleIJP6EntityfEEES4_JS3_fEJLm0ELm1EEEEvRT_OT0_NS_13__tuple_typesIJDpT1_EEENS_15__tuple_indicesIJXspT2_EEEE, symObjAddr: 0xD7E0, symBinAddr: 0x10005BD60, symSize: 0x80 }
  - { offsetInCU: 0x10DC7, offset: 0x10DC7, size: 0x8, addend: 0x0, symName: __ZNSt3__116__pad_and_outputB7v160006IcNS_11char_traitsIcEEEENS_19ostreambuf_iteratorIT_T0_EES6_PKS4_S8_S8_RNS_8ios_baseES4_, symObjAddr: 0xE6D0, symBinAddr: 0x10005CC50, symSize: 0x220 }
  - { offsetInCU: 0x10E97, offset: 0x10E97, size: 0x8, addend: 0x0, symName: __ZNSt3__112__to_addressB7v160006IKcEEPT_S3_, symObjAddr: 0xEB30, symBinAddr: 0x10005D0B0, symSize: 0x10 }
  - { offsetInCU: 0x10EFF, offset: 0x10EFF, size: 0x8, addend: 0x0, symName: __ZNSt3__19use_facetB7v160006INS_5ctypeIcEEEERKT_RKNS_6localeE, symObjAddr: 0xED90, symBinAddr: 0x10005D310, symSize: 0x30 }
  - { offsetInCU: 0x113CE, offset: 0x113CE, size: 0x8, addend: 0x0, symName: __ZNSt3__119__debug_db_insert_cB7v160006INS_6vectorIP6EntityNS_9allocatorIS3_EEEEEEvPT_, symObjAddr: 0xEEB0, symBinAddr: 0x10005D430, symSize: 0x10 }
  - { offsetInCU: 0x113FF, offset: 0x113FF, size: 0x8, addend: 0x0, symName: __ZNSt3__118__debug_db_erase_cB7v160006INS_6vectorIP6EntityNS_9allocatorIS3_EEEEEEvPT_, symObjAddr: 0xF140, symBinAddr: 0x10005D6C0, symSize: 0x10 }
  - { offsetInCU: 0x11430, offset: 0x11430, size: 0x8, addend: 0x0, symName: __ZNSt3__118__debug_db_erase_cB7v160006INS_6vectorIfNS_9allocatorIfEEEEEEvPT_, symObjAddr: 0xF390, symBinAddr: 0x10005D910, symSize: 0x10 }
  - { offsetInCU: 0x11461, offset: 0x11461, size: 0x8, addend: 0x0, symName: __ZNSt3__112__to_addressB7v160006IfEEPT_S2_, symObjAddr: 0xF4A0, symBinAddr: 0x10005DA20, symSize: 0x10 }
  - { offsetInCU: 0x11496, offset: 0x11496, size: 0x8, addend: 0x0, symName: __ZNSt3__14findB7v160006INS_11__wrap_iterIPP6EntityEES3_EET_S6_S6_RKT0_, symObjAddr: 0xF6B0, symBinAddr: 0x10005DC30, symSize: 0x80 }
  - { offsetInCU: 0x114F0, offset: 0x114F0, size: 0x8, addend: 0x0, symName: __ZNSt3__1neB7v160006IPP6EntityEEbRKNS_11__wrap_iterIT_EES8_, symObjAddr: 0xF730, symBinAddr: 0x10005DCB0, symSize: 0x30 }
  - { offsetInCU: 0x11533, offset: 0x11533, size: 0x8, addend: 0x0, symName: __ZNSt3__1eqB7v160006IPP6EntityEEbRKNS_11__wrap_iterIT_EES8_, symObjAddr: 0xF7A0, symBinAddr: 0x10005DD20, symSize: 0x40 }
  - { offsetInCU: 0x11576, offset: 0x11576, size: 0x8, addend: 0x0, symName: __ZNSt3__1miB7v160006IPKP6EntityPS2_EEDTmicldtfp_4baseEcldtfp0_4baseEERKNS_11__wrap_iterIT_EERKNS7_IT0_EE, symObjAddr: 0xF800, symBinAddr: 0x10005DD80, symSize: 0x40 }
  - { offsetInCU: 0x115C2, offset: 0x115C2, size: 0x8, addend: 0x0, symName: __ZNSt3__1neB7v160006IPKP6EntityEEbRKNS_11__wrap_iterIT_EES9_, symObjAddr: 0xF840, symBinAddr: 0x10005DDC0, symSize: 0x30 }
  - { offsetInCU: 0x11605, offset: 0x11605, size: 0x8, addend: 0x0, symName: __ZNSt3__14moveB7v160006IPP6EntityS3_EET0_T_S5_S4_, symObjAddr: 0xF8D0, symBinAddr: 0x10005DE50, symSize: 0x40 }
  - { offsetInCU: 0x1165F, offset: 0x1165F, size: 0x8, addend: 0x0, symName: __ZNSt3__1miB7v160006IPKP6EntityS4_EEDTmicldtfp_4baseEcldtfp0_4baseEERKNS_11__wrap_iterIT_EERKNS6_IT0_EE, symObjAddr: 0xF910, symBinAddr: 0x10005DE90, symSize: 0x40 }
  - { offsetInCU: 0x116AB, offset: 0x116AB, size: 0x8, addend: 0x0, symName: __ZNSt3__1eqB7v160006IPKP6EntityEEbRKNS_11__wrap_iterIT_EES9_, symObjAddr: 0xF980, symBinAddr: 0x10005DF00, symSize: 0x40 }
  - { offsetInCU: 0x116EE, offset: 0x116EE, size: 0x8, addend: 0x0, symName: __ZNSt3__16__moveB7v160006INS_17_ClassicAlgPolicyEPP6EntityS4_S4_EENS_4pairIT0_T2_EES6_T1_S7_, symObjAddr: 0xF9C0, symBinAddr: 0x10005DF40, symSize: 0x40 }
  - { offsetInCU: 0x1175A, offset: 0x1175A, size: 0x8, addend: 0x0, symName: __ZNSt3__123__dispatch_copy_or_moveB7v160006INS_17_ClassicAlgPolicyENS_11__move_loopIS1_EENS_14__move_trivialEPP6EntityS7_S7_EENS_4pairIT2_T4_EES9_T3_SA_, symObjAddr: 0xFA00, symBinAddr: 0x10005DF80, symSize: 0x40 }
  - { offsetInCU: 0x117D8, offset: 0x117D8, size: 0x8, addend: 0x0, symName: __ZNSt3__121__unwrap_and_dispatchB7v160006INS_10__overloadINS_11__move_loopINS_17_ClassicAlgPolicyEEENS_14__move_trivialEEEPP6EntityS9_S9_Li0EEENS_4pairIT0_T2_EESB_T1_SC_, symObjAddr: 0xFA40, symBinAddr: 0x10005DFC0, symSize: 0xB0 }
  - { offsetInCU: 0x11867, offset: 0x11867, size: 0x8, addend: 0x0, symName: __ZNSt3__114__unwrap_rangeB7v160006IPP6EntityS3_EENS_4pairIT0_S5_EET_S7_, symObjAddr: 0xFAF0, symBinAddr: 0x10005E070, symSize: 0x50 }
  - { offsetInCU: 0x119FC, offset: 0x119FC, size: 0x8, addend: 0x0, symName: __ZNSt3__113__unwrap_iterB7v160006IPP6EntityNS_18__unwrap_iter_implIS3_Lb1EEELi0EEEDTclsrT0_8__unwrapclsr3stdE7declvalIT_EEEES7_, symObjAddr: 0xFB80, symBinAddr: 0x10005E100, symSize: 0x20 }
  - { offsetInCU: 0x11A40, offset: 0x11A40, size: 0x8, addend: 0x0, symName: __ZNSt3__19make_pairB7v160006IPP6EntityS3_EENS_4pairINS_18__unwrap_ref_decayIT_E4typeENS5_IT0_E4typeEEEOS6_OS9_, symObjAddr: 0xFBA0, symBinAddr: 0x10005E120, symSize: 0x30 }
  - { offsetInCU: 0x11A8F, offset: 0x11A8F, size: 0x8, addend: 0x0, symName: __ZNSt3__114__rewrap_rangeB7v160006IPP6EntityS3_EET_S4_T0_, symObjAddr: 0xFBD0, symBinAddr: 0x10005E150, symSize: 0x30 }
  - { offsetInCU: 0x11ADB, offset: 0x11ADB, size: 0x8, addend: 0x0, symName: __ZNSt3__113__rewrap_iterB7v160006IPP6EntityS3_NS_18__unwrap_iter_implIS3_Lb1EEEEET_S6_T0_, symObjAddr: 0xFC00, symBinAddr: 0x10005E180, symSize: 0x40 }
  - { offsetInCU: 0x11B30, offset: 0x11B30, size: 0x8, addend: 0x0, symName: __ZNSt3__119__copy_trivial_implB7v160006IP6EntityS2_EENS_4pairIPT_PT0_EES5_S5_S7_, symObjAddr: 0xFC40, symBinAddr: 0x10005E1C0, symSize: 0x70 }
  - { offsetInCU: 0x11B98, offset: 0x11B98, size: 0x8, addend: 0x0, symName: __ZNSt3__19make_pairB7v160006IRPP6EntityS3_EENS_4pairINS_18__unwrap_ref_decayIT_E4typeENS6_IT0_E4typeEEEOS7_OSA_, symObjAddr: 0xFCB0, symBinAddr: 0x10005E230, symSize: 0x30 }
  - { offsetInCU: 0x11C3A, offset: 0x11C3A, size: 0x8, addend: 0x0, symName: __ZNSt3__119__allocate_at_leastB7v160006INS_9allocatorIP6EntityEEEENS_19__allocation_resultINS_16allocator_traitsIT_E7pointerEEERS7_m, symObjAddr: 0x10540, symBinAddr: 0x10005EAC0, symSize: 0x40 }
  - { offsetInCU: 0x11C7D, offset: 0x11C7D, size: 0x8, addend: 0x0, symName: __ZNSt3__142__uninitialized_allocator_move_if_noexceptB7v160006INS_9allocatorIP6EntityEENS_16reverse_iteratorIPS3_EES7_S3_vEET1_RT_T0_SB_S8_, symObjAddr: 0x106D0, symBinAddr: 0x10005EC50, symSize: 0x70 }
  - { offsetInCU: 0x11CF9, offset: 0x11CF9, size: 0x8, addend: 0x0, symName: __ZNSt3__14swapB7v160006IPP6EntityEENS_9enable_ifIXaasr21is_move_constructibleIT_EE5valuesr18is_move_assignableIS5_EE5valueEvE4typeERS5_S8_, symObjAddr: 0x10790, symBinAddr: 0x10005ED10, symSize: 0x40 }
  - { offsetInCU: 0x11D4A, offset: 0x11D4A, size: 0x8, addend: 0x0, symName: __ZNSt3__14moveB7v160006INS_16reverse_iteratorIPP6EntityEES5_EET0_T_S7_S6_, symObjAddr: 0x10880, symBinAddr: 0x10005EE00, symSize: 0x80 }
  - { offsetInCU: 0x11DA4, offset: 0x11DA4, size: 0x8, addend: 0x0, symName: __ZNSt3__16__moveB7v160006INS_17_ClassicAlgPolicyENS_16reverse_iteratorIPP6EntityEES6_S6_EENS_4pairIT0_T2_EES8_T1_S9_, symObjAddr: 0x10900, symBinAddr: 0x10005EE80, symSize: 0x90 }
  - { offsetInCU: 0x11E10, offset: 0x11E10, size: 0x8, addend: 0x0, symName: __ZNSt3__123__dispatch_copy_or_moveB7v160006INS_17_ClassicAlgPolicyENS_11__move_loopIS1_EENS_14__move_trivialENS_16reverse_iteratorIPP6EntityEES9_S9_EENS_4pairIT2_T4_EESB_T3_SC_, symObjAddr: 0x10990, symBinAddr: 0x10005EF10, symSize: 0x90 }
  - { offsetInCU: 0x11E8E, offset: 0x11E8E, size: 0x8, addend: 0x0, symName: __ZNSt3__121__unwrap_and_dispatchB7v160006INS_10__overloadINS_11__move_loopINS_17_ClassicAlgPolicyEEENS_14__move_trivialEEENS_16reverse_iteratorIPP6EntityEESB_SB_Li0EEENS_4pairIT0_T2_EESD_T1_SE_, symObjAddr: 0x10A20, symBinAddr: 0x10005EFA0, symSize: 0x210 }
  - { offsetInCU: 0x11F1D, offset: 0x11F1D, size: 0x8, addend: 0x0, symName: __ZNSt3__114__unwrap_rangeB7v160006INS_16reverse_iteratorIPP6EntityEES5_EENS_4pairIT0_S7_EET_S9_, symObjAddr: 0x10C30, symBinAddr: 0x10005F1B0, symSize: 0x90 }
  - { offsetInCU: 0x1203D, offset: 0x1203D, size: 0x8, addend: 0x0, symName: __ZNSt3__113__unwrap_iterB7v160006INS_16reverse_iteratorIPP6EntityEENS_18__unwrap_iter_implIS5_Lb0EEELi0EEEDTclsrT0_8__unwrapclsr3stdE7declvalIT_EEEES9_, symObjAddr: 0x10D60, symBinAddr: 0x10005F2E0, symSize: 0x40 }
  - { offsetInCU: 0x12081, offset: 0x12081, size: 0x8, addend: 0x0, symName: __ZNSt3__19make_pairB7v160006INS_16reverse_iteratorIPP6EntityEES5_EENS_4pairINS_18__unwrap_ref_decayIT_E4typeENS7_IT0_E4typeEEEOS8_OSB_, symObjAddr: 0x10DA0, symBinAddr: 0x10005F320, symSize: 0x30 }
  - { offsetInCU: 0x120D0, offset: 0x120D0, size: 0x8, addend: 0x0, symName: __ZNSt3__114__rewrap_rangeB7v160006INS_16reverse_iteratorIPP6EntityEES5_EET_S6_T0_, symObjAddr: 0x10DD0, symBinAddr: 0x10005F350, symSize: 0x60 }
  - { offsetInCU: 0x1211C, offset: 0x1211C, size: 0x8, addend: 0x0, symName: __ZNSt3__113__rewrap_iterB7v160006INS_16reverse_iteratorIPP6EntityEES5_NS_18__unwrap_iter_implIS5_Lb0EEEEET_S8_T0_, symObjAddr: 0x10E30, symBinAddr: 0x10005F3B0, symSize: 0x70 }
  - { offsetInCU: 0x12171, offset: 0x12171, size: 0x8, addend: 0x0, symName: __ZNSt3__1neB7v160006IPP6EntityS3_EEbRKNS_16reverse_iteratorIT_EERKNS4_IT0_EE, symObjAddr: 0x10EA0, symBinAddr: 0x10005F420, symSize: 0x40 }
  - { offsetInCU: 0x12229, offset: 0x12229, size: 0x8, addend: 0x0, symName: __ZNSt3__122__make_exception_guardB7v160006INS_6vectorIP6EntityNS_9allocatorIS3_EEE16__destroy_vectorEEENS_28__exception_guard_exceptionsIT_EES9_, symObjAddr: 0x11350, symBinAddr: 0x10005F8D0, symSize: 0x40 }
  - { offsetInCU: 0x1225E, offset: 0x1225E, size: 0x8, addend: 0x0, symName: __ZNSt3__130__uninitialized_allocator_copyB7v160006INS_9allocatorIP6EntityEEPS3_S5_S5_EET2_RT_T0_T1_S6_, symObjAddr: 0x115A0, symBinAddr: 0x10005FB20, symSize: 0x100 }
  - { offsetInCU: 0x122FC, offset: 0x122FC, size: 0x8, addend: 0x0, symName: __ZNSt3__122__make_exception_guardB7v160006INS_29_AllocatorDestroyRangeReverseINS_9allocatorIP6EntityEEPS4_EEEENS_28__exception_guard_exceptionsIT_EES9_, symObjAddr: 0x116A0, symBinAddr: 0x10005FC20, symSize: 0x60 }
  - { offsetInCU: 0x12331, offset: 0x12331, size: 0x8, addend: 0x0, symName: __ZNSt3__119__allocator_destroyB7v160006INS_9allocatorIP6EntityEENS_16reverse_iteratorIPS3_EES7_EEvRT_T0_T1_, symObjAddr: 0x11920, symBinAddr: 0x10005FEA0, symSize: 0x70 }
  - { offsetInCU: 0x12394, offset: 0x12394, size: 0x8, addend: 0x0, symName: __ZNSt3__112__to_addressB7v160006INS_16reverse_iteratorIPP6EntityEEvEENS_5decayIDTclsr19__to_address_helperIT_EE6__callclsr3stdE7declvalIRKS7_EEEEE4typeES9_, symObjAddr: 0x11990, symBinAddr: 0x10005FF10, symSize: 0x20 }
  - { offsetInCU: 0x123F3, offset: 0x123F3, size: 0x8, addend: 0x0, symName: __ZNSt3__130__uninitialized_allocator_copyB7v160006INS_9allocatorIP6EntityEES3_S3_LPv0EEEPT0_RT_PKS6_SB_S7_, symObjAddr: 0x11E10, symBinAddr: 0x100060390, symSize: 0x30 }
  - { offsetInCU: 0x1246B, offset: 0x1246B, size: 0x8, addend: 0x0, symName: __ZNSt3__14copyB7v160006IPKP6EntityPS2_EET0_T_S7_S6_, symObjAddr: 0x11E40, symBinAddr: 0x1000603C0, symSize: 0x40 }
  - { offsetInCU: 0x124C5, offset: 0x124C5, size: 0x8, addend: 0x0, symName: __ZNSt3__16__copyB7v160006INS_17_ClassicAlgPolicyEPKP6EntityS5_PS3_EENS_4pairIT0_T2_EES8_T1_S9_, symObjAddr: 0x11E80, symBinAddr: 0x100060400, symSize: 0x40 }
  - { offsetInCU: 0x12531, offset: 0x12531, size: 0x8, addend: 0x0, symName: __ZNSt3__123__dispatch_copy_or_moveB7v160006INS_17_ClassicAlgPolicyENS_11__copy_loopIS1_EENS_14__copy_trivialEPKP6EntityS8_PS6_EENS_4pairIT2_T4_EESB_T3_SC_, symObjAddr: 0x11EC0, symBinAddr: 0x100060440, symSize: 0x40 }
  - { offsetInCU: 0x125AF, offset: 0x125AF, size: 0x8, addend: 0x0, symName: __ZNSt3__121__unwrap_and_dispatchB7v160006INS_10__overloadINS_11__copy_loopINS_17_ClassicAlgPolicyEEENS_14__copy_trivialEEEPKP6EntitySA_PS8_Li0EEENS_4pairIT0_T2_EESD_T1_SE_, symObjAddr: 0x11F00, symBinAddr: 0x100060480, symSize: 0xB0 }
  - { offsetInCU: 0x1263E, offset: 0x1263E, size: 0x8, addend: 0x0, symName: __ZNSt3__114__unwrap_rangeB7v160006IPKP6EntityS4_EENS_4pairIT0_S6_EET_S8_, symObjAddr: 0x11FB0, symBinAddr: 0x100060530, symSize: 0x50 }
  - { offsetInCU: 0x1280F, offset: 0x1280F, size: 0x8, addend: 0x0, symName: __ZNSt3__19make_pairB7v160006IPKP6EntityPS2_EENS_4pairINS_18__unwrap_ref_decayIT_E4typeENS7_IT0_E4typeEEEOS8_OSB_, symObjAddr: 0x12040, symBinAddr: 0x1000605C0, symSize: 0x30 }
  - { offsetInCU: 0x1285E, offset: 0x1285E, size: 0x8, addend: 0x0, symName: __ZNSt3__114__rewrap_rangeB7v160006IPKP6EntityS4_EET_S5_T0_, symObjAddr: 0x12070, symBinAddr: 0x1000605F0, symSize: 0x30 }
  - { offsetInCU: 0x128AA, offset: 0x128AA, size: 0x8, addend: 0x0, symName: __ZNSt3__19make_pairB7v160006IPKP6EntityS4_EENS_4pairINS_18__unwrap_ref_decayIT_E4typeENS6_IT0_E4typeEEEOS7_OSA_, symObjAddr: 0x120A0, symBinAddr: 0x100060620, symSize: 0x30 }
  - { offsetInCU: 0x128F9, offset: 0x128F9, size: 0x8, addend: 0x0, symName: __ZNSt3__113__unwrap_iterB7v160006IPKP6EntityNS_18__unwrap_iter_implIS4_Lb1EEELi0EEEDTclsrT0_8__unwrapclsr3stdE7declvalIT_EEEES8_, symObjAddr: 0x120D0, symBinAddr: 0x100060650, symSize: 0x20 }
  - { offsetInCU: 0x12A64, offset: 0x12A64, size: 0x8, addend: 0x0, symName: __ZNSt3__112__to_addressB7v160006IKP6EntityEEPT_S5_, symObjAddr: 0x12170, symBinAddr: 0x1000606F0, symSize: 0x10 }
  - { offsetInCU: 0x12A99, offset: 0x12A99, size: 0x8, addend: 0x0, symName: __ZNSt3__119__copy_trivial_implB7v160006IKP6EntityS2_EENS_4pairIPT_PT0_EES6_S6_S8_, symObjAddr: 0x12180, symBinAddr: 0x100060700, symSize: 0x70 }
  - { offsetInCU: 0x12B01, offset: 0x12B01, size: 0x8, addend: 0x0, symName: __ZNSt3__19make_pairB7v160006IRPKP6EntityPS2_EENS_4pairINS_18__unwrap_ref_decayIT_E4typeENS8_IT0_E4typeEEEOS9_OSC_, symObjAddr: 0x121F0, symBinAddr: 0x100060770, symSize: 0x30 }
  - { offsetInCU: 0x12B50, offset: 0x12B50, size: 0x8, addend: 0x0, symName: __ZNSt3__113__rewrap_iterB7v160006IPKP6EntityS4_NS_18__unwrap_iter_implIS4_Lb1EEEEET_S7_T0_, symObjAddr: 0x122E0, symBinAddr: 0x100060860, symSize: 0x40 }
  - { offsetInCU: 0x12BA5, offset: 0x12BA5, size: 0x8, addend: 0x0, symName: __ZNSt3__122__make_exception_guardB7v160006INS_6vectorIfNS_9allocatorIfEEE16__destroy_vectorEEENS_28__exception_guard_exceptionsIT_EES7_, symObjAddr: 0x124C0, symBinAddr: 0x100060A40, symSize: 0x40 }
  - { offsetInCU: 0x12BDA, offset: 0x12BDA, size: 0x8, addend: 0x0, symName: __ZNSt3__119__debug_db_insert_cB7v160006INS_6vectorIfNS_9allocatorIfEEEEEEvPT_, symObjAddr: 0x12500, symBinAddr: 0x100060A80, symSize: 0x10 }
  - { offsetInCU: 0x12C0B, offset: 0x12C0B, size: 0x8, addend: 0x0, symName: __ZNSt3__119__allocate_at_leastB7v160006INS_9allocatorIfEEEENS_19__allocation_resultINS_16allocator_traitsIT_E7pointerEEERS5_m, symObjAddr: 0x12860, symBinAddr: 0x100060DE0, symSize: 0x40 }
  - { offsetInCU: 0x12C4E, offset: 0x12C4E, size: 0x8, addend: 0x0, symName: __ZNSt3__130__uninitialized_allocator_copyB7v160006INS_9allocatorIfEEffLPv0EEEPT0_RT_PKS4_S9_S5_, symObjAddr: 0x12AB0, symBinAddr: 0x100061030, symSize: 0x30 }
  - { offsetInCU: 0x12CC6, offset: 0x12CC6, size: 0x8, addend: 0x0, symName: __ZNSt3__14copyB7v160006IPKfPfEET0_T_S5_S4_, symObjAddr: 0x12B40, symBinAddr: 0x1000610C0, symSize: 0x40 }
  - { offsetInCU: 0x12D20, offset: 0x12D20, size: 0x8, addend: 0x0, symName: __ZNSt3__16__copyB7v160006INS_17_ClassicAlgPolicyEPKfS3_PfEENS_4pairIT0_T2_EES6_T1_S7_, symObjAddr: 0x12B80, symBinAddr: 0x100061100, symSize: 0x40 }
  - { offsetInCU: 0x12D8C, offset: 0x12D8C, size: 0x8, addend: 0x0, symName: __ZNSt3__123__dispatch_copy_or_moveB7v160006INS_17_ClassicAlgPolicyENS_11__copy_loopIS1_EENS_14__copy_trivialEPKfS6_PfEENS_4pairIT2_T4_EES9_T3_SA_, symObjAddr: 0x12BC0, symBinAddr: 0x100061140, symSize: 0x40 }
  - { offsetInCU: 0x12E0A, offset: 0x12E0A, size: 0x8, addend: 0x0, symName: __ZNSt3__121__unwrap_and_dispatchB7v160006INS_10__overloadINS_11__copy_loopINS_17_ClassicAlgPolicyEEENS_14__copy_trivialEEEPKfS8_PfLi0EEENS_4pairIT0_T2_EESB_T1_SC_, symObjAddr: 0x12C00, symBinAddr: 0x100061180, symSize: 0xB0 }
  - { offsetInCU: 0x12E99, offset: 0x12E99, size: 0x8, addend: 0x0, symName: __ZNSt3__114__unwrap_rangeB7v160006IPKfS2_EENS_4pairIT0_S4_EET_S6_, symObjAddr: 0x12CB0, symBinAddr: 0x100061230, symSize: 0x50 }
  - { offsetInCU: 0x12FE8, offset: 0x12FE8, size: 0x8, addend: 0x0, symName: __ZNSt3__113__unwrap_iterB7v160006IPfNS_18__unwrap_iter_implIS1_Lb1EEELi0EEEDTclsrT0_8__unwrapclsr3stdE7declvalIT_EEEES5_, symObjAddr: 0x12D40, symBinAddr: 0x1000612C0, symSize: 0x20 }
  - { offsetInCU: 0x1302C, offset: 0x1302C, size: 0x8, addend: 0x0, symName: __ZNSt3__19make_pairB7v160006IPKfPfEENS_4pairINS_18__unwrap_ref_decayIT_E4typeENS5_IT0_E4typeEEEOS6_OS9_, symObjAddr: 0x12D60, symBinAddr: 0x1000612E0, symSize: 0x30 }
  - { offsetInCU: 0x1307B, offset: 0x1307B, size: 0x8, addend: 0x0, symName: __ZNSt3__114__rewrap_rangeB7v160006IPKfS2_EET_S3_T0_, symObjAddr: 0x12D90, symBinAddr: 0x100061310, symSize: 0x30 }
  - { offsetInCU: 0x130C7, offset: 0x130C7, size: 0x8, addend: 0x0, symName: __ZNSt3__113__rewrap_iterB7v160006IPfS1_NS_18__unwrap_iter_implIS1_Lb1EEEEET_S4_T0_, symObjAddr: 0x12DC0, symBinAddr: 0x100061340, symSize: 0x40 }
  - { offsetInCU: 0x1311C, offset: 0x1311C, size: 0x8, addend: 0x0, symName: __ZNSt3__19make_pairB7v160006IPKfS2_EENS_4pairINS_18__unwrap_ref_decayIT_E4typeENS4_IT0_E4typeEEEOS5_OS8_, symObjAddr: 0x12E00, symBinAddr: 0x100061380, symSize: 0x30 }
  - { offsetInCU: 0x1316B, offset: 0x1316B, size: 0x8, addend: 0x0, symName: __ZNSt3__113__unwrap_iterB7v160006IPKfNS_18__unwrap_iter_implIS2_Lb1EEELi0EEEDTclsrT0_8__unwrapclsr3stdE7declvalIT_EEEES6_, symObjAddr: 0x12E30, symBinAddr: 0x1000613B0, symSize: 0x20 }
  - { offsetInCU: 0x132D6, offset: 0x132D6, size: 0x8, addend: 0x0, symName: __ZNSt3__112__to_addressB7v160006IKfEEPT_S3_, symObjAddr: 0x12ED0, symBinAddr: 0x100061450, symSize: 0x10 }
  - { offsetInCU: 0x1330B, offset: 0x1330B, size: 0x8, addend: 0x0, symName: __ZNSt3__119__copy_trivial_implB7v160006IKffEENS_4pairIPT_PT0_EES4_S4_S6_, symObjAddr: 0x12EE0, symBinAddr: 0x100061460, symSize: 0x70 }
  - { offsetInCU: 0x13373, offset: 0x13373, size: 0x8, addend: 0x0, symName: __ZNSt3__19make_pairB7v160006IRPKfPfEENS_4pairINS_18__unwrap_ref_decayIT_E4typeENS6_IT0_E4typeEEEOS7_OSA_, symObjAddr: 0x12F50, symBinAddr: 0x1000614D0, symSize: 0x30 }
  - { offsetInCU: 0x13415, offset: 0x13415, size: 0x8, addend: 0x0, symName: __ZNSt3__113__rewrap_iterB7v160006IPKfS2_NS_18__unwrap_iter_implIS2_Lb1EEEEET_S5_T0_, symObjAddr: 0x13060, symBinAddr: 0x1000615E0, symSize: 0x40 }
  - { offsetInCU: 0x13A36, offset: 0x13A36, size: 0x8, addend: 0x0, symName: __ZSt28__throw_bad_array_new_lengthB7v160006v, symObjAddr: 0x6A40, symBinAddr: 0x100054FC0, symSize: 0x40 }
  - { offsetInCU: 0x13DBB, offset: 0x13DBB, size: 0x8, addend: 0x0, symName: __ZNSt3__124uniform_int_distributionIiEclINS_23mersenne_twister_engineIjLm32ELm624ELm397ELm31ELj2567483615ELm11ELj4294967295ELm7ELj2636928640ELm15ELj4022730752ELm18ELj1812433253EEEEEiRT_RKNS1_10param_typeE, symObjAddr: 0x4940, symBinAddr: 0x100052EC0, symSize: 0x150 }
  - { offsetInCU: 0x143D6, offset: 0x143D6, size: 0x8, addend: 0x0, symName: __ZNSt3__16vectorIP6NeuronNS_9allocatorIS2_EEE26__swap_out_circular_bufferERNS_14__split_bufferIS2_RS4_EE, symObjAddr: 0x6300, symBinAddr: 0x100054880, symSize: 0x130 }
  - { offsetInCU: 0x145D0, offset: 0x145D0, size: 0x8, addend: 0x0, symName: __ZNSt3__16vectorINS0_IP6NeuronNS_9allocatorIS2_EEEENS3_IS5_EEE26__swap_out_circular_bufferERNS_14__split_bufferIS5_RS6_EE, symObjAddr: 0x86B0, symBinAddr: 0x100056C30, symSize: 0x130 }
  - { offsetInCU: 0x14662, offset: 0x14662, size: 0x8, addend: 0x0, symName: __ZNSt3__16vectorIP6WeightNS_9allocatorIS2_EEE26__swap_out_circular_bufferERNS_14__split_bufferIS2_RS4_EE, symObjAddr: 0x9E70, symBinAddr: 0x1000583F0, symSize: 0x130 }
  - { offsetInCU: 0x146BC, offset: 0x146BC, size: 0x8, addend: 0x0, symName: __Z3powB7v160006IfiENSt3__19enable_ifIXaasr3std13is_arithmeticIT_EE5valuesr3std13is_arithmeticIT0_EE5valueENS0_9__promoteIS2_S3_vEEE4type4typeES2_S3_, symObjAddr: 0xBC70, symBinAddr: 0x10005A1F0, symSize: 0x30 }
  - { offsetInCU: 0x15514, offset: 0x15514, size: 0x8, addend: 0x0, symName: __ZNSt3__16vectorIP6EntityNS_9allocatorIS2_EEE26__swap_out_circular_bufferERNS_14__split_bufferIS2_RS4_EE, symObjAddr: 0x101E0, symBinAddr: 0x10005E760, symSize: 0x130 }
  - { offsetInCU: 0x177D5, offset: 0x177D5, size: 0x8, addend: 0x0, symName: __Z14BaseNeuronTestv, symObjAddr: 0x0, symBinAddr: 0x10004E580, symSize: 0x80 }
  - { offsetInCU: 0x177FE, offset: 0x177FE, size: 0x8, addend: 0x0, symName: __ZN6NeuronC1Ev, symObjAddr: 0x80, symBinAddr: 0x10004E600, symSize: 0x20 }
  - { offsetInCU: 0x17827, offset: 0x17827, size: 0x8, addend: 0x0, symName: __ZN6NeuronD1Ev, symObjAddr: 0xA0, symBinAddr: 0x10004E620, symSize: 0x20 }
  - { offsetInCU: 0x17851, offset: 0x17851, size: 0x8, addend: 0x0, symName: __Z14BaseWeightTestv, symObjAddr: 0xC0, symBinAddr: 0x10004E640, symSize: 0x80 }
  - { offsetInCU: 0x1787A, offset: 0x1787A, size: 0x8, addend: 0x0, symName: __ZN6WeightC1Ev, symObjAddr: 0x140, symBinAddr: 0x10004E6C0, symSize: 0x20 }
  - { offsetInCU: 0x178A2, offset: 0x178A2, size: 0x8, addend: 0x0, symName: __Z10BaseNNTestv, symObjAddr: 0x160, symBinAddr: 0x10004E6E0, symSize: 0xA0 }
  - { offsetInCU: 0x178CB, offset: 0x178CB, size: 0x8, addend: 0x0, symName: __ZN13NeuralNetworkC1Eiiii, symObjAddr: 0x200, symBinAddr: 0x10004E780, symSize: 0x40 }
  - { offsetInCU: 0x1792C, offset: 0x1792C, size: 0x8, addend: 0x0, symName: __ZN13NeuralNetwork14DeleteContentsEv, symObjAddr: 0x240, symBinAddr: 0x10004E7C0, symSize: 0x290 }
  - { offsetInCU: 0x179DD, offset: 0x179DD, size: 0x8, addend: 0x0, symName: __ZN13NeuralNetworkD1Ev, symObjAddr: 0x4D0, symBinAddr: 0x10004EA50, symSize: 0x20 }
  - { offsetInCU: 0x17A05, offset: 0x17A05, size: 0x8, addend: 0x0, symName: __Z12VecOfEntTestv, symObjAddr: 0x4F0, symBinAddr: 0x10004EA70, symSize: 0x2D0 }
  - { offsetInCU: 0x17A52, offset: 0x17A52, size: 0x8, addend: 0x0, symName: __ZN6EntityC1Eb, symObjAddr: 0x7C0, symBinAddr: 0x10004ED40, symSize: 0x30 }
  - { offsetInCU: 0x17A89, offset: 0x17A89, size: 0x8, addend: 0x0, symName: __ZNSt3__16vectorIP6EntityNS_9allocatorIS2_EEEC1B7v160006ESt16initializer_listIS2_E, symObjAddr: 0x7F0, symBinAddr: 0x10004ED70, symSize: 0x30 }
  - { offsetInCU: 0x17AC3, offset: 0x17AC3, size: 0x8, addend: 0x0, symName: __ZNSt3__16vectorIP6EntityNS_9allocatorIS2_EEE9push_backB7v160006EOS2_, symObjAddr: 0x820, symBinAddr: 0x10004EDA0, symSize: 0x60 }
  - { offsetInCU: 0x17AF9, offset: 0x17AF9, size: 0x8, addend: 0x0, symName: __ZNKSt3__16vectorIP6EntityNS_9allocatorIS2_EEE4sizeB7v160006Ev, symObjAddr: 0x880, symBinAddr: 0x10004EE00, symSize: 0x20 }
  - { offsetInCU: 0x17B1E, offset: 0x17B1E, size: 0x8, addend: 0x0, symName: __ZNSt3__16vectorIP6EntityNS_9allocatorIS2_EEE4backB7v160006Ev, symObjAddr: 0x8A0, symBinAddr: 0x10004EE20, symSize: 0x20 }
  - { offsetInCU: 0x17B43, offset: 0x17B43, size: 0x8, addend: 0x0, symName: __ZN6Entity10DeleteNetsEv, symObjAddr: 0x8C0, symBinAddr: 0x10004EE40, symSize: 0xC0 }
  - { offsetInCU: 0x17B68, offset: 0x17B68, size: 0x8, addend: 0x0, symName: __ZN6EntityD1Ev, symObjAddr: 0x980, symBinAddr: 0x10004EF00, symSize: 0x20 }
  - { offsetInCU: 0x17B91, offset: 0x17B91, size: 0x8, addend: 0x0, symName: __ZNSt3__16vectorIP6EntityNS_9allocatorIS2_EEE5eraseENS_11__wrap_iterIPKS2_EES9_, symObjAddr: 0x9A0, symBinAddr: 0x10004EF20, symSize: 0xE0 }
  - { offsetInCU: 0x17BE5, offset: 0x17BE5, size: 0x8, addend: 0x0, symName: __ZNSt3__16vectorIP6EntityNS_9allocatorIS2_EEE5beginB7v160006Ev, symObjAddr: 0xB70, symBinAddr: 0x10004F0F0, symSize: 0x30 }
  - { offsetInCU: 0x17C0C, offset: 0x17C0C, size: 0x8, addend: 0x0, symName: __ZNSt3__16vectorIP6EntityNS_9allocatorIS2_EEE3endB7v160006Ev, symObjAddr: 0xBA0, symBinAddr: 0x10004F120, symSize: 0x30 }
  - { offsetInCU: 0x17C3D, offset: 0x17C3D, size: 0x8, addend: 0x0, symName: __ZNSt3__111__wrap_iterIPKP6EntityEC1B7v160006IPS2_EERKNS0_IT_EEPNS_9enable_ifIXsr14is_convertibleIS8_S4_EE5valueEvE4typeE, symObjAddr: 0xBD0, symBinAddr: 0x10004F150, symSize: 0x30 }
  - { offsetInCU: 0x17C88, offset: 0x17C88, size: 0x8, addend: 0x0, symName: __ZNSt3__16vectorIP6EntityNS_9allocatorIS2_EEED1B7v160006Ev, symObjAddr: 0xC00, symBinAddr: 0x10004F180, symSize: 0x20 }
  - { offsetInCU: 0x17CB0, offset: 0x17CB0, size: 0x8, addend: 0x0, symName: __Z15NetMutationTestv, symObjAddr: 0xC20, symBinAddr: 0x10004F1A0, symSize: 0x470 }
  - { offsetInCU: 0x17D18, offset: 0x17D18, size: 0x8, addend: 0x0, symName: __ZN6Entity17CreateNetToPassOnEi, symObjAddr: 0x1090, symBinAddr: 0x10004F610, symSize: 0x4A0 }
  - { offsetInCU: 0x17E1D, offset: 0x17E1D, size: 0x8, addend: 0x0, symName: __ZN6Entity9ReproduceE7Vector2i, symObjAddr: 0x1530, symBinAddr: 0x10004FAB0, symSize: 0x560 }
  - { offsetInCU: 0x17ECE, offset: 0x17ECE, size: 0x8, addend: 0x0, symName: __ZN6Entity6GetPosEv, symObjAddr: 0x1A90, symBinAddr: 0x100050010, symSize: 0x20 }
  - { offsetInCU: 0x17EF3, offset: 0x17EF3, size: 0x8, addend: 0x0, symName: __ZNSt3__113basic_ostreamIcNS_11char_traitsIcEEElsB7v160006EPFRS3_S4_E, symObjAddr: 0x1AF0, symBinAddr: 0x100050070, symSize: 0x20 }
  - { offsetInCU: 0x17F26, offset: 0x17F26, size: 0x8, addend: 0x0, symName: __ZN6Entity16GetNeuralNetworkEv, symObjAddr: 0x1B60, symBinAddr: 0x1000500E0, symSize: 0x20 }
  - { offsetInCU: 0x17F4B, offset: 0x17F4B, size: 0x8, addend: 0x0, symName: __ZN13NeuralNetwork10GetNeuronsEv, symObjAddr: 0x1B80, symBinAddr: 0x100050100, symSize: 0x30 }
  - { offsetInCU: 0x17F70, offset: 0x17F70, size: 0x8, addend: 0x0, symName: __ZNKSt3__16vectorIP6NeuronNS_9allocatorIS2_EEE4sizeB7v160006Ev, symObjAddr: 0x1BB0, symBinAddr: 0x100050130, symSize: 0x20 }
  - { offsetInCU: 0x17F95, offset: 0x17F95, size: 0x8, addend: 0x0, symName: __ZNSt3__16vectorIP6NeuronNS_9allocatorIS2_EEED1B7v160006Ev, symObjAddr: 0x1BD0, symBinAddr: 0x100050150, symSize: 0x20 }
  - { offsetInCU: 0x17FBE, offset: 0x17FBE, size: 0x8, addend: 0x0, symName: __ZNSt3__16vectorIP6NeuronNS_9allocatorIS2_EEEixB7v160006Em, symObjAddr: 0x1BF0, symBinAddr: 0x100050170, symSize: 0x20 }
  - { offsetInCU: 0x17FF4, offset: 0x17FF4, size: 0x8, addend: 0x0, symName: __ZN6Neuron7GetBiasEv, symObjAddr: 0x1C10, symBinAddr: 0x100050190, symSize: 0x20 }
  - { offsetInCU: 0x18019, offset: 0x18019, size: 0x8, addend: 0x0, symName: __ZN13NeuralNetwork10GetWeightsEv, symObjAddr: 0x1C30, symBinAddr: 0x1000501B0, symSize: 0x30 }
  - { offsetInCU: 0x1803E, offset: 0x1803E, size: 0x8, addend: 0x0, symName: __ZNKSt3__16vectorIP6WeightNS_9allocatorIS2_EEE4sizeB7v160006Ev, symObjAddr: 0x1C60, symBinAddr: 0x1000501E0, symSize: 0x20 }
  - { offsetInCU: 0x18063, offset: 0x18063, size: 0x8, addend: 0x0, symName: __ZNSt3__16vectorIP6WeightNS_9allocatorIS2_EEED1B7v160006Ev, symObjAddr: 0x1C80, symBinAddr: 0x100050200, symSize: 0x20 }
  - { offsetInCU: 0x1808C, offset: 0x1808C, size: 0x8, addend: 0x0, symName: __ZNSt3__16vectorIP6WeightNS_9allocatorIS2_EEEixB7v160006Em, symObjAddr: 0x1CA0, symBinAddr: 0x100050220, symSize: 0x20 }
  - { offsetInCU: 0x180C2, offset: 0x180C2, size: 0x8, addend: 0x0, symName: __ZN6Weight9getWeightEv, symObjAddr: 0x1CC0, symBinAddr: 0x100050240, symSize: 0x20 }
  - { offsetInCU: 0x180E6, offset: 0x180E6, size: 0x8, addend: 0x0, symName: __Z10NNSizeTestv, symObjAddr: 0x1CE0, symBinAddr: 0x100050260, symSize: 0x2D0 }
  - { offsetInCU: 0x1813D, offset: 0x1813D, size: 0x8, addend: 0x0, symName: __ZN13NeuralNetwork18ComputeOutputLayerENSt3__16vectorIfNS0_9allocatorIfEEEE, symObjAddr: 0x1FB0, symBinAddr: 0x100050530, symSize: 0x130 }
  - { offsetInCU: 0x181E1, offset: 0x181E1, size: 0x8, addend: 0x0, symName: __ZNSt3__16vectorIfNS_9allocatorIfEEEC1B7v160006ESt16initializer_listIfE, symObjAddr: 0x20E0, symBinAddr: 0x100050660, symSize: 0x30 }
  - { offsetInCU: 0x1821B, offset: 0x1821B, size: 0x8, addend: 0x0, symName: __ZNSt3__16vectorIfNS_9allocatorIfEEED1B7v160006Ev, symObjAddr: 0x2110, symBinAddr: 0x100050690, symSize: 0x20 }
  - { offsetInCU: 0x18243, offset: 0x18243, size: 0x8, addend: 0x0, symName: __Z12RaySpeedTestv, symObjAddr: 0x2130, symBinAddr: 0x1000506B0, symSize: 0x1D0 }
  - { offsetInCU: 0x182B3, offset: 0x182B3, size: 0x8, addend: 0x0, symName: __ZNSt3__16vectorIP6EntityNS_9allocatorIS2_EEEC1B7v160006Ev, symObjAddr: 0x2300, symBinAddr: 0x100050880, symSize: 0x20 }
  - { offsetInCU: 0x182DC, offset: 0x182DC, size: 0x8, addend: 0x0, symName: __ZNSt3__16vectorIP6EntityNS_9allocatorIS2_EEEixB7v160006Em, symObjAddr: 0x2320, symBinAddr: 0x1000508A0, symSize: 0x20 }
  - { offsetInCU: 0x18312, offset: 0x18312, size: 0x8, addend: 0x0, symName: __ZN6Entity14CollectRayDataENSt3__16vectorIPS_NS0_9allocatorIS2_EEEE7Vector2, symObjAddr: 0x2340, symBinAddr: 0x1000508C0, symSize: 0xA00 }
  - { offsetInCU: 0x184B4, offset: 0x184B4, size: 0x8, addend: 0x0, symName: __ZNSt3__16vectorIP6EntityNS_9allocatorIS2_EEEC1ERKS5_, symObjAddr: 0x2D40, symBinAddr: 0x1000512C0, symSize: 0x30 }
  - { offsetInCU: 0x184ED, offset: 0x184ED, size: 0x8, addend: 0x0, symName: __Z12MutationTestv, symObjAddr: 0x2D70, symBinAddr: 0x1000512F0, symSize: 0x190 }
  - { offsetInCU: 0x18534, offset: 0x18534, size: 0x8, addend: 0x0, symName: __ZN6EntityC1ERKS_, symObjAddr: 0x2F00, symBinAddr: 0x100051480, symSize: 0x30 }
  - { offsetInCU: 0x18568, offset: 0x18568, size: 0x8, addend: 0x0, symName: __ZN13NeuralNetwork24NetsSimilarityPercentageEPS_, symObjAddr: 0x2F30, symBinAddr: 0x1000514B0, symSize: 0x3E0 }
  - { offsetInCU: 0x185FF, offset: 0x185FF, size: 0x8, addend: 0x0, symName: __Z13WrapSightTestv, symObjAddr: 0x3310, symBinAddr: 0x100051890, symSize: 0x2B0 }
  - { offsetInCU: 0x18647, offset: 0x18647, size: 0x8, addend: 0x0, symName: __ZN6EntityC1E7Vector2b, symObjAddr: 0x35C0, symBinAddr: 0x100051B40, symSize: 0x40 }
  - { offsetInCU: 0x1868C, offset: 0x1868C, size: 0x8, addend: 0x0, symName: __ZN6Entity11SetIsTrumanEv, symObjAddr: 0x3600, symBinAddr: 0x100051B80, symSize: 0x20 }
  - { offsetInCU: 0x186B1, offset: 0x186B1, size: 0x8, addend: 0x0, symName: __ZN6Entity10drawEntityEv, symObjAddr: 0x3620, symBinAddr: 0x100051BA0, symSize: 0x490 }
  - { offsetInCU: 0x18732, offset: 0x18732, size: 0x8, addend: 0x0, symName: __Z13ReproduceTestv, symObjAddr: 0x3AB0, symBinAddr: 0x100052030, symSize: 0x90 }
  - { offsetInCU: 0x18768, offset: 0x18768, size: 0x8, addend: 0x0, symName: __Z12DrawWallTestP4Wall, symObjAddr: 0x3B40, symBinAddr: 0x1000520C0, symSize: 0x20 }
  - { offsetInCU: 0x188A6, offset: 0x188A6, size: 0x8, addend: 0x0, symName: __ZN4Wall8DrawWallEv, symObjAddr: 0x3B60, symBinAddr: 0x1000520E0, symSize: 0xA0 }
  - { offsetInCU: 0x188CB, offset: 0x188CB, size: 0x8, addend: 0x0, symName: _main, symObjAddr: 0x3C00, symBinAddr: 0x100052180, symSize: 0x4C0 }
  - { offsetInCU: 0x1898B, offset: 0x1898B, size: 0x8, addend: 0x0, symName: __ZN4WallC1Ebiiiii, symObjAddr: 0x40C0, symBinAddr: 0x100052640, symSize: 0x60 }
  - { offsetInCU: 0x18A08, offset: 0x18A08, size: 0x8, addend: 0x0, symName: __ZN4Wall5GetC3Ev, symObjAddr: 0x4120, symBinAddr: 0x1000526A0, symSize: 0x20 }
  - { offsetInCU: 0x18A2D, offset: 0x18A2D, size: 0x8, addend: 0x0, symName: __ZN4WallC1Ebiiiii7Vector2, symObjAddr: 0x4140, symBinAddr: 0x1000526C0, symSize: 0x60 }
  - { offsetInCU: 0x18AB8, offset: 0x18AB8, size: 0x8, addend: 0x0, symName: __ZN6Entity6SetFOVEf, symObjAddr: 0x41A0, symBinAddr: 0x100052720, symSize: 0x20 }
  - { offsetInCU: 0x18AEC, offset: 0x18AEC, size: 0x8, addend: 0x0, symName: __ZN6Entity11SetViewDistEf, symObjAddr: 0x41C0, symBinAddr: 0x100052740, symSize: 0x20 }
  - { offsetInCU: 0x18B20, offset: 0x18B20, size: 0x8, addend: 0x0, symName: __ZN6Entity15SetAngularSpeedEf, symObjAddr: 0x41E0, symBinAddr: 0x100052760, symSize: 0x20 }
  - { offsetInCU: 0x18B54, offset: 0x18B54, size: 0x8, addend: 0x0, symName: __ZNSt3__16vectorIP6EntityNS_9allocatorIS2_EEE9push_backB7v160006ERKS2_, symObjAddr: 0x4200, symBinAddr: 0x100052780, symSize: 0x60 }
  - { offsetInCU: 0x18B8A, offset: 0x18B8A, size: 0x8, addend: 0x0, symName: __ZN6NeuronC2Ev, symObjAddr: 0x4260, symBinAddr: 0x1000527E0, symSize: 0x140 }
  - { offsetInCU: 0x18BE5, offset: 0x18BE5, size: 0x8, addend: 0x0, symName: __ZNSt3__16vectorIP6WeightNS_9allocatorIS2_EEEC1B7v160006Ev, symObjAddr: 0x43A0, symBinAddr: 0x100052920, symSize: 0x20 }
  - { offsetInCU: 0x18C27, offset: 0x18C27, size: 0x8, addend: 0x0, symName: __ZNSt3__113random_deviceC1Ev, symObjAddr: 0x43C0, symBinAddr: 0x100052940, symSize: 0x70 }
  - { offsetInCU: 0x18C50, offset: 0x18C50, size: 0x8, addend: 0x0, symName: __ZNSt3__123mersenne_twister_engineIjLm32ELm624ELm397ELm31ELj2567483615ELm11ELj4294967295ELm7ELj2636928640ELm15ELj4022730752ELm18ELj1812433253EEC1B7v160006Ej, symObjAddr: 0x4430, symBinAddr: 0x1000529B0, symSize: 0x30 }
  - { offsetInCU: 0x18C87, offset: 0x18C87, size: 0x8, addend: 0x0, symName: __ZNSt3__124uniform_int_distributionIiEC1Eii, symObjAddr: 0x4460, symBinAddr: 0x1000529E0, symSize: 0x30 }
  - { offsetInCU: 0x18CCC, offset: 0x18CCC, size: 0x8, addend: 0x0, symName: __ZNSt3__124uniform_int_distributionIiEclINS_23mersenne_twister_engineIjLm32ELm624ELm397ELm31ELj2567483615ELm11ELj4294967295ELm7ELj2636928640ELm15ELj4022730752ELm18ELj1812433253EEEEEiRT_, symObjAddr: 0x4490, symBinAddr: 0x100052A10, symSize: 0x30 }
  - { offsetInCU: 0x18D08, offset: 0x18D08, size: 0x8, addend: 0x0, symName: __ZNSt3__16vectorIP6WeightNS_9allocatorIS2_EEEC2B7v160006Ev, symObjAddr: 0x44C0, symBinAddr: 0x100052A40, symSize: 0x60 }
  - { offsetInCU: 0x18D3B, offset: 0x18D3B, size: 0x8, addend: 0x0, symName: __ZNSt3__117__compressed_pairIPP6WeightNS_9allocatorIS2_EEEC1B7v160006IDnNS_18__default_init_tagEEEOT_OT0_, symObjAddr: 0x4520, symBinAddr: 0x100052AA0, symSize: 0x30 }
  - { offsetInCU: 0x18D92, offset: 0x18D92, size: 0x8, addend: 0x0, symName: __ZNSt3__117__compressed_pairIPP6WeightNS_9allocatorIS2_EEEC2B7v160006IDnNS_18__default_init_tagEEEOT_OT0_, symObjAddr: 0x4570, symBinAddr: 0x100052AF0, symSize: 0x40 }
  - { offsetInCU: 0x18DE9, offset: 0x18DE9, size: 0x8, addend: 0x0, symName: __ZNSt3__122__compressed_pair_elemIPP6WeightLi0ELb0EEC2B7v160006IDnvEEOT_, symObjAddr: 0x45B0, symBinAddr: 0x100052B30, symSize: 0x20 }
  - { offsetInCU: 0x18E2A, offset: 0x18E2A, size: 0x8, addend: 0x0, symName: __ZNSt3__122__compressed_pair_elemINS_9allocatorIP6WeightEELi1ELb1EEC2B7v160006ENS_18__default_init_tagE, symObjAddr: 0x45D0, symBinAddr: 0x100052B50, symSize: 0x20 }
  - { offsetInCU: 0x18E5E, offset: 0x18E5E, size: 0x8, addend: 0x0, symName: __ZNSt3__19allocatorIP6WeightEC2B7v160006Ev, symObjAddr: 0x45F0, symBinAddr: 0x100052B70, symSize: 0x20 }
  - { offsetInCU: 0x18E87, offset: 0x18E87, size: 0x8, addend: 0x0, symName: __ZNSt3__116__non_trivial_ifILb1ENS_9allocatorIP6WeightEEEC2B7v160006Ev, symObjAddr: 0x4610, symBinAddr: 0x100052B90, symSize: 0x10 }
  - { offsetInCU: 0x18EB5, offset: 0x18EB5, size: 0x8, addend: 0x0, symName: __ZNSt3__112basic_stringIcNS_11char_traitsIcEENS_9allocatorIcEEEC1B7v160006IDnEEPKc, symObjAddr: 0x4620, symBinAddr: 0x100052BA0, symSize: 0x30 }
  - { offsetInCU: 0x18EF2, offset: 0x18EF2, size: 0x8, addend: 0x0, symName: __ZNSt3__112basic_stringIcNS_11char_traitsIcEENS_9allocatorIcEEEC2B7v160006IDnEEPKc, symObjAddr: 0x4650, symBinAddr: 0x100052BD0, symSize: 0x60 }
  - { offsetInCU: 0x18F2F, offset: 0x18F2F, size: 0x8, addend: 0x0, symName: __ZNSt3__117__compressed_pairINS_12basic_stringIcNS_11char_traitsIcEENS_9allocatorIcEEE5__repES5_EC1B7v160006INS_18__default_init_tagESA_EEOT_OT0_, symObjAddr: 0x46B0, symBinAddr: 0x100052C30, symSize: 0x30 }
  - { offsetInCU: 0x18F86, offset: 0x18F86, size: 0x8, addend: 0x0, symName: __ZNSt3__111char_traitsIcE6lengthEPKc, symObjAddr: 0x46E0, symBinAddr: 0x100052C60, symSize: 0x30 }
  - { offsetInCU: 0x18FA9, offset: 0x18FA9, size: 0x8, addend: 0x0, symName: __ZNSt3__117__compressed_pairINS_12basic_stringIcNS_11char_traitsIcEENS_9allocatorIcEEE5__repES5_EC2B7v160006INS_18__default_init_tagESA_EEOT_OT0_, symObjAddr: 0x4720, symBinAddr: 0x100052CA0, symSize: 0x30 }
  - { offsetInCU: 0x19000, offset: 0x19000, size: 0x8, addend: 0x0, symName: __ZNSt3__122__compressed_pair_elemINS_12basic_stringIcNS_11char_traitsIcEENS_9allocatorIcEEE5__repELi0ELb0EEC2B7v160006ENS_18__default_init_tagE, symObjAddr: 0x4750, symBinAddr: 0x100052CD0, symSize: 0x10 }
  - { offsetInCU: 0x19034, offset: 0x19034, size: 0x8, addend: 0x0, symName: __ZNSt3__122__compressed_pair_elemINS_9allocatorIcEELi1ELb1EEC2B7v160006ENS_18__default_init_tagE, symObjAddr: 0x4760, symBinAddr: 0x100052CE0, symSize: 0x20 }
  - { offsetInCU: 0x19068, offset: 0x19068, size: 0x8, addend: 0x0, symName: __ZNSt3__19allocatorIcEC2B7v160006Ev, symObjAddr: 0x4780, symBinAddr: 0x100052D00, symSize: 0x20 }
  - { offsetInCU: 0x19091, offset: 0x19091, size: 0x8, addend: 0x0, symName: __ZNSt3__116__non_trivial_ifILb1ENS_9allocatorIcEEEC2B7v160006Ev, symObjAddr: 0x47A0, symBinAddr: 0x100052D20, symSize: 0x10 }
  - { offsetInCU: 0x190BA, offset: 0x190BA, size: 0x8, addend: 0x0, symName: __ZNSt3__123mersenne_twister_engineIjLm32ELm624ELm397ELm31ELj2567483615ELm11ELj4294967295ELm7ELj2636928640ELm15ELj4022730752ELm18ELj1812433253EEC2B7v160006Ej, symObjAddr: 0x47D0, symBinAddr: 0x100052D50, symSize: 0x30 }
  - { offsetInCU: 0x190F1, offset: 0x190F1, size: 0x8, addend: 0x0, symName: __ZNSt3__123mersenne_twister_engineIjLm32ELm624ELm397ELm31ELj2567483615ELm11ELj4294967295ELm7ELj2636928640ELm15ELj4022730752ELm18ELj1812433253EE4seedEj, symObjAddr: 0x4800, symBinAddr: 0x100052D80, symSize: 0xB0 }
  - { offsetInCU: 0x19143, offset: 0x19143, size: 0x8, addend: 0x0, symName: __ZNSt3__123mersenne_twister_engineIjLm32ELm624ELm397ELm31ELj2567483615ELm11ELj4294967295ELm7ELj2636928640ELm15ELj4022730752ELm18ELj1812433253EE8__rshiftB7v160006ILm30EEENS_9enable_ifIXltT_L_ZNS1_3_DtEEEjE4typeEj, symObjAddr: 0x48B0, symBinAddr: 0x100052E30, symSize: 0x10 }
  - { offsetInCU: 0x19170, offset: 0x19170, size: 0x8, addend: 0x0, symName: __ZNSt3__124uniform_int_distributionIiEC2Eii, symObjAddr: 0x48C0, symBinAddr: 0x100052E40, symSize: 0x30 }
  - { offsetInCU: 0x191B5, offset: 0x191B5, size: 0x8, addend: 0x0, symName: __ZNSt3__124uniform_int_distributionIiE10param_typeC1Eii, symObjAddr: 0x48F0, symBinAddr: 0x100052E70, symSize: 0x30 }
  - { offsetInCU: 0x191FA, offset: 0x191FA, size: 0x8, addend: 0x0, symName: __ZNSt3__124uniform_int_distributionIiE10param_typeC2Eii, symObjAddr: 0x4920, symBinAddr: 0x100052EA0, symSize: 0x20 }
  - { offsetInCU: 0x1923F, offset: 0x1923F, size: 0x8, addend: 0x0, symName: __ZNKSt3__124uniform_int_distributionIiE10param_type1bEv, symObjAddr: 0x4A90, symBinAddr: 0x100053010, symSize: 0x20 }
  - { offsetInCU: 0x19264, offset: 0x19264, size: 0x8, addend: 0x0, symName: __ZNKSt3__124uniform_int_distributionIiE10param_type1aEv, symObjAddr: 0x4AB0, symBinAddr: 0x100053030, symSize: 0x10 }
  - { offsetInCU: 0x19289, offset: 0x19289, size: 0x8, addend: 0x0, symName: __ZNSt3__125__independent_bits_engineINS_23mersenne_twister_engineIjLm32ELm624ELm397ELm31ELj2567483615ELm11ELj4294967295ELm7ELj2636928640ELm15ELj4022730752ELm18ELj1812433253EEEjEC1ERS2_m, symObjAddr: 0x4AC0, symBinAddr: 0x100053040, symSize: 0x30 }
  - { offsetInCU: 0x192CF, offset: 0x192CF, size: 0x8, addend: 0x0, symName: __ZNSt3__125__independent_bits_engineINS_23mersenne_twister_engineIjLm32ELm624ELm397ELm31ELj2567483615ELm11ELj4294967295ELm7ELj2636928640ELm15ELj4022730752ELm18ELj1812433253EEEjEclEv, symObjAddr: 0x4AF0, symBinAddr: 0x100053070, symSize: 0x20 }
  - { offsetInCU: 0x192F4, offset: 0x192F4, size: 0x8, addend: 0x0, symName: __ZNSt3__114numeric_limitsIjE3maxB7v160006Ev, symObjAddr: 0x4B50, symBinAddr: 0x1000530D0, symSize: 0x10 }
  - { offsetInCU: 0x19308, offset: 0x19308, size: 0x8, addend: 0x0, symName: __ZNSt3__125__independent_bits_engineINS_23mersenne_twister_engineIjLm32ELm624ELm397ELm31ELj2567483615ELm11ELj4294967295ELm7ELj2636928640ELm15ELj4022730752ELm18ELj1812433253EEEjEC2ERS2_m, symObjAddr: 0x4B60, symBinAddr: 0x1000530E0, symSize: 0x1D0 }
  - { offsetInCU: 0x1934E, offset: 0x1934E, size: 0x8, addend: 0x0, symName: __ZNSt3__125__independent_bits_engineINS_23mersenne_twister_engineIjLm32ELm624ELm397ELm31ELj2567483615ELm11ELj4294967295ELm7ELj2636928640ELm15ELj4022730752ELm18ELj1812433253EEEjE6__evalENS_17integral_constantIbLb0EEE, symObjAddr: 0x4D30, symBinAddr: 0x1000532B0, symSize: 0x30 }
  - { offsetInCU: 0x1937E, offset: 0x1937E, size: 0x8, addend: 0x0, symName: __ZNSt3__123mersenne_twister_engineIjLm32ELm624ELm397ELm31ELj2567483615ELm11ELj4294967295ELm7ELj2636928640ELm15ELj4022730752ELm18ELj1812433253EEclEv, symObjAddr: 0x4D60, symBinAddr: 0x1000532E0, symSize: 0x130 }
  - { offsetInCU: 0x193F0, offset: 0x193F0, size: 0x8, addend: 0x0, symName: __ZNSt3__123mersenne_twister_engineIjLm32ELm624ELm397ELm31ELj2567483615ELm11ELj4294967295ELm7ELj2636928640ELm15ELj4022730752ELm18ELj1812433253EE8__rshiftB7v160006ILm1EEENS_9enable_ifIXltT_L_ZNS1_3_DtEEEjE4typeEj, symObjAddr: 0x4E90, symBinAddr: 0x100053410, symSize: 0x10 }
  - { offsetInCU: 0x1941D, offset: 0x1941D, size: 0x8, addend: 0x0, symName: __ZNSt3__123mersenne_twister_engineIjLm32ELm624ELm397ELm31ELj2567483615ELm11ELj4294967295ELm7ELj2636928640ELm15ELj4022730752ELm18ELj1812433253EE8__rshiftB7v160006ILm11EEENS_9enable_ifIXltT_L_ZNS1_3_DtEEEjE4typeEj, symObjAddr: 0x4EA0, symBinAddr: 0x100053420, symSize: 0x10 }
  - { offsetInCU: 0x1944A, offset: 0x1944A, size: 0x8, addend: 0x0, symName: __ZNSt3__123mersenne_twister_engineIjLm32ELm624ELm397ELm31ELj2567483615ELm11ELj4294967295ELm7ELj2636928640ELm15ELj4022730752ELm18ELj1812433253EE8__lshiftB7v160006ILm7EEENS_9enable_ifIXltT_Lm32EEjE4typeEj, symObjAddr: 0x4EB0, symBinAddr: 0x100053430, symSize: 0x20 }
  - { offsetInCU: 0x19477, offset: 0x19477, size: 0x8, addend: 0x0, symName: __ZNSt3__123mersenne_twister_engineIjLm32ELm624ELm397ELm31ELj2567483615ELm11ELj4294967295ELm7ELj2636928640ELm15ELj4022730752ELm18ELj1812433253EE8__lshiftB7v160006ILm15EEENS_9enable_ifIXltT_Lm32EEjE4typeEj, symObjAddr: 0x4ED0, symBinAddr: 0x100053450, symSize: 0x20 }
  - { offsetInCU: 0x194A4, offset: 0x194A4, size: 0x8, addend: 0x0, symName: __ZNSt3__123mersenne_twister_engineIjLm32ELm624ELm397ELm31ELj2567483615ELm11ELj4294967295ELm7ELj2636928640ELm15ELj4022730752ELm18ELj1812433253EE8__rshiftB7v160006ILm18EEENS_9enable_ifIXltT_L_ZNS1_3_DtEEEjE4typeEj, symObjAddr: 0x4EF0, symBinAddr: 0x100053470, symSize: 0x10 }
  - { offsetInCU: 0x194D1, offset: 0x194D1, size: 0x8, addend: 0x0, symName: __ZNSt3__123__libcpp_numeric_limitsIjLb1EE3maxB7v160006Ev, symObjAddr: 0x4F20, symBinAddr: 0x1000534A0, symSize: 0x10 }
  - { offsetInCU: 0x194E5, offset: 0x194E5, size: 0x8, addend: 0x0, symName: __ZN6NeuronD2Ev, symObjAddr: 0x4F30, symBinAddr: 0x1000534B0, symSize: 0x30 }
  - { offsetInCU: 0x19510, offset: 0x19510, size: 0x8, addend: 0x0, symName: __ZN6WeightC2Ev, symObjAddr: 0x4F60, symBinAddr: 0x1000534E0, symSize: 0x100 }
  - { offsetInCU: 0x1958E, offset: 0x1958E, size: 0x8, addend: 0x0, symName: __ZNSt3__125uniform_real_distributionIfEC1Eff, symObjAddr: 0x5060, symBinAddr: 0x1000535E0, symSize: 0x30 }
  - { offsetInCU: 0x195D3, offset: 0x195D3, size: 0x8, addend: 0x0, symName: __ZNSt3__125uniform_real_distributionIfEclB7v160006INS_23mersenne_twister_engineIjLm32ELm624ELm397ELm31ELj2567483615ELm11ELj4294967295ELm7ELj2636928640ELm15ELj4022730752ELm18ELj1812433253EEEEEfRT_, symObjAddr: 0x5090, symBinAddr: 0x100053610, symSize: 0x30 }
  - { offsetInCU: 0x1960F, offset: 0x1960F, size: 0x8, addend: 0x0, symName: __ZNSt3__125uniform_real_distributionIfEC2Eff, symObjAddr: 0x50C0, symBinAddr: 0x100053640, symSize: 0x30 }
  - { offsetInCU: 0x19654, offset: 0x19654, size: 0x8, addend: 0x0, symName: __ZNSt3__125uniform_real_distributionIfE10param_typeC1B7v160006Eff, symObjAddr: 0x50F0, symBinAddr: 0x100053670, symSize: 0x30 }
  - { offsetInCU: 0x19699, offset: 0x19699, size: 0x8, addend: 0x0, symName: __ZNSt3__125uniform_real_distributionIfE10param_typeC2B7v160006Eff, symObjAddr: 0x5120, symBinAddr: 0x1000536A0, symSize: 0x30 }
  - { offsetInCU: 0x196DE, offset: 0x196DE, size: 0x8, addend: 0x0, symName: __ZNSt3__125uniform_real_distributionIfEclINS_23mersenne_twister_engineIjLm32ELm624ELm397ELm31ELj2567483615ELm11ELj4294967295ELm7ELj2636928640ELm15ELj4022730752ELm18ELj1812433253EEEEEfRT_RKNS1_10param_typeE, symObjAddr: 0x5150, symBinAddr: 0x1000536D0, symSize: 0x70 }
  - { offsetInCU: 0x19728, offset: 0x19728, size: 0x8, addend: 0x0, symName: __ZNKSt3__125uniform_real_distributionIfE10param_type1bB7v160006Ev, symObjAddr: 0x51C0, symBinAddr: 0x100053740, symSize: 0x20 }
  - { offsetInCU: 0x1974D, offset: 0x1974D, size: 0x8, addend: 0x0, symName: __ZNKSt3__125uniform_real_distributionIfE10param_type1aB7v160006Ev, symObjAddr: 0x51E0, symBinAddr: 0x100053760, symSize: 0x20 }
  - { offsetInCU: 0x19772, offset: 0x19772, size: 0x8, addend: 0x0, symName: __ZNSt3__123mersenne_twister_engineIjLm32ELm624ELm397ELm31ELj2567483615ELm11ELj4294967295ELm7ELj2636928640ELm15ELj4022730752ELm18ELj1812433253EE3maxB7v160006Ev, symObjAddr: 0x5300, symBinAddr: 0x100053880, symSize: 0x10 }
  - { offsetInCU: 0x19786, offset: 0x19786, size: 0x8, addend: 0x0, symName: __ZNSt3__123mersenne_twister_engineIjLm32ELm624ELm397ELm31ELj2567483615ELm11ELj4294967295ELm7ELj2636928640ELm15ELj4022730752ELm18ELj1812433253EE3minB7v160006Ev, symObjAddr: 0x5310, symBinAddr: 0x100053890, symSize: 0x10 }
  - { offsetInCU: 0x1979A, offset: 0x1979A, size: 0x8, addend: 0x0, symName: __ZN13NeuralNetworkC2Eiiii, symObjAddr: 0x5320, symBinAddr: 0x1000538A0, symSize: 0xE0 }
  - { offsetInCU: 0x197FB, offset: 0x197FB, size: 0x8, addend: 0x0, symName: __ZNSt3__16vectorIP6NeuronNS_9allocatorIS2_EEEC1B7v160006Ev, symObjAddr: 0x5400, symBinAddr: 0x100053980, symSize: 0x20 }
  - { offsetInCU: 0x19824, offset: 0x19824, size: 0x8, addend: 0x0, symName: __ZNSt3__16vectorINS0_IP6NeuronNS_9allocatorIS2_EEEENS3_IS5_EEEC1B7v160006Ev, symObjAddr: 0x5420, symBinAddr: 0x1000539A0, symSize: 0x20 }
  - { offsetInCU: 0x1984D, offset: 0x1984D, size: 0x8, addend: 0x0, symName: __ZN13NeuralNetwork18buildNeuralNetworkEv, symObjAddr: 0x5440, symBinAddr: 0x1000539C0, symSize: 0x620 }
  - { offsetInCU: 0x19A40, offset: 0x19A40, size: 0x8, addend: 0x0, symName: __ZNSt3__16vectorINS0_IP6NeuronNS_9allocatorIS2_EEEENS3_IS5_EEED1B7v160006Ev, symObjAddr: 0x5A60, symBinAddr: 0x100053FE0, symSize: 0x20 }
  - { offsetInCU: 0x19A69, offset: 0x19A69, size: 0x8, addend: 0x0, symName: __ZNSt3__16vectorIP6NeuronNS_9allocatorIS2_EEEC2B7v160006Ev, symObjAddr: 0x5A80, symBinAddr: 0x100054000, symSize: 0x60 }
  - { offsetInCU: 0x19A92, offset: 0x19A92, size: 0x8, addend: 0x0, symName: __ZNSt3__117__compressed_pairIPP6NeuronNS_9allocatorIS2_EEEC1B7v160006IDnNS_18__default_init_tagEEEOT_OT0_, symObjAddr: 0x5AE0, symBinAddr: 0x100054060, symSize: 0x30 }
  - { offsetInCU: 0x19AE9, offset: 0x19AE9, size: 0x8, addend: 0x0, symName: __ZNSt3__117__compressed_pairIPP6NeuronNS_9allocatorIS2_EEEC2B7v160006IDnNS_18__default_init_tagEEEOT_OT0_, symObjAddr: 0x5B20, symBinAddr: 0x1000540A0, symSize: 0x40 }
  - { offsetInCU: 0x19B40, offset: 0x19B40, size: 0x8, addend: 0x0, symName: __ZNSt3__122__compressed_pair_elemIPP6NeuronLi0ELb0EEC2B7v160006IDnvEEOT_, symObjAddr: 0x5B60, symBinAddr: 0x1000540E0, symSize: 0x20 }
  - { offsetInCU: 0x19B81, offset: 0x19B81, size: 0x8, addend: 0x0, symName: __ZNSt3__122__compressed_pair_elemINS_9allocatorIP6NeuronEELi1ELb1EEC2B7v160006ENS_18__default_init_tagE, symObjAddr: 0x5B80, symBinAddr: 0x100054100, symSize: 0x20 }
  - { offsetInCU: 0x19BB5, offset: 0x19BB5, size: 0x8, addend: 0x0, symName: __ZNSt3__19allocatorIP6NeuronEC2B7v160006Ev, symObjAddr: 0x5BA0, symBinAddr: 0x100054120, symSize: 0x20 }
  - { offsetInCU: 0x19BDE, offset: 0x19BDE, size: 0x8, addend: 0x0, symName: __ZNSt3__116__non_trivial_ifILb1ENS_9allocatorIP6NeuronEEEC2B7v160006Ev, symObjAddr: 0x5BC0, symBinAddr: 0x100054140, symSize: 0x10 }
  - { offsetInCU: 0x19C07, offset: 0x19C07, size: 0x8, addend: 0x0, symName: __ZNSt3__16vectorINS0_IP6NeuronNS_9allocatorIS2_EEEENS3_IS5_EEEC2B7v160006Ev, symObjAddr: 0x5BD0, symBinAddr: 0x100054150, symSize: 0x60 }
  - { offsetInCU: 0x19C30, offset: 0x19C30, size: 0x8, addend: 0x0, symName: __ZNSt3__117__compressed_pairIPNS_6vectorIP6NeuronNS_9allocatorIS3_EEEENS4_IS6_EEEC1B7v160006IDnNS_18__default_init_tagEEEOT_OT0_, symObjAddr: 0x5C30, symBinAddr: 0x1000541B0, symSize: 0x30 }
  - { offsetInCU: 0x19C87, offset: 0x19C87, size: 0x8, addend: 0x0, symName: __ZNSt3__117__compressed_pairIPNS_6vectorIP6NeuronNS_9allocatorIS3_EEEENS4_IS6_EEEC2B7v160006IDnNS_18__default_init_tagEEEOT_OT0_, symObjAddr: 0x5C70, symBinAddr: 0x1000541F0, symSize: 0x40 }
  - { offsetInCU: 0x19CDE, offset: 0x19CDE, size: 0x8, addend: 0x0, symName: __ZNSt3__122__compressed_pair_elemIPNS_6vectorIP6NeuronNS_9allocatorIS3_EEEELi0ELb0EEC2B7v160006IDnvEEOT_, symObjAddr: 0x5CB0, symBinAddr: 0x100054230, symSize: 0x20 }
  - { offsetInCU: 0x19D1F, offset: 0x19D1F, size: 0x8, addend: 0x0, symName: __ZNSt3__122__compressed_pair_elemINS_9allocatorINS_6vectorIP6NeuronNS1_IS4_EEEEEELi1ELb1EEC2B7v160006ENS_18__default_init_tagE, symObjAddr: 0x5CD0, symBinAddr: 0x100054250, symSize: 0x20 }
  - { offsetInCU: 0x19D53, offset: 0x19D53, size: 0x8, addend: 0x0, symName: __ZNSt3__19allocatorINS_6vectorIP6NeuronNS0_IS3_EEEEEC2B7v160006Ev, symObjAddr: 0x5CF0, symBinAddr: 0x100054270, symSize: 0x20 }
  - { offsetInCU: 0x19D7C, offset: 0x19D7C, size: 0x8, addend: 0x0, symName: __ZNSt3__116__non_trivial_ifILb1ENS_9allocatorINS_6vectorIP6NeuronNS1_IS4_EEEEEEEC2B7v160006Ev, symObjAddr: 0x5D10, symBinAddr: 0x100054290, symSize: 0x10 }
  - { offsetInCU: 0x19DA5, offset: 0x19DA5, size: 0x8, addend: 0x0, symName: __ZNSt3__16vectorIP6NeuronNS_9allocatorIS2_EEE9push_backB7v160006ERKS2_, symObjAddr: 0x5D20, symBinAddr: 0x1000542A0, symSize: 0x60 }
  - { offsetInCU: 0x19DDB, offset: 0x19DDB, size: 0x8, addend: 0x0, symName: __ZNSt3__16vectorINS0_IP6NeuronNS_9allocatorIS2_EEEENS3_IS5_EEE9push_backB7v160006ERKS5_, symObjAddr: 0x5D80, symBinAddr: 0x100054300, symSize: 0x60 }
  - { offsetInCU: 0x19E11, offset: 0x19E11, size: 0x8, addend: 0x0, symName: __ZNSt3__16vectorINS0_IP6NeuronNS_9allocatorIS2_EEEENS3_IS5_EEEixB7v160006Em, symObjAddr: 0x5DE0, symBinAddr: 0x100054360, symSize: 0x20 }
  - { offsetInCU: 0x19E47, offset: 0x19E47, size: 0x8, addend: 0x0, symName: __ZN6Neuron13setConnectionEPS_P6Weightb, symObjAddr: 0x5E00, symBinAddr: 0x100054380, symSize: 0xB0 }
  - { offsetInCU: 0x19E96, offset: 0x19E96, size: 0x8, addend: 0x0, symName: __ZNSt3__16vectorIP6WeightNS_9allocatorIS2_EEE9push_backB7v160006ERKS2_, symObjAddr: 0x5EB0, symBinAddr: 0x100054430, symSize: 0x60 }
  - { offsetInCU: 0x19ECC, offset: 0x19ECC, size: 0x8, addend: 0x0, symName: __ZNSt3__16vectorIP6NeuronNS_9allocatorIS2_EEE9__end_capB7v160006Ev, symObjAddr: 0x5F10, symBinAddr: 0x100054490, symSize: 0x20 }
  - { offsetInCU: 0x19EF1, offset: 0x19EF1, size: 0x8, addend: 0x0, symName: __ZNSt3__16vectorIP6NeuronNS_9allocatorIS2_EEE22__construct_one_at_endB7v160006IJRKS2_EEEvDpOT_, symObjAddr: 0x5F30, symBinAddr: 0x1000544B0, symSize: 0x90 }
  - { offsetInCU: 0x19F3F, offset: 0x19F3F, size: 0x8, addend: 0x0, symName: __ZNSt3__16vectorIP6NeuronNS_9allocatorIS2_EEE21__push_back_slow_pathIRKS2_EEvOT_, symObjAddr: 0x5FC0, symBinAddr: 0x100054540, symSize: 0xD0 }
  - { offsetInCU: 0x19F9C, offset: 0x19F9C, size: 0x8, addend: 0x0, symName: __ZNSt3__117__compressed_pairIPP6NeuronNS_9allocatorIS2_EEE5firstB7v160006Ev, symObjAddr: 0x6090, symBinAddr: 0x100054610, symSize: 0x20 }
  - { offsetInCU: 0x19FC1, offset: 0x19FC1, size: 0x8, addend: 0x0, symName: __ZNSt3__122__compressed_pair_elemIPP6NeuronLi0ELb0EE5__getB7v160006Ev, symObjAddr: 0x60B0, symBinAddr: 0x100054630, symSize: 0x10 }
  - { offsetInCU: 0x19FFF, offset: 0x19FFF, size: 0x8, addend: 0x0, symName: __ZNSt3__16vectorIP6NeuronNS_9allocatorIS2_EEE21_ConstructTransactionC1B7v160006ERS5_m, symObjAddr: 0x60C0, symBinAddr: 0x100054640, symSize: 0x30 }
  - { offsetInCU: 0x1A046, offset: 0x1A046, size: 0x8, addend: 0x0, symName: __ZNSt3__116allocator_traitsINS_9allocatorIP6NeuronEEE9constructB7v160006IS3_JRKS3_EvEEvRS4_PT_DpOT0_, symObjAddr: 0x60F0, symBinAddr: 0x100054670, symSize: 0x30 }
  - { offsetInCU: 0x1A09D, offset: 0x1A09D, size: 0x8, addend: 0x0, symName: __ZNSt3__16vectorIP6NeuronNS_9allocatorIS2_EEE7__allocB7v160006Ev, symObjAddr: 0x6120, symBinAddr: 0x1000546A0, symSize: 0x20 }
  - { offsetInCU: 0x1A0C2, offset: 0x1A0C2, size: 0x8, addend: 0x0, symName: __ZNSt3__16vectorIP6NeuronNS_9allocatorIS2_EEE21_ConstructTransactionD1B7v160006Ev, symObjAddr: 0x6150, symBinAddr: 0x1000546D0, symSize: 0x20 }
  - { offsetInCU: 0x1A0EB, offset: 0x1A0EB, size: 0x8, addend: 0x0, symName: __ZNSt3__16vectorIP6NeuronNS_9allocatorIS2_EEE21_ConstructTransactionC2B7v160006ERS5_m, symObjAddr: 0x6170, symBinAddr: 0x1000546F0, symSize: 0x40 }
  - { offsetInCU: 0x1A132, offset: 0x1A132, size: 0x8, addend: 0x0, symName: __ZNSt3__19allocatorIP6NeuronE9constructB7v160006IS2_JRKS2_EEEvPT_DpOT0_, symObjAddr: 0x61B0, symBinAddr: 0x100054730, symSize: 0x20 }
  - { offsetInCU: 0x1A187, offset: 0x1A187, size: 0x8, addend: 0x0, symName: __ZNSt3__117__compressed_pairIPP6NeuronNS_9allocatorIS2_EEE6secondB7v160006Ev, symObjAddr: 0x61D0, symBinAddr: 0x100054750, symSize: 0x20 }
  - { offsetInCU: 0x1A1AC, offset: 0x1A1AC, size: 0x8, addend: 0x0, symName: __ZNSt3__122__compressed_pair_elemINS_9allocatorIP6NeuronEELi1ELb1EE5__getB7v160006Ev, symObjAddr: 0x61F0, symBinAddr: 0x100054770, symSize: 0x10 }
  - { offsetInCU: 0x1A1D1, offset: 0x1A1D1, size: 0x8, addend: 0x0, symName: __ZNSt3__16vectorIP6NeuronNS_9allocatorIS2_EEE21_ConstructTransactionD2B7v160006Ev, symObjAddr: 0x6200, symBinAddr: 0x100054780, symSize: 0x20 }
  - { offsetInCU: 0x1A1FA, offset: 0x1A1FA, size: 0x8, addend: 0x0, symName: __ZNKSt3__16vectorIP6NeuronNS_9allocatorIS2_EEE11__recommendB7v160006Em, symObjAddr: 0x6220, symBinAddr: 0x1000547A0, symSize: 0xA0 }
  - { offsetInCU: 0x1A24E, offset: 0x1A24E, size: 0x8, addend: 0x0, symName: __ZNSt3__114__split_bufferIP6NeuronRNS_9allocatorIS2_EEEC1EmmS5_, symObjAddr: 0x62C0, symBinAddr: 0x100054840, symSize: 0x40 }
  - { offsetInCU: 0x1A2A3, offset: 0x1A2A3, size: 0x8, addend: 0x0, symName: __ZNSt3__114__split_bufferIP6NeuronRNS_9allocatorIS2_EEED1Ev, symObjAddr: 0x6430, symBinAddr: 0x1000549B0, symSize: 0x20 }
  - { offsetInCU: 0x1A2CE, offset: 0x1A2CE, size: 0x8, addend: 0x0, symName: __ZNKSt3__16vectorIP6NeuronNS_9allocatorIS2_EEE8max_sizeEv, symObjAddr: 0x6450, symBinAddr: 0x1000549D0, symSize: 0x60 }
  - { offsetInCU: 0x1A2F5, offset: 0x1A2F5, size: 0x8, addend: 0x0, symName: __ZNKSt3__16vectorIP6NeuronNS_9allocatorIS2_EEE20__throw_length_errorB7v160006Ev, symObjAddr: 0x64B0, symBinAddr: 0x100054A30, symSize: 0x20 }
  - { offsetInCU: 0x1A31A, offset: 0x1A31A, size: 0x8, addend: 0x0, symName: __ZNKSt3__16vectorIP6NeuronNS_9allocatorIS2_EEE8capacityB7v160006Ev, symObjAddr: 0x64D0, symBinAddr: 0x100054A50, symSize: 0x30 }
  - { offsetInCU: 0x1A349, offset: 0x1A349, size: 0x8, addend: 0x0, symName: __ZNSt3__116allocator_traitsINS_9allocatorIP6NeuronEEE8max_sizeB7v160006IS4_vEEmRKS4_, symObjAddr: 0x6560, symBinAddr: 0x100054AE0, symSize: 0x20 }
  - { offsetInCU: 0x1A377, offset: 0x1A377, size: 0x8, addend: 0x0, symName: __ZNKSt3__16vectorIP6NeuronNS_9allocatorIS2_EEE7__allocB7v160006Ev, symObjAddr: 0x6580, symBinAddr: 0x100054B00, symSize: 0x20 }
  - { offsetInCU: 0x1A39C, offset: 0x1A39C, size: 0x8, addend: 0x0, symName: __ZNSt3__114numeric_limitsIlE3maxB7v160006Ev, symObjAddr: 0x65A0, symBinAddr: 0x100054B20, symSize: 0x10 }
  - { offsetInCU: 0x1A3C4, offset: 0x1A3C4, size: 0x8, addend: 0x0, symName: __ZNKSt3__16__lessImmEclB7v160006ERKmS3_, symObjAddr: 0x6600, symBinAddr: 0x100054B80, symSize: 0x30 }
  - { offsetInCU: 0x1A405, offset: 0x1A405, size: 0x8, addend: 0x0, symName: __ZNKSt3__19allocatorIP6NeuronE8max_sizeB7v160006Ev, symObjAddr: 0x6630, symBinAddr: 0x100054BB0, symSize: 0x20 }
  - { offsetInCU: 0x1A42A, offset: 0x1A42A, size: 0x8, addend: 0x0, symName: __ZNKSt3__117__compressed_pairIPP6NeuronNS_9allocatorIS2_EEE6secondB7v160006Ev, symObjAddr: 0x6650, symBinAddr: 0x100054BD0, symSize: 0x20 }
  - { offsetInCU: 0x1A44F, offset: 0x1A44F, size: 0x8, addend: 0x0, symName: __ZNKSt3__122__compressed_pair_elemINS_9allocatorIP6NeuronEELi1ELb1EE5__getB7v160006Ev, symObjAddr: 0x6670, symBinAddr: 0x100054BF0, symSize: 0x10 }
  - { offsetInCU: 0x1A474, offset: 0x1A474, size: 0x8, addend: 0x0, symName: __ZNSt3__123__libcpp_numeric_limitsIlLb1EE3maxB7v160006Ev, symObjAddr: 0x6680, symBinAddr: 0x100054C00, symSize: 0x10 }
  - { offsetInCU: 0x1A488, offset: 0x1A488, size: 0x8, addend: 0x0, symName: __ZNSt12length_errorC1B7v160006EPKc, symObjAddr: 0x6700, symBinAddr: 0x100054C80, symSize: 0x30 }
  - { offsetInCU: 0x1A4BF, offset: 0x1A4BF, size: 0x8, addend: 0x0, symName: __ZNSt12length_errorC2B7v160006EPKc, symObjAddr: 0x6730, symBinAddr: 0x100054CB0, symSize: 0x40 }
  - { offsetInCU: 0x1A4F6, offset: 0x1A4F6, size: 0x8, addend: 0x0, symName: __ZNKSt3__16vectorIP6NeuronNS_9allocatorIS2_EEE9__end_capB7v160006Ev, symObjAddr: 0x6770, symBinAddr: 0x100054CF0, symSize: 0x20 }
  - { offsetInCU: 0x1A51B, offset: 0x1A51B, size: 0x8, addend: 0x0, symName: __ZNKSt3__117__compressed_pairIPP6NeuronNS_9allocatorIS2_EEE5firstB7v160006Ev, symObjAddr: 0x6790, symBinAddr: 0x100054D10, symSize: 0x20 }
  - { offsetInCU: 0x1A540, offset: 0x1A540, size: 0x8, addend: 0x0, symName: __ZNKSt3__122__compressed_pair_elemIPP6NeuronLi0ELb0EE5__getB7v160006Ev, symObjAddr: 0x67B0, symBinAddr: 0x100054D30, symSize: 0x10 }
  - { offsetInCU: 0x1A565, offset: 0x1A565, size: 0x8, addend: 0x0, symName: __ZNSt3__114__split_bufferIP6NeuronRNS_9allocatorIS2_EEEC2EmmS5_, symObjAddr: 0x6810, symBinAddr: 0x100054D90, symSize: 0xD0 }
  - { offsetInCU: 0x1A5D7, offset: 0x1A5D7, size: 0x8, addend: 0x0, symName: __ZNSt3__117__compressed_pairIPP6NeuronRNS_9allocatorIS2_EEEC1B7v160006IDnS6_EEOT_OT0_, symObjAddr: 0x68E0, symBinAddr: 0x100054E60, symSize: 0x30 }
  - { offsetInCU: 0x1A62E, offset: 0x1A62E, size: 0x8, addend: 0x0, symName: __ZNSt3__114__split_bufferIP6NeuronRNS_9allocatorIS2_EEE7__allocB7v160006Ev, symObjAddr: 0x6950, symBinAddr: 0x100054ED0, symSize: 0x20 }
  - { offsetInCU: 0x1A653, offset: 0x1A653, size: 0x8, addend: 0x0, symName: __ZNSt3__114__split_bufferIP6NeuronRNS_9allocatorIS2_EEE9__end_capB7v160006Ev, symObjAddr: 0x6970, symBinAddr: 0x100054EF0, symSize: 0x20 }
  - { offsetInCU: 0x1A678, offset: 0x1A678, size: 0x8, addend: 0x0, symName: __ZNSt3__117__compressed_pairIPP6NeuronRNS_9allocatorIS2_EEEC2B7v160006IDnS6_EEOT_OT0_, symObjAddr: 0x6990, symBinAddr: 0x100054F10, symSize: 0x40 }
  - { offsetInCU: 0x1A6CF, offset: 0x1A6CF, size: 0x8, addend: 0x0, symName: __ZNSt3__122__compressed_pair_elemIRNS_9allocatorIP6NeuronEELi1ELb0EEC2B7v160006IS5_vEEOT_, symObjAddr: 0x69D0, symBinAddr: 0x100054F50, symSize: 0x20 }
  - { offsetInCU: 0x1A710, offset: 0x1A710, size: 0x8, addend: 0x0, symName: __ZNSt3__19allocatorIP6NeuronE8allocateB7v160006Em, symObjAddr: 0x69F0, symBinAddr: 0x100054F70, symSize: 0x50 }
  - { offsetInCU: 0x1A743, offset: 0x1A743, size: 0x8, addend: 0x0, symName: __ZNSt3__117__compressed_pairIPP6NeuronRNS_9allocatorIS2_EEE6secondB7v160006Ev, symObjAddr: 0x6AC0, symBinAddr: 0x100055040, symSize: 0x20 }
  - { offsetInCU: 0x1A768, offset: 0x1A768, size: 0x8, addend: 0x0, symName: __ZNSt3__122__compressed_pair_elemIRNS_9allocatorIP6NeuronEELi1ELb0EE5__getB7v160006Ev, symObjAddr: 0x6AE0, symBinAddr: 0x100055060, symSize: 0x20 }
  - { offsetInCU: 0x1A78D, offset: 0x1A78D, size: 0x8, addend: 0x0, symName: __ZNSt3__117__compressed_pairIPP6NeuronRNS_9allocatorIS2_EEE5firstB7v160006Ev, symObjAddr: 0x6B00, symBinAddr: 0x100055080, symSize: 0x20 }
  - { offsetInCU: 0x1A7B2, offset: 0x1A7B2, size: 0x8, addend: 0x0, symName: __ZNKSt3__16vectorIP6NeuronNS_9allocatorIS2_EEE17__annotate_deleteB7v160006Ev, symObjAddr: 0x6B20, symBinAddr: 0x1000550A0, symSize: 0xB0 }
  - { offsetInCU: 0x1A7D7, offset: 0x1A7D7, size: 0x8, addend: 0x0, symName: __ZNSt3__116reverse_iteratorIPP6NeuronEC1B7v160006ES3_, symObjAddr: 0x6C40, symBinAddr: 0x1000551C0, symSize: 0x30 }
  - { offsetInCU: 0x1A80E, offset: 0x1A80E, size: 0x8, addend: 0x0, symName: __ZNKSt3__116reverse_iteratorIPP6NeuronE4baseB7v160006Ev, symObjAddr: 0x6C70, symBinAddr: 0x1000551F0, symSize: 0x20 }
  - { offsetInCU: 0x1A833, offset: 0x1A833, size: 0x8, addend: 0x0, symName: __ZNKSt3__16vectorIP6NeuronNS_9allocatorIS2_EEE14__annotate_newB7v160006Em, symObjAddr: 0x6CD0, symBinAddr: 0x100055250, symSize: 0xB0 }
  - { offsetInCU: 0x1A867, offset: 0x1A867, size: 0x8, addend: 0x0, symName: __ZNKSt3__16vectorIP6NeuronNS_9allocatorIS2_EEE31__annotate_contiguous_containerB7v160006EPKvS7_S7_S7_, symObjAddr: 0x6D90, symBinAddr: 0x100055310, symSize: 0x20 }
  - { offsetInCU: 0x1A8B8, offset: 0x1A8B8, size: 0x8, addend: 0x0, symName: __ZNKSt3__16vectorIP6NeuronNS_9allocatorIS2_EEE4dataB7v160006Ev, symObjAddr: 0x6DB0, symBinAddr: 0x100055330, symSize: 0x20 }
  - { offsetInCU: 0x1A900, offset: 0x1A900, size: 0x8, addend: 0x0, symName: __ZNKSt3__111__move_loopINS_17_ClassicAlgPolicyEEclB7v160006INS_16reverse_iteratorIPP6NeuronEES8_S8_EENS_4pairIT_T1_EESA_T0_SB_, symObjAddr: 0x7210, symBinAddr: 0x100055790, symSize: 0xA0 }
  - { offsetInCU: 0x1A96F, offset: 0x1A96F, size: 0x8, addend: 0x0, symName: __ZNSt3__18_IterOpsINS_17_ClassicAlgPolicyEE11__iter_moveB7v160006IRNS_16reverse_iteratorIPP6NeuronEEEENS_9enable_ifIXsr12is_referenceIDTdeclsr3stdE7declvalIRT_EEEEE5valueEDTclsr3stdE4movedeclsr3stdE7declvalISC_EEEEE4typeEOSB_, symObjAddr: 0x7430, symBinAddr: 0x1000559B0, symSize: 0x20 }
  - { offsetInCU: 0x1A99B, offset: 0x1A99B, size: 0x8, addend: 0x0, symName: __ZNKSt3__116reverse_iteratorIPP6NeuronEdeB7v160006Ev, symObjAddr: 0x7450, symBinAddr: 0x1000559D0, symSize: 0x30 }
  - { offsetInCU: 0x1A9CE, offset: 0x1A9CE, size: 0x8, addend: 0x0, symName: __ZNSt3__116reverse_iteratorIPP6NeuronEppB7v160006Ev, symObjAddr: 0x7480, symBinAddr: 0x100055A00, symSize: 0x20 }
  - { offsetInCU: 0x1A9F3, offset: 0x1A9F3, size: 0x8, addend: 0x0, symName: __ZNSt3__18_IterOpsINS_17_ClassicAlgPolicyEE25__validate_iter_referenceB7v160006IRNS_16reverse_iteratorIPP6NeuronEEEEvv, symObjAddr: 0x74A0, symBinAddr: 0x100055A20, symSize: 0x10 }
  - { offsetInCU: 0x1AA11, offset: 0x1AA11, size: 0x8, addend: 0x0, symName: __ZNSt3__118__unwrap_iter_implINS_16reverse_iteratorIPP6NeuronEELb0EE8__unwrapB7v160006ES5_, symObjAddr: 0x74B0, symBinAddr: 0x100055A30, symSize: 0x20 }
  - { offsetInCU: 0x1AA39, offset: 0x1AA39, size: 0x8, addend: 0x0, symName: __ZNSt3__14pairINS_16reverse_iteratorIPP6NeuronEES5_EC1B7v160006IS5_S5_LPv0EEEOT_OT0_, symObjAddr: 0x74D0, symBinAddr: 0x100055A50, symSize: 0x30 }
  - { offsetInCU: 0x1AA96, offset: 0x1AA96, size: 0x8, addend: 0x0, symName: __ZNSt3__14pairINS_16reverse_iteratorIPP6NeuronEES5_EC2B7v160006IS5_S5_LPv0EEEOT_OT0_, symObjAddr: 0x7500, symBinAddr: 0x100055A80, symSize: 0x40 }
  - { offsetInCU: 0x1AAF3, offset: 0x1AAF3, size: 0x8, addend: 0x0, symName: __ZNSt3__118__unwrap_iter_implINS_16reverse_iteratorIPP6NeuronEELb0EE8__rewrapB7v160006ES5_S5_, symObjAddr: 0x7540, symBinAddr: 0x100055AC0, symSize: 0x30 }
  - { offsetInCU: 0x1AB21, offset: 0x1AB21, size: 0x8, addend: 0x0, symName: __ZNSt3__116reverse_iteratorIPP6NeuronEC2B7v160006ES3_, symObjAddr: 0x7570, symBinAddr: 0x100055AF0, symSize: 0x30 }
  - { offsetInCU: 0x1AB58, offset: 0x1AB58, size: 0x8, addend: 0x0, symName: __ZNSt3__114__split_bufferIP6NeuronRNS_9allocatorIS2_EEED2Ev, symObjAddr: 0x75A0, symBinAddr: 0x100055B20, symSize: 0x70 }
  - { offsetInCU: 0x1AB83, offset: 0x1AB83, size: 0x8, addend: 0x0, symName: __ZNSt3__114__split_bufferIP6NeuronRNS_9allocatorIS2_EEE5clearB7v160006Ev, symObjAddr: 0x7610, symBinAddr: 0x100055B90, symSize: 0x20 }
  - { offsetInCU: 0x1ABA8, offset: 0x1ABA8, size: 0x8, addend: 0x0, symName: __ZNSt3__116allocator_traitsINS_9allocatorIP6NeuronEEE10deallocateB7v160006ERS4_PS3_m, symObjAddr: 0x7630, symBinAddr: 0x100055BB0, symSize: 0x30 }
  - { offsetInCU: 0x1ABEA, offset: 0x1ABEA, size: 0x8, addend: 0x0, symName: __ZNKSt3__114__split_bufferIP6NeuronRNS_9allocatorIS2_EEE8capacityB7v160006Ev, symObjAddr: 0x7660, symBinAddr: 0x100055BE0, symSize: 0x30 }
  - { offsetInCU: 0x1AC0F, offset: 0x1AC0F, size: 0x8, addend: 0x0, symName: __ZNSt3__114__split_bufferIP6NeuronRNS_9allocatorIS2_EEE17__destruct_at_endB7v160006EPS2_, symObjAddr: 0x7690, symBinAddr: 0x100055C10, symSize: 0x30 }
  - { offsetInCU: 0x1AC42, offset: 0x1AC42, size: 0x8, addend: 0x0, symName: __ZNSt3__114__split_bufferIP6NeuronRNS_9allocatorIS2_EEE17__destruct_at_endB7v160006EPS2_NS_17integral_constantIbLb0EEE, symObjAddr: 0x76C0, symBinAddr: 0x100055C40, symSize: 0x80 }
  - { offsetInCU: 0x1AC82, offset: 0x1AC82, size: 0x8, addend: 0x0, symName: __ZNSt3__116allocator_traitsINS_9allocatorIP6NeuronEEE7destroyB7v160006IS3_vEEvRS4_PT_, symObjAddr: 0x7740, symBinAddr: 0x100055CC0, symSize: 0x30 }
  - { offsetInCU: 0x1ACBF, offset: 0x1ACBF, size: 0x8, addend: 0x0, symName: __ZNSt3__19allocatorIP6NeuronE7destroyB7v160006EPS2_, symObjAddr: 0x7770, symBinAddr: 0x100055CF0, symSize: 0x10 }
  - { offsetInCU: 0x1ACF2, offset: 0x1ACF2, size: 0x8, addend: 0x0, symName: __ZNSt3__19allocatorIP6NeuronE10deallocateB7v160006EPS2_m, symObjAddr: 0x7780, symBinAddr: 0x100055D00, symSize: 0x40 }
  - { offsetInCU: 0x1AD33, offset: 0x1AD33, size: 0x8, addend: 0x0, symName: __ZNKSt3__114__split_bufferIP6NeuronRNS_9allocatorIS2_EEE9__end_capB7v160006Ev, symObjAddr: 0x7830, symBinAddr: 0x100055DB0, symSize: 0x20 }
  - { offsetInCU: 0x1AD58, offset: 0x1AD58, size: 0x8, addend: 0x0, symName: __ZNKSt3__117__compressed_pairIPP6NeuronRNS_9allocatorIS2_EEE5firstB7v160006Ev, symObjAddr: 0x7850, symBinAddr: 0x100055DD0, symSize: 0x20 }
  - { offsetInCU: 0x1AD7D, offset: 0x1AD7D, size: 0x8, addend: 0x0, symName: __ZNSt3__16vectorINS0_IP6NeuronNS_9allocatorIS2_EEEENS3_IS5_EEE9__end_capB7v160006Ev, symObjAddr: 0x7870, symBinAddr: 0x100055DF0, symSize: 0x20 }
  - { offsetInCU: 0x1ADA2, offset: 0x1ADA2, size: 0x8, addend: 0x0, symName: __ZNSt3__16vectorINS0_IP6NeuronNS_9allocatorIS2_EEEENS3_IS5_EEE22__construct_one_at_endB7v160006IJRKS5_EEEvDpOT_, symObjAddr: 0x7890, symBinAddr: 0x100055E10, symSize: 0x90 }
  - { offsetInCU: 0x1ADF0, offset: 0x1ADF0, size: 0x8, addend: 0x0, symName: __ZNSt3__16vectorINS0_IP6NeuronNS_9allocatorIS2_EEEENS3_IS5_EEE21__push_back_slow_pathIRKS5_EEvOT_, symObjAddr: 0x7920, symBinAddr: 0x100055EA0, symSize: 0xD0 }
  - { offsetInCU: 0x1AE4D, offset: 0x1AE4D, size: 0x8, addend: 0x0, symName: __ZNSt3__117__compressed_pairIPNS_6vectorIP6NeuronNS_9allocatorIS3_EEEENS4_IS6_EEE5firstB7v160006Ev, symObjAddr: 0x79F0, symBinAddr: 0x100055F70, symSize: 0x20 }
  - { offsetInCU: 0x1AE72, offset: 0x1AE72, size: 0x8, addend: 0x0, symName: __ZNSt3__122__compressed_pair_elemIPNS_6vectorIP6NeuronNS_9allocatorIS3_EEEELi0ELb0EE5__getB7v160006Ev, symObjAddr: 0x7A10, symBinAddr: 0x100055F90, symSize: 0x10 }
  - { offsetInCU: 0x1AEB0, offset: 0x1AEB0, size: 0x8, addend: 0x0, symName: __ZNSt3__16vectorINS0_IP6NeuronNS_9allocatorIS2_EEEENS3_IS5_EEE21_ConstructTransactionC1B7v160006ERS7_m, symObjAddr: 0x7A20, symBinAddr: 0x100055FA0, symSize: 0x30 }
  - { offsetInCU: 0x1AEF7, offset: 0x1AEF7, size: 0x8, addend: 0x0, symName: __ZNSt3__116allocator_traitsINS_9allocatorINS_6vectorIP6NeuronNS1_IS4_EEEEEEE9constructB7v160006IS6_JRKS6_EvEEvRS7_PT_DpOT0_, symObjAddr: 0x7A50, symBinAddr: 0x100055FD0, symSize: 0x30 }
  - { offsetInCU: 0x1AF4E, offset: 0x1AF4E, size: 0x8, addend: 0x0, symName: __ZNSt3__16vectorINS0_IP6NeuronNS_9allocatorIS2_EEEENS3_IS5_EEE7__allocB7v160006Ev, symObjAddr: 0x7A80, symBinAddr: 0x100056000, symSize: 0x20 }
  - { offsetInCU: 0x1AF73, offset: 0x1AF73, size: 0x8, addend: 0x0, symName: __ZNSt3__16vectorINS0_IP6NeuronNS_9allocatorIS2_EEEENS3_IS5_EEE21_ConstructTransactionD1B7v160006Ev, symObjAddr: 0x7AB0, symBinAddr: 0x100056030, symSize: 0x20 }
  - { offsetInCU: 0x1AF9C, offset: 0x1AF9C, size: 0x8, addend: 0x0, symName: __ZNSt3__16vectorINS0_IP6NeuronNS_9allocatorIS2_EEEENS3_IS5_EEE21_ConstructTransactionC2B7v160006ERS7_m, symObjAddr: 0x7AD0, symBinAddr: 0x100056050, symSize: 0x40 }
  - { offsetInCU: 0x1AFE3, offset: 0x1AFE3, size: 0x8, addend: 0x0, symName: __ZNSt3__19allocatorINS_6vectorIP6NeuronNS0_IS3_EEEEE9constructB7v160006IS5_JRKS5_EEEvPT_DpOT0_, symObjAddr: 0x7B10, symBinAddr: 0x100056090, symSize: 0x30 }
  - { offsetInCU: 0x1B038, offset: 0x1B038, size: 0x8, addend: 0x0, symName: __ZNSt3__16vectorIP6NeuronNS_9allocatorIS2_EEEC1ERKS5_, symObjAddr: 0x7B40, symBinAddr: 0x1000560C0, symSize: 0x30 }
  - { offsetInCU: 0x1B072, offset: 0x1B072, size: 0x8, addend: 0x0, symName: __ZNSt3__16vectorIP6NeuronNS_9allocatorIS2_EEEC2ERKS5_, symObjAddr: 0x7B70, symBinAddr: 0x1000560F0, symSize: 0x110 }
  - { offsetInCU: 0x1B0D1, offset: 0x1B0D1, size: 0x8, addend: 0x0, symName: __ZNSt3__116allocator_traitsINS_9allocatorIP6NeuronEEE37select_on_container_copy_constructionB7v160006IS4_vvEES4_RKS4_, symObjAddr: 0x7C80, symBinAddr: 0x100056200, symSize: 0x10 }
  - { offsetInCU: 0x1B105, offset: 0x1B105, size: 0x8, addend: 0x0, symName: __ZNSt3__117__compressed_pairIPP6NeuronNS_9allocatorIS2_EEEC1B7v160006IDnS5_EEOT_OT0_, symObjAddr: 0x7C90, symBinAddr: 0x100056210, symSize: 0x30 }
  - { offsetInCU: 0x1B15C, offset: 0x1B15C, size: 0x8, addend: 0x0, symName: __ZNSt3__16vectorIP6NeuronNS_9allocatorIS2_EEE16__destroy_vectorC1ERS5_, symObjAddr: 0x7D00, symBinAddr: 0x100056280, symSize: 0x30 }
  - { offsetInCU: 0x1B194, offset: 0x1B194, size: 0x8, addend: 0x0, symName: __ZNSt3__16vectorIP6NeuronNS_9allocatorIS2_EEE11__vallocateB7v160006Em, symObjAddr: 0x7D30, symBinAddr: 0x1000562B0, symSize: 0xA0 }
  - { offsetInCU: 0x1B1D7, offset: 0x1B1D7, size: 0x8, addend: 0x0, symName: __ZNSt3__16vectorIP6NeuronNS_9allocatorIS2_EEE18__construct_at_endIPS2_Li0EEEvT_S8_m, symObjAddr: 0x7DD0, symBinAddr: 0x100056350, symSize: 0x90 }
  - { offsetInCU: 0x1B249, offset: 0x1B249, size: 0x8, addend: 0x0, symName: __ZNSt3__128__exception_guard_exceptionsINS_6vectorIP6NeuronNS_9allocatorIS3_EEE16__destroy_vectorEE10__completeB7v160006Ev, symObjAddr: 0x7E60, symBinAddr: 0x1000563E0, symSize: 0x20 }
  - { offsetInCU: 0x1B26E, offset: 0x1B26E, size: 0x8, addend: 0x0, symName: __ZNSt3__128__exception_guard_exceptionsINS_6vectorIP6NeuronNS_9allocatorIS3_EEE16__destroy_vectorEED1B7v160006Ev, symObjAddr: 0x7E80, symBinAddr: 0x100056400, symSize: 0x20 }
  - { offsetInCU: 0x1B297, offset: 0x1B297, size: 0x8, addend: 0x0, symName: __ZNSt3__117__compressed_pairIPP6NeuronNS_9allocatorIS2_EEEC2B7v160006IDnS5_EEOT_OT0_, symObjAddr: 0x7EA0, symBinAddr: 0x100056420, symSize: 0x40 }
  - { offsetInCU: 0x1B2EE, offset: 0x1B2EE, size: 0x8, addend: 0x0, symName: __ZNSt3__122__compressed_pair_elemINS_9allocatorIP6NeuronEELi1ELb1EEC2B7v160006IS4_vEEOT_, symObjAddr: 0x7EE0, symBinAddr: 0x100056460, symSize: 0x10 }
  - { offsetInCU: 0x1B32F, offset: 0x1B32F, size: 0x8, addend: 0x0, symName: __ZNSt3__128__exception_guard_exceptionsINS_6vectorIP6NeuronNS_9allocatorIS3_EEE16__destroy_vectorEEC1B7v160006ES7_, symObjAddr: 0x7EF0, symBinAddr: 0x100056470, symSize: 0x30 }
  - { offsetInCU: 0x1B366, offset: 0x1B366, size: 0x8, addend: 0x0, symName: __ZNSt3__128__exception_guard_exceptionsINS_6vectorIP6NeuronNS_9allocatorIS3_EEE16__destroy_vectorEEC2B7v160006ES7_, symObjAddr: 0x7F20, symBinAddr: 0x1000564A0, symSize: 0x20 }
  - { offsetInCU: 0x1B39D, offset: 0x1B39D, size: 0x8, addend: 0x0, symName: __ZNSt3__16vectorIP6NeuronNS_9allocatorIS2_EEE16__destroy_vectorC2ERS5_, symObjAddr: 0x7F40, symBinAddr: 0x1000564C0, symSize: 0x20 }
  - { offsetInCU: 0x1B3D5, offset: 0x1B3D5, size: 0x8, addend: 0x0, symName: __ZNSt3__129_AllocatorDestroyRangeReverseINS_9allocatorIP6NeuronEEPS3_EC1B7v160006ERS4_RS5_S8_, symObjAddr: 0x80C0, symBinAddr: 0x100056640, symSize: 0x40 }
  - { offsetInCU: 0x1B42B, offset: 0x1B42B, size: 0x8, addend: 0x0, symName: __ZNSt3__116allocator_traitsINS_9allocatorIP6NeuronEEE9constructB7v160006IS3_JRS3_EvEEvRS4_PT_DpOT0_, symObjAddr: 0x8100, symBinAddr: 0x100056680, symSize: 0x30 }
  - { offsetInCU: 0x1B482, offset: 0x1B482, size: 0x8, addend: 0x0, symName: __ZNSt3__128__exception_guard_exceptionsINS_29_AllocatorDestroyRangeReverseINS_9allocatorIP6NeuronEEPS4_EEE10__completeB7v160006Ev, symObjAddr: 0x8130, symBinAddr: 0x1000566B0, symSize: 0x20 }
  - { offsetInCU: 0x1B4A7, offset: 0x1B4A7, size: 0x8, addend: 0x0, symName: __ZNSt3__128__exception_guard_exceptionsINS_29_AllocatorDestroyRangeReverseINS_9allocatorIP6NeuronEEPS4_EEED1B7v160006Ev, symObjAddr: 0x8150, symBinAddr: 0x1000566D0, symSize: 0x20 }
  - { offsetInCU: 0x1B4D0, offset: 0x1B4D0, size: 0x8, addend: 0x0, symName: __ZNSt3__128__exception_guard_exceptionsINS_29_AllocatorDestroyRangeReverseINS_9allocatorIP6NeuronEEPS4_EEEC1B7v160006ES7_, symObjAddr: 0x8170, symBinAddr: 0x1000566F0, symSize: 0x40 }
  - { offsetInCU: 0x1B507, offset: 0x1B507, size: 0x8, addend: 0x0, symName: __ZNSt3__128__exception_guard_exceptionsINS_29_AllocatorDestroyRangeReverseINS_9allocatorIP6NeuronEEPS4_EEEC2B7v160006ES7_, symObjAddr: 0x81B0, symBinAddr: 0x100056730, symSize: 0x30 }
  - { offsetInCU: 0x1B53E, offset: 0x1B53E, size: 0x8, addend: 0x0, symName: __ZNSt3__129_AllocatorDestroyRangeReverseINS_9allocatorIP6NeuronEEPS3_EC2B7v160006ERS4_RS5_S8_, symObjAddr: 0x81E0, symBinAddr: 0x100056760, symSize: 0x40 }
  - { offsetInCU: 0x1B594, offset: 0x1B594, size: 0x8, addend: 0x0, symName: __ZNSt3__19allocatorIP6NeuronE9constructB7v160006IS2_JRS2_EEEvPT_DpOT0_, symObjAddr: 0x8220, symBinAddr: 0x1000567A0, symSize: 0x20 }
  - { offsetInCU: 0x1B5E9, offset: 0x1B5E9, size: 0x8, addend: 0x0, symName: __ZNSt3__128__exception_guard_exceptionsINS_29_AllocatorDestroyRangeReverseINS_9allocatorIP6NeuronEEPS4_EEED2B7v160006Ev, symObjAddr: 0x8240, symBinAddr: 0x1000567C0, symSize: 0x40 }
  - { offsetInCU: 0x1B612, offset: 0x1B612, size: 0x8, addend: 0x0, symName: __ZNKSt3__129_AllocatorDestroyRangeReverseINS_9allocatorIP6NeuronEEPS3_EclB7v160006Ev, symObjAddr: 0x8280, symBinAddr: 0x100056800, symSize: 0x60 }
  - { offsetInCU: 0x1B63C, offset: 0x1B63C, size: 0x8, addend: 0x0, symName: __ZNSt3__119__to_address_helperINS_16reverse_iteratorIPP6NeuronEEvE6__callB7v160006ERKS5_, symObjAddr: 0x8370, symBinAddr: 0x1000568F0, symSize: 0x40 }
  - { offsetInCU: 0x1B65F, offset: 0x1B65F, size: 0x8, addend: 0x0, symName: __ZNKSt3__116reverse_iteratorIPP6NeuronEptB7v160006Ev, symObjAddr: 0x83B0, symBinAddr: 0x100056930, symSize: 0x20 }
  - { offsetInCU: 0x1B684, offset: 0x1B684, size: 0x8, addend: 0x0, symName: __ZNSt3__128__exception_guard_exceptionsINS_6vectorIP6NeuronNS_9allocatorIS3_EEE16__destroy_vectorEED2B7v160006Ev, symObjAddr: 0x83D0, symBinAddr: 0x100056950, symSize: 0x40 }
  - { offsetInCU: 0x1B6AD, offset: 0x1B6AD, size: 0x8, addend: 0x0, symName: __ZNSt3__16vectorIP6NeuronNS_9allocatorIS2_EEE16__destroy_vectorclB7v160006Ev, symObjAddr: 0x8410, symBinAddr: 0x100056990, symSize: 0x90 }
  - { offsetInCU: 0x1B6D2, offset: 0x1B6D2, size: 0x8, addend: 0x0, symName: __ZNSt3__16vectorIP6NeuronNS_9allocatorIS2_EEE7__clearB7v160006Ev, symObjAddr: 0x84B0, symBinAddr: 0x100056A30, symSize: 0x20 }
  - { offsetInCU: 0x1B6F7, offset: 0x1B6F7, size: 0x8, addend: 0x0, symName: __ZNSt3__16vectorIP6NeuronNS_9allocatorIS2_EEE22__base_destruct_at_endB7v160006EPS2_, symObjAddr: 0x84D0, symBinAddr: 0x100056A50, symSize: 0x80 }
  - { offsetInCU: 0x1B73A, offset: 0x1B73A, size: 0x8, addend: 0x0, symName: __ZNSt3__117__compressed_pairIPNS_6vectorIP6NeuronNS_9allocatorIS3_EEEENS4_IS6_EEE6secondB7v160006Ev, symObjAddr: 0x8550, symBinAddr: 0x100056AD0, symSize: 0x20 }
  - { offsetInCU: 0x1B75F, offset: 0x1B75F, size: 0x8, addend: 0x0, symName: __ZNSt3__122__compressed_pair_elemINS_9allocatorINS_6vectorIP6NeuronNS1_IS4_EEEEEELi1ELb1EE5__getB7v160006Ev, symObjAddr: 0x8570, symBinAddr: 0x100056AF0, symSize: 0x10 }
  - { offsetInCU: 0x1B784, offset: 0x1B784, size: 0x8, addend: 0x0, symName: __ZNSt3__16vectorINS0_IP6NeuronNS_9allocatorIS2_EEEENS3_IS5_EEE21_ConstructTransactionD2B7v160006Ev, symObjAddr: 0x8580, symBinAddr: 0x100056B00, symSize: 0x20 }
  - { offsetInCU: 0x1B7AD, offset: 0x1B7AD, size: 0x8, addend: 0x0, symName: __ZNKSt3__16vectorINS0_IP6NeuronNS_9allocatorIS2_EEEENS3_IS5_EEE11__recommendB7v160006Em, symObjAddr: 0x85A0, symBinAddr: 0x100056B20, symSize: 0xA0 }
  - { offsetInCU: 0x1B801, offset: 0x1B801, size: 0x8, addend: 0x0, symName: __ZNKSt3__16vectorINS0_IP6NeuronNS_9allocatorIS2_EEEENS3_IS5_EEE4sizeB7v160006Ev, symObjAddr: 0x8640, symBinAddr: 0x100056BC0, symSize: 0x30 }
  - { offsetInCU: 0x1B826, offset: 0x1B826, size: 0x8, addend: 0x0, symName: __ZNSt3__114__split_bufferINS_6vectorIP6NeuronNS_9allocatorIS3_EEEERNS4_IS6_EEEC1EmmS8_, symObjAddr: 0x8670, symBinAddr: 0x100056BF0, symSize: 0x40 }
  - { offsetInCU: 0x1B87B, offset: 0x1B87B, size: 0x8, addend: 0x0, symName: __ZNSt3__114__split_bufferINS_6vectorIP6NeuronNS_9allocatorIS3_EEEERNS4_IS6_EEED1Ev, symObjAddr: 0x87E0, symBinAddr: 0x100056D60, symSize: 0x20 }
  - { offsetInCU: 0x1B8A6, offset: 0x1B8A6, size: 0x8, addend: 0x0, symName: __ZNKSt3__16vectorINS0_IP6NeuronNS_9allocatorIS2_EEEENS3_IS5_EEE8max_sizeEv, symObjAddr: 0x8800, symBinAddr: 0x100056D80, symSize: 0x60 }
  - { offsetInCU: 0x1B8CD, offset: 0x1B8CD, size: 0x8, addend: 0x0, symName: __ZNKSt3__16vectorINS0_IP6NeuronNS_9allocatorIS2_EEEENS3_IS5_EEE20__throw_length_errorB7v160006Ev, symObjAddr: 0x8860, symBinAddr: 0x100056DE0, symSize: 0x20 }
  - { offsetInCU: 0x1B8F2, offset: 0x1B8F2, size: 0x8, addend: 0x0, symName: __ZNKSt3__16vectorINS0_IP6NeuronNS_9allocatorIS2_EEEENS3_IS5_EEE8capacityB7v160006Ev, symObjAddr: 0x8880, symBinAddr: 0x100056E00, symSize: 0x40 }
  - { offsetInCU: 0x1B921, offset: 0x1B921, size: 0x8, addend: 0x0, symName: __ZNSt3__116allocator_traitsINS_9allocatorINS_6vectorIP6NeuronNS1_IS4_EEEEEEE8max_sizeB7v160006IS7_vEEmRKS7_, symObjAddr: 0x88C0, symBinAddr: 0x100056E40, symSize: 0x20 }
  - { offsetInCU: 0x1B94F, offset: 0x1B94F, size: 0x8, addend: 0x0, symName: __ZNKSt3__16vectorINS0_IP6NeuronNS_9allocatorIS2_EEEENS3_IS5_EEE7__allocB7v160006Ev, symObjAddr: 0x88E0, symBinAddr: 0x100056E60, symSize: 0x20 }
  - { offsetInCU: 0x1B974, offset: 0x1B974, size: 0x8, addend: 0x0, symName: __ZNKSt3__19allocatorINS_6vectorIP6NeuronNS0_IS3_EEEEE8max_sizeB7v160006Ev, symObjAddr: 0x8900, symBinAddr: 0x100056E80, symSize: 0x20 }
  - { offsetInCU: 0x1B999, offset: 0x1B999, size: 0x8, addend: 0x0, symName: __ZNKSt3__117__compressed_pairIPNS_6vectorIP6NeuronNS_9allocatorIS3_EEEENS4_IS6_EEE6secondB7v160006Ev, symObjAddr: 0x8920, symBinAddr: 0x100056EA0, symSize: 0x20 }
  - { offsetInCU: 0x1B9BE, offset: 0x1B9BE, size: 0x8, addend: 0x0, symName: __ZNKSt3__122__compressed_pair_elemINS_9allocatorINS_6vectorIP6NeuronNS1_IS4_EEEEEELi1ELb1EE5__getB7v160006Ev, symObjAddr: 0x8940, symBinAddr: 0x100056EC0, symSize: 0x10 }
  - { offsetInCU: 0x1B9E3, offset: 0x1B9E3, size: 0x8, addend: 0x0, symName: __ZNKSt3__16vectorINS0_IP6NeuronNS_9allocatorIS2_EEEENS3_IS5_EEE9__end_capB7v160006Ev, symObjAddr: 0x8950, symBinAddr: 0x100056ED0, symSize: 0x20 }
  - { offsetInCU: 0x1BA08, offset: 0x1BA08, size: 0x8, addend: 0x0, symName: __ZNKSt3__117__compressed_pairIPNS_6vectorIP6NeuronNS_9allocatorIS3_EEEENS4_IS6_EEE5firstB7v160006Ev, symObjAddr: 0x8970, symBinAddr: 0x100056EF0, symSize: 0x20 }
  - { offsetInCU: 0x1BA2D, offset: 0x1BA2D, size: 0x8, addend: 0x0, symName: __ZNKSt3__122__compressed_pair_elemIPNS_6vectorIP6NeuronNS_9allocatorIS3_EEEELi0ELb0EE5__getB7v160006Ev, symObjAddr: 0x8990, symBinAddr: 0x100056F10, symSize: 0x10 }
  - { offsetInCU: 0x1BA52, offset: 0x1BA52, size: 0x8, addend: 0x0, symName: __ZNSt3__114__split_bufferINS_6vectorIP6NeuronNS_9allocatorIS3_EEEERNS4_IS6_EEEC2EmmS8_, symObjAddr: 0x89A0, symBinAddr: 0x100056F20, symSize: 0xC0 }
  - { offsetInCU: 0x1BAC4, offset: 0x1BAC4, size: 0x8, addend: 0x0, symName: __ZNSt3__117__compressed_pairIPNS_6vectorIP6NeuronNS_9allocatorIS3_EEEERNS4_IS6_EEEC1B7v160006IDnS9_EEOT_OT0_, symObjAddr: 0x8A60, symBinAddr: 0x100056FE0, symSize: 0x30 }
  - { offsetInCU: 0x1BB1B, offset: 0x1BB1B, size: 0x8, addend: 0x0, symName: __ZNSt3__114__split_bufferINS_6vectorIP6NeuronNS_9allocatorIS3_EEEERNS4_IS6_EEE7__allocB7v160006Ev, symObjAddr: 0x8AD0, symBinAddr: 0x100057050, symSize: 0x20 }
  - { offsetInCU: 0x1BB40, offset: 0x1BB40, size: 0x8, addend: 0x0, symName: __ZNSt3__114__split_bufferINS_6vectorIP6NeuronNS_9allocatorIS3_EEEERNS4_IS6_EEE9__end_capB7v160006Ev, symObjAddr: 0x8AF0, symBinAddr: 0x100057070, symSize: 0x20 }
  - { offsetInCU: 0x1BB65, offset: 0x1BB65, size: 0x8, addend: 0x0, symName: __ZNSt3__117__compressed_pairIPNS_6vectorIP6NeuronNS_9allocatorIS3_EEEERNS4_IS6_EEEC2B7v160006IDnS9_EEOT_OT0_, symObjAddr: 0x8B10, symBinAddr: 0x100057090, symSize: 0x40 }
  - { offsetInCU: 0x1BBBC, offset: 0x1BBBC, size: 0x8, addend: 0x0, symName: __ZNSt3__122__compressed_pair_elemIRNS_9allocatorINS_6vectorIP6NeuronNS1_IS4_EEEEEELi1ELb0EEC2B7v160006IS8_vEEOT_, symObjAddr: 0x8B50, symBinAddr: 0x1000570D0, symSize: 0x20 }
  - { offsetInCU: 0x1BBFD, offset: 0x1BBFD, size: 0x8, addend: 0x0, symName: __ZNSt3__19allocatorINS_6vectorIP6NeuronNS0_IS3_EEEEE8allocateB7v160006Em, symObjAddr: 0x8B70, symBinAddr: 0x1000570F0, symSize: 0x50 }
  - { offsetInCU: 0x1BC30, offset: 0x1BC30, size: 0x8, addend: 0x0, symName: __ZNSt3__117__compressed_pairIPNS_6vectorIP6NeuronNS_9allocatorIS3_EEEERNS4_IS6_EEE6secondB7v160006Ev, symObjAddr: 0x8BC0, symBinAddr: 0x100057140, symSize: 0x20 }
  - { offsetInCU: 0x1BC55, offset: 0x1BC55, size: 0x8, addend: 0x0, symName: __ZNSt3__122__compressed_pair_elemIRNS_9allocatorINS_6vectorIP6NeuronNS1_IS4_EEEEEELi1ELb0EE5__getB7v160006Ev, symObjAddr: 0x8BE0, symBinAddr: 0x100057160, symSize: 0x20 }
  - { offsetInCU: 0x1BC7A, offset: 0x1BC7A, size: 0x8, addend: 0x0, symName: __ZNSt3__117__compressed_pairIPNS_6vectorIP6NeuronNS_9allocatorIS3_EEEERNS4_IS6_EEE5firstB7v160006Ev, symObjAddr: 0x8C00, symBinAddr: 0x100057180, symSize: 0x20 }
  - { offsetInCU: 0x1BC9F, offset: 0x1BC9F, size: 0x8, addend: 0x0, symName: __ZNKSt3__16vectorINS0_IP6NeuronNS_9allocatorIS2_EEEENS3_IS5_EEE17__annotate_deleteB7v160006Ev, symObjAddr: 0x8C20, symBinAddr: 0x1000571A0, symSize: 0xB0 }
  - { offsetInCU: 0x1BCC4, offset: 0x1BCC4, size: 0x8, addend: 0x0, symName: __ZNSt3__116reverse_iteratorIPNS_6vectorIP6NeuronNS_9allocatorIS3_EEEEEC1B7v160006ES7_, symObjAddr: 0x8E50, symBinAddr: 0x1000573D0, symSize: 0x30 }
  - { offsetInCU: 0x1BCFB, offset: 0x1BCFB, size: 0x8, addend: 0x0, symName: __ZNKSt3__116reverse_iteratorIPNS_6vectorIP6NeuronNS_9allocatorIS3_EEEEE4baseB7v160006Ev, symObjAddr: 0x8E80, symBinAddr: 0x100057400, symSize: 0x20 }
  - { offsetInCU: 0x1BD20, offset: 0x1BD20, size: 0x8, addend: 0x0, symName: __ZNKSt3__16vectorINS0_IP6NeuronNS_9allocatorIS2_EEEENS3_IS5_EEE14__annotate_newB7v160006Em, symObjAddr: 0x8EE0, symBinAddr: 0x100057460, symSize: 0xA0 }
  - { offsetInCU: 0x1BD54, offset: 0x1BD54, size: 0x8, addend: 0x0, symName: __ZNKSt3__16vectorINS0_IP6NeuronNS_9allocatorIS2_EEEENS3_IS5_EEE31__annotate_contiguous_containerB7v160006EPKvS9_S9_S9_, symObjAddr: 0x8F90, symBinAddr: 0x100057510, symSize: 0x20 }
  - { offsetInCU: 0x1BDA5, offset: 0x1BDA5, size: 0x8, addend: 0x0, symName: __ZNKSt3__16vectorINS0_IP6NeuronNS_9allocatorIS2_EEEENS3_IS5_EEE4dataB7v160006Ev, symObjAddr: 0x8FB0, symBinAddr: 0x100057530, symSize: 0x20 }
  - { offsetInCU: 0x1BDCA, offset: 0x1BDCA, size: 0x8, addend: 0x0, symName: __ZNSt3__129_AllocatorDestroyRangeReverseINS_9allocatorINS_6vectorIP6NeuronNS1_IS4_EEEEEENS_16reverse_iteratorIPS6_EEEC1B7v160006ERS7_RSA_SD_, symObjAddr: 0x9030, symBinAddr: 0x1000575B0, symSize: 0x40 }
  - { offsetInCU: 0x1BE20, offset: 0x1BE20, size: 0x8, addend: 0x0, symName: __ZNSt3__116allocator_traitsINS_9allocatorINS_6vectorIP6NeuronNS1_IS4_EEEEEEE9constructB7v160006IS6_JS6_EvEEvRS7_PT_DpOT0_, symObjAddr: 0x90B0, symBinAddr: 0x100057630, symSize: 0x30 }
  - { offsetInCU: 0x1BE77, offset: 0x1BE77, size: 0x8, addend: 0x0, symName: __ZNKSt3__116reverse_iteratorIPNS_6vectorIP6NeuronNS_9allocatorIS3_EEEEEdeB7v160006Ev, symObjAddr: 0x9100, symBinAddr: 0x100057680, symSize: 0x30 }
  - { offsetInCU: 0x1BEAA, offset: 0x1BEAA, size: 0x8, addend: 0x0, symName: __ZNSt3__116reverse_iteratorIPNS_6vectorIP6NeuronNS_9allocatorIS3_EEEEEppB7v160006Ev, symObjAddr: 0x9130, symBinAddr: 0x1000576B0, symSize: 0x20 }
  - { offsetInCU: 0x1BECF, offset: 0x1BECF, size: 0x8, addend: 0x0, symName: __ZNSt3__128__exception_guard_exceptionsINS_29_AllocatorDestroyRangeReverseINS_9allocatorINS_6vectorIP6NeuronNS2_IS5_EEEEEENS_16reverse_iteratorIPS7_EEEEE10__completeB7v160006Ev, symObjAddr: 0x9150, symBinAddr: 0x1000576D0, symSize: 0x20 }
  - { offsetInCU: 0x1BEF4, offset: 0x1BEF4, size: 0x8, addend: 0x0, symName: __ZNSt3__128__exception_guard_exceptionsINS_29_AllocatorDestroyRangeReverseINS_9allocatorINS_6vectorIP6NeuronNS2_IS5_EEEEEENS_16reverse_iteratorIPS7_EEEEED1B7v160006Ev, symObjAddr: 0x9170, symBinAddr: 0x1000576F0, symSize: 0x20 }
  - { offsetInCU: 0x1BF1D, offset: 0x1BF1D, size: 0x8, addend: 0x0, symName: __ZNSt3__128__exception_guard_exceptionsINS_29_AllocatorDestroyRangeReverseINS_9allocatorINS_6vectorIP6NeuronNS2_IS5_EEEEEENS_16reverse_iteratorIPS7_EEEEEC1B7v160006ESC_, symObjAddr: 0x9190, symBinAddr: 0x100057710, symSize: 0x40 }
  - { offsetInCU: 0x1BF54, offset: 0x1BF54, size: 0x8, addend: 0x0, symName: __ZNSt3__128__exception_guard_exceptionsINS_29_AllocatorDestroyRangeReverseINS_9allocatorINS_6vectorIP6NeuronNS2_IS5_EEEEEENS_16reverse_iteratorIPS7_EEEEEC2B7v160006ESC_, symObjAddr: 0x91D0, symBinAddr: 0x100057750, symSize: 0x30 }
  - { offsetInCU: 0x1BF8B, offset: 0x1BF8B, size: 0x8, addend: 0x0, symName: __ZNSt3__129_AllocatorDestroyRangeReverseINS_9allocatorINS_6vectorIP6NeuronNS1_IS4_EEEEEENS_16reverse_iteratorIPS6_EEEC2B7v160006ERS7_RSA_SD_, symObjAddr: 0x9200, symBinAddr: 0x100057780, symSize: 0x40 }
  - { offsetInCU: 0x1BFE1, offset: 0x1BFE1, size: 0x8, addend: 0x0, symName: __ZNSt3__19allocatorINS_6vectorIP6NeuronNS0_IS3_EEEEE9constructB7v160006IS5_JS5_EEEvPT_DpOT0_, symObjAddr: 0x9240, symBinAddr: 0x1000577C0, symSize: 0x30 }
  - { offsetInCU: 0x1C036, offset: 0x1C036, size: 0x8, addend: 0x0, symName: __ZNSt3__16vectorIP6NeuronNS_9allocatorIS2_EEEC1B7v160006EOS5_, symObjAddr: 0x9270, symBinAddr: 0x1000577F0, symSize: 0x30 }
  - { offsetInCU: 0x1C070, offset: 0x1C070, size: 0x8, addend: 0x0, symName: __ZNSt3__16vectorIP6NeuronNS_9allocatorIS2_EEEC2B7v160006EOS5_, symObjAddr: 0x92A0, symBinAddr: 0x100057820, symSize: 0xE0 }
  - { offsetInCU: 0x1C0AF, offset: 0x1C0AF, size: 0x8, addend: 0x0, symName: __ZNSt3__119__to_address_helperINS_16reverse_iteratorIPNS_6vectorIP6NeuronNS_9allocatorIS4_EEEEEEvE6__callB7v160006ERKS9_, symObjAddr: 0x9390, symBinAddr: 0x100057910, symSize: 0x40 }
  - { offsetInCU: 0x1C0D2, offset: 0x1C0D2, size: 0x8, addend: 0x0, symName: __ZNKSt3__116reverse_iteratorIPNS_6vectorIP6NeuronNS_9allocatorIS3_EEEEEptB7v160006Ev, symObjAddr: 0x93D0, symBinAddr: 0x100057950, symSize: 0x20 }
  - { offsetInCU: 0x1C0F7, offset: 0x1C0F7, size: 0x8, addend: 0x0, symName: __ZNSt3__128__exception_guard_exceptionsINS_29_AllocatorDestroyRangeReverseINS_9allocatorINS_6vectorIP6NeuronNS2_IS5_EEEEEENS_16reverse_iteratorIPS7_EEEEED2B7v160006Ev, symObjAddr: 0x93F0, symBinAddr: 0x100057970, symSize: 0x40 }
  - { offsetInCU: 0x1C120, offset: 0x1C120, size: 0x8, addend: 0x0, symName: __ZNKSt3__129_AllocatorDestroyRangeReverseINS_9allocatorINS_6vectorIP6NeuronNS1_IS4_EEEEEENS_16reverse_iteratorIPS6_EEEclB7v160006Ev, symObjAddr: 0x9430, symBinAddr: 0x1000579B0, symSize: 0xF0 }
  - { offsetInCU: 0x1C146, offset: 0x1C146, size: 0x8, addend: 0x0, symName: __ZNSt3__116reverse_iteratorINS0_IPNS_6vectorIP6NeuronNS_9allocatorIS3_EEEEEEEC1B7v160006ES8_, symObjAddr: 0x9590, symBinAddr: 0x100057B10, symSize: 0x30 }
  - { offsetInCU: 0x1C17D, offset: 0x1C17D, size: 0x8, addend: 0x0, symName: __ZNSt3__116allocator_traitsINS_9allocatorINS_6vectorIP6NeuronNS1_IS4_EEEEEEE7destroyB7v160006IS6_vEEvRS7_PT_, symObjAddr: 0x9610, symBinAddr: 0x100057B90, symSize: 0x30 }
  - { offsetInCU: 0x1C1BA, offset: 0x1C1BA, size: 0x8, addend: 0x0, symName: __ZNSt3__116reverse_iteratorINS0_IPNS_6vectorIP6NeuronNS_9allocatorIS3_EEEEEEEppB7v160006Ev, symObjAddr: 0x9660, symBinAddr: 0x100057BE0, symSize: 0x30 }
  - { offsetInCU: 0x1C1DF, offset: 0x1C1DF, size: 0x8, addend: 0x0, symName: __ZNKSt3__116reverse_iteratorINS0_IPNS_6vectorIP6NeuronNS_9allocatorIS3_EEEEEEE4baseB7v160006Ev, symObjAddr: 0x9690, symBinAddr: 0x100057C10, symSize: 0x20 }
  - { offsetInCU: 0x1C204, offset: 0x1C204, size: 0x8, addend: 0x0, symName: __ZNSt3__19allocatorINS_6vectorIP6NeuronNS0_IS3_EEEEE7destroyB7v160006EPS5_, symObjAddr: 0x96B0, symBinAddr: 0x100057C30, symSize: 0x20 }
  - { offsetInCU: 0x1C23C, offset: 0x1C23C, size: 0x8, addend: 0x0, symName: __ZNSt3__119__to_address_helperINS_16reverse_iteratorINS1_IPNS_6vectorIP6NeuronNS_9allocatorIS4_EEEEEEEEvE6__callB7v160006ERKSA_, symObjAddr: 0x96D0, symBinAddr: 0x100057C50, symSize: 0x40 }
  - { offsetInCU: 0x1C25F, offset: 0x1C25F, size: 0x8, addend: 0x0, symName: __ZNKSt3__116reverse_iteratorINS0_IPNS_6vectorIP6NeuronNS_9allocatorIS3_EEEEEEEptB7v160006Ev, symObjAddr: 0x9710, symBinAddr: 0x100057C90, symSize: 0x20 }
  - { offsetInCU: 0x1C284, offset: 0x1C284, size: 0x8, addend: 0x0, symName: __ZNKSt3__116reverse_iteratorINS0_IPNS_6vectorIP6NeuronNS_9allocatorIS3_EEEEEEEdeB7v160006Ev, symObjAddr: 0x9730, symBinAddr: 0x100057CB0, symSize: 0x40 }
  - { offsetInCU: 0x1C2B7, offset: 0x1C2B7, size: 0x8, addend: 0x0, symName: __ZNSt3__116reverse_iteratorIPNS_6vectorIP6NeuronNS_9allocatorIS3_EEEEEmmB7v160006Ev, symObjAddr: 0x9770, symBinAddr: 0x100057CF0, symSize: 0x20 }
  - { offsetInCU: 0x1C2DC, offset: 0x1C2DC, size: 0x8, addend: 0x0, symName: __ZNSt3__116reverse_iteratorINS0_IPNS_6vectorIP6NeuronNS_9allocatorIS3_EEEEEEEC2B7v160006ES8_, symObjAddr: 0x9790, symBinAddr: 0x100057D10, symSize: 0x40 }
  - { offsetInCU: 0x1C313, offset: 0x1C313, size: 0x8, addend: 0x0, symName: __ZNSt3__116reverse_iteratorIPNS_6vectorIP6NeuronNS_9allocatorIS3_EEEEEC2B7v160006ES7_, symObjAddr: 0x97D0, symBinAddr: 0x100057D50, symSize: 0x30 }
  - { offsetInCU: 0x1C34A, offset: 0x1C34A, size: 0x8, addend: 0x0, symName: __ZNSt3__114__split_bufferINS_6vectorIP6NeuronNS_9allocatorIS3_EEEERNS4_IS6_EEED2Ev, symObjAddr: 0x9800, symBinAddr: 0x100057D80, symSize: 0x70 }
  - { offsetInCU: 0x1C375, offset: 0x1C375, size: 0x8, addend: 0x0, symName: __ZNSt3__114__split_bufferINS_6vectorIP6NeuronNS_9allocatorIS3_EEEERNS4_IS6_EEE5clearB7v160006Ev, symObjAddr: 0x9870, symBinAddr: 0x100057DF0, symSize: 0x20 }
  - { offsetInCU: 0x1C39A, offset: 0x1C39A, size: 0x8, addend: 0x0, symName: __ZNSt3__116allocator_traitsINS_9allocatorINS_6vectorIP6NeuronNS1_IS4_EEEEEEE10deallocateB7v160006ERS7_PS6_m, symObjAddr: 0x9890, symBinAddr: 0x100057E10, symSize: 0x30 }
  - { offsetInCU: 0x1C3DC, offset: 0x1C3DC, size: 0x8, addend: 0x0, symName: __ZNKSt3__114__split_bufferINS_6vectorIP6NeuronNS_9allocatorIS3_EEEERNS4_IS6_EEE8capacityB7v160006Ev, symObjAddr: 0x98C0, symBinAddr: 0x100057E40, symSize: 0x40 }
  - { offsetInCU: 0x1C401, offset: 0x1C401, size: 0x8, addend: 0x0, symName: __ZNSt3__114__split_bufferINS_6vectorIP6NeuronNS_9allocatorIS3_EEEERNS4_IS6_EEE17__destruct_at_endB7v160006EPS6_, symObjAddr: 0x9900, symBinAddr: 0x100057E80, symSize: 0x30 }
  - { offsetInCU: 0x1C434, offset: 0x1C434, size: 0x8, addend: 0x0, symName: __ZNSt3__114__split_bufferINS_6vectorIP6NeuronNS_9allocatorIS3_EEEERNS4_IS6_EEE17__destruct_at_endB7v160006EPS6_NS_17integral_constantIbLb0EEE, symObjAddr: 0x9930, symBinAddr: 0x100057EB0, symSize: 0x80 }
  - { offsetInCU: 0x1C474, offset: 0x1C474, size: 0x8, addend: 0x0, symName: __ZNSt3__19allocatorINS_6vectorIP6NeuronNS0_IS3_EEEEE10deallocateB7v160006EPS5_m, symObjAddr: 0x99B0, symBinAddr: 0x100057F30, symSize: 0x50 }
  - { offsetInCU: 0x1C4B5, offset: 0x1C4B5, size: 0x8, addend: 0x0, symName: __ZNKSt3__114__split_bufferINS_6vectorIP6NeuronNS_9allocatorIS3_EEEERNS4_IS6_EEE9__end_capB7v160006Ev, symObjAddr: 0x9A00, symBinAddr: 0x100057F80, symSize: 0x20 }
  - { offsetInCU: 0x1C4DA, offset: 0x1C4DA, size: 0x8, addend: 0x0, symName: __ZNKSt3__117__compressed_pairIPNS_6vectorIP6NeuronNS_9allocatorIS3_EEEERNS4_IS6_EEE5firstB7v160006Ev, symObjAddr: 0x9A20, symBinAddr: 0x100057FA0, symSize: 0x20 }
  - { offsetInCU: 0x1C4FF, offset: 0x1C4FF, size: 0x8, addend: 0x0, symName: __ZN6Weight5setInEP6Neuron, symObjAddr: 0x9A40, symBinAddr: 0x100057FC0, symSize: 0x20 }
  - { offsetInCU: 0x1C532, offset: 0x1C532, size: 0x8, addend: 0x0, symName: __ZN6Weight6setOutEP6Neuron, symObjAddr: 0x9A60, symBinAddr: 0x100057FE0, symSize: 0x20 }
  - { offsetInCU: 0x1C565, offset: 0x1C565, size: 0x8, addend: 0x0, symName: __ZNSt3__16vectorIP6WeightNS_9allocatorIS2_EEE9__end_capB7v160006Ev, symObjAddr: 0x9A80, symBinAddr: 0x100058000, symSize: 0x20 }
  - { offsetInCU: 0x1C58A, offset: 0x1C58A, size: 0x8, addend: 0x0, symName: __ZNSt3__16vectorIP6WeightNS_9allocatorIS2_EEE22__construct_one_at_endB7v160006IJRKS2_EEEvDpOT_, symObjAddr: 0x9AA0, symBinAddr: 0x100058020, symSize: 0x90 }
  - { offsetInCU: 0x1C5D8, offset: 0x1C5D8, size: 0x8, addend: 0x0, symName: __ZNSt3__16vectorIP6WeightNS_9allocatorIS2_EEE21__push_back_slow_pathIRKS2_EEvOT_, symObjAddr: 0x9B30, symBinAddr: 0x1000580B0, symSize: 0xD0 }
  - { offsetInCU: 0x1C635, offset: 0x1C635, size: 0x8, addend: 0x0, symName: __ZNSt3__117__compressed_pairIPP6WeightNS_9allocatorIS2_EEE5firstB7v160006Ev, symObjAddr: 0x9C00, symBinAddr: 0x100058180, symSize: 0x20 }
  - { offsetInCU: 0x1C65A, offset: 0x1C65A, size: 0x8, addend: 0x0, symName: __ZNSt3__122__compressed_pair_elemIPP6WeightLi0ELb0EE5__getB7v160006Ev, symObjAddr: 0x9C20, symBinAddr: 0x1000581A0, symSize: 0x10 }
  - { offsetInCU: 0x1C698, offset: 0x1C698, size: 0x8, addend: 0x0, symName: __ZNSt3__16vectorIP6WeightNS_9allocatorIS2_EEE21_ConstructTransactionC1B7v160006ERS5_m, symObjAddr: 0x9C30, symBinAddr: 0x1000581B0, symSize: 0x30 }
  - { offsetInCU: 0x1C6DF, offset: 0x1C6DF, size: 0x8, addend: 0x0, symName: __ZNSt3__116allocator_traitsINS_9allocatorIP6WeightEEE9constructB7v160006IS3_JRKS3_EvEEvRS4_PT_DpOT0_, symObjAddr: 0x9C60, symBinAddr: 0x1000581E0, symSize: 0x30 }
  - { offsetInCU: 0x1C736, offset: 0x1C736, size: 0x8, addend: 0x0, symName: __ZNSt3__16vectorIP6WeightNS_9allocatorIS2_EEE7__allocB7v160006Ev, symObjAddr: 0x9C90, symBinAddr: 0x100058210, symSize: 0x20 }
  - { offsetInCU: 0x1C75B, offset: 0x1C75B, size: 0x8, addend: 0x0, symName: __ZNSt3__16vectorIP6WeightNS_9allocatorIS2_EEE21_ConstructTransactionD1B7v160006Ev, symObjAddr: 0x9CC0, symBinAddr: 0x100058240, symSize: 0x20 }
  - { offsetInCU: 0x1C784, offset: 0x1C784, size: 0x8, addend: 0x0, symName: __ZNSt3__16vectorIP6WeightNS_9allocatorIS2_EEE21_ConstructTransactionC2B7v160006ERS5_m, symObjAddr: 0x9CE0, symBinAddr: 0x100058260, symSize: 0x40 }
  - { offsetInCU: 0x1C7CB, offset: 0x1C7CB, size: 0x8, addend: 0x0, symName: __ZNSt3__19allocatorIP6WeightE9constructB7v160006IS2_JRKS2_EEEvPT_DpOT0_, symObjAddr: 0x9D20, symBinAddr: 0x1000582A0, symSize: 0x20 }
  - { offsetInCU: 0x1C820, offset: 0x1C820, size: 0x8, addend: 0x0, symName: __ZNSt3__117__compressed_pairIPP6WeightNS_9allocatorIS2_EEE6secondB7v160006Ev, symObjAddr: 0x9D40, symBinAddr: 0x1000582C0, symSize: 0x20 }
  - { offsetInCU: 0x1C845, offset: 0x1C845, size: 0x8, addend: 0x0, symName: __ZNSt3__122__compressed_pair_elemINS_9allocatorIP6WeightEELi1ELb1EE5__getB7v160006Ev, symObjAddr: 0x9D60, symBinAddr: 0x1000582E0, symSize: 0x10 }
  - { offsetInCU: 0x1C86A, offset: 0x1C86A, size: 0x8, addend: 0x0, symName: __ZNSt3__16vectorIP6WeightNS_9allocatorIS2_EEE21_ConstructTransactionD2B7v160006Ev, symObjAddr: 0x9D70, symBinAddr: 0x1000582F0, symSize: 0x20 }
  - { offsetInCU: 0x1C893, offset: 0x1C893, size: 0x8, addend: 0x0, symName: __ZNKSt3__16vectorIP6WeightNS_9allocatorIS2_EEE11__recommendB7v160006Em, symObjAddr: 0x9D90, symBinAddr: 0x100058310, symSize: 0xA0 }
  - { offsetInCU: 0x1C8E7, offset: 0x1C8E7, size: 0x8, addend: 0x0, symName: __ZNSt3__114__split_bufferIP6WeightRNS_9allocatorIS2_EEEC1EmmS5_, symObjAddr: 0x9E30, symBinAddr: 0x1000583B0, symSize: 0x40 }
  - { offsetInCU: 0x1C93C, offset: 0x1C93C, size: 0x8, addend: 0x0, symName: __ZNSt3__114__split_bufferIP6WeightRNS_9allocatorIS2_EEED1Ev, symObjAddr: 0x9FA0, symBinAddr: 0x100058520, symSize: 0x20 }
  - { offsetInCU: 0x1C967, offset: 0x1C967, size: 0x8, addend: 0x0, symName: __ZNKSt3__16vectorIP6WeightNS_9allocatorIS2_EEE8max_sizeEv, symObjAddr: 0x9FC0, symBinAddr: 0x100058540, symSize: 0x60 }
  - { offsetInCU: 0x1C98E, offset: 0x1C98E, size: 0x8, addend: 0x0, symName: __ZNKSt3__16vectorIP6WeightNS_9allocatorIS2_EEE20__throw_length_errorB7v160006Ev, symObjAddr: 0xA020, symBinAddr: 0x1000585A0, symSize: 0x20 }
  - { offsetInCU: 0x1C9B3, offset: 0x1C9B3, size: 0x8, addend: 0x0, symName: __ZNKSt3__16vectorIP6WeightNS_9allocatorIS2_EEE8capacityB7v160006Ev, symObjAddr: 0xA040, symBinAddr: 0x1000585C0, symSize: 0x30 }
  - { offsetInCU: 0x1C9E2, offset: 0x1C9E2, size: 0x8, addend: 0x0, symName: __ZNSt3__116allocator_traitsINS_9allocatorIP6WeightEEE8max_sizeB7v160006IS4_vEEmRKS4_, symObjAddr: 0xA070, symBinAddr: 0x1000585F0, symSize: 0x20 }
  - { offsetInCU: 0x1CA10, offset: 0x1CA10, size: 0x8, addend: 0x0, symName: __ZNKSt3__16vectorIP6WeightNS_9allocatorIS2_EEE7__allocB7v160006Ev, symObjAddr: 0xA090, symBinAddr: 0x100058610, symSize: 0x20 }
  - { offsetInCU: 0x1CA35, offset: 0x1CA35, size: 0x8, addend: 0x0, symName: __ZNKSt3__19allocatorIP6WeightE8max_sizeB7v160006Ev, symObjAddr: 0xA0B0, symBinAddr: 0x100058630, symSize: 0x20 }
  - { offsetInCU: 0x1CA5A, offset: 0x1CA5A, size: 0x8, addend: 0x0, symName: __ZNKSt3__117__compressed_pairIPP6WeightNS_9allocatorIS2_EEE6secondB7v160006Ev, symObjAddr: 0xA0D0, symBinAddr: 0x100058650, symSize: 0x20 }
  - { offsetInCU: 0x1CA7F, offset: 0x1CA7F, size: 0x8, addend: 0x0, symName: __ZNKSt3__122__compressed_pair_elemINS_9allocatorIP6WeightEELi1ELb1EE5__getB7v160006Ev, symObjAddr: 0xA0F0, symBinAddr: 0x100058670, symSize: 0x10 }
  - { offsetInCU: 0x1CAA4, offset: 0x1CAA4, size: 0x8, addend: 0x0, symName: __ZNKSt3__16vectorIP6WeightNS_9allocatorIS2_EEE9__end_capB7v160006Ev, symObjAddr: 0xA100, symBinAddr: 0x100058680, symSize: 0x20 }
  - { offsetInCU: 0x1CAC9, offset: 0x1CAC9, size: 0x8, addend: 0x0, symName: __ZNKSt3__117__compressed_pairIPP6WeightNS_9allocatorIS2_EEE5firstB7v160006Ev, symObjAddr: 0xA120, symBinAddr: 0x1000586A0, symSize: 0x20 }
  - { offsetInCU: 0x1CAEE, offset: 0x1CAEE, size: 0x8, addend: 0x0, symName: __ZNKSt3__122__compressed_pair_elemIPP6WeightLi0ELb0EE5__getB7v160006Ev, symObjAddr: 0xA140, symBinAddr: 0x1000586C0, symSize: 0x10 }
  - { offsetInCU: 0x1CB13, offset: 0x1CB13, size: 0x8, addend: 0x0, symName: __ZNSt3__114__split_bufferIP6WeightRNS_9allocatorIS2_EEEC2EmmS5_, symObjAddr: 0xA150, symBinAddr: 0x1000586D0, symSize: 0xD0 }
  - { offsetInCU: 0x1CB85, offset: 0x1CB85, size: 0x8, addend: 0x0, symName: __ZNSt3__117__compressed_pairIPP6WeightRNS_9allocatorIS2_EEEC1B7v160006IDnS6_EEOT_OT0_, symObjAddr: 0xA220, symBinAddr: 0x1000587A0, symSize: 0x30 }
  - { offsetInCU: 0x1CBDC, offset: 0x1CBDC, size: 0x8, addend: 0x0, symName: __ZNSt3__114__split_bufferIP6WeightRNS_9allocatorIS2_EEE7__allocB7v160006Ev, symObjAddr: 0xA290, symBinAddr: 0x100058810, symSize: 0x20 }
  - { offsetInCU: 0x1CC01, offset: 0x1CC01, size: 0x8, addend: 0x0, symName: __ZNSt3__114__split_bufferIP6WeightRNS_9allocatorIS2_EEE9__end_capB7v160006Ev, symObjAddr: 0xA2B0, symBinAddr: 0x100058830, symSize: 0x20 }
  - { offsetInCU: 0x1CC26, offset: 0x1CC26, size: 0x8, addend: 0x0, symName: __ZNSt3__117__compressed_pairIPP6WeightRNS_9allocatorIS2_EEEC2B7v160006IDnS6_EEOT_OT0_, symObjAddr: 0xA2D0, symBinAddr: 0x100058850, symSize: 0x40 }
  - { offsetInCU: 0x1CC7D, offset: 0x1CC7D, size: 0x8, addend: 0x0, symName: __ZNSt3__122__compressed_pair_elemIRNS_9allocatorIP6WeightEELi1ELb0EEC2B7v160006IS5_vEEOT_, symObjAddr: 0xA310, symBinAddr: 0x100058890, symSize: 0x20 }
  - { offsetInCU: 0x1CCBE, offset: 0x1CCBE, size: 0x8, addend: 0x0, symName: __ZNSt3__19allocatorIP6WeightE8allocateB7v160006Em, symObjAddr: 0xA330, symBinAddr: 0x1000588B0, symSize: 0x50 }
  - { offsetInCU: 0x1CCF1, offset: 0x1CCF1, size: 0x8, addend: 0x0, symName: __ZNSt3__117__compressed_pairIPP6WeightRNS_9allocatorIS2_EEE6secondB7v160006Ev, symObjAddr: 0xA380, symBinAddr: 0x100058900, symSize: 0x20 }
  - { offsetInCU: 0x1CD16, offset: 0x1CD16, size: 0x8, addend: 0x0, symName: __ZNSt3__122__compressed_pair_elemIRNS_9allocatorIP6WeightEELi1ELb0EE5__getB7v160006Ev, symObjAddr: 0xA3A0, symBinAddr: 0x100058920, symSize: 0x20 }
  - { offsetInCU: 0x1CD3B, offset: 0x1CD3B, size: 0x8, addend: 0x0, symName: __ZNSt3__117__compressed_pairIPP6WeightRNS_9allocatorIS2_EEE5firstB7v160006Ev, symObjAddr: 0xA3C0, symBinAddr: 0x100058940, symSize: 0x20 }
  - { offsetInCU: 0x1CD60, offset: 0x1CD60, size: 0x8, addend: 0x0, symName: __ZNKSt3__16vectorIP6WeightNS_9allocatorIS2_EEE17__annotate_deleteB7v160006Ev, symObjAddr: 0xA3E0, symBinAddr: 0x100058960, symSize: 0xB0 }
  - { offsetInCU: 0x1CD85, offset: 0x1CD85, size: 0x8, addend: 0x0, symName: __ZNSt3__116reverse_iteratorIPP6WeightEC1B7v160006ES3_, symObjAddr: 0xA500, symBinAddr: 0x100058A80, symSize: 0x30 }
  - { offsetInCU: 0x1CDBC, offset: 0x1CDBC, size: 0x8, addend: 0x0, symName: __ZNKSt3__116reverse_iteratorIPP6WeightE4baseB7v160006Ev, symObjAddr: 0xA530, symBinAddr: 0x100058AB0, symSize: 0x20 }
  - { offsetInCU: 0x1CDE1, offset: 0x1CDE1, size: 0x8, addend: 0x0, symName: __ZNKSt3__16vectorIP6WeightNS_9allocatorIS2_EEE14__annotate_newB7v160006Em, symObjAddr: 0xA590, symBinAddr: 0x100058B10, symSize: 0xB0 }
  - { offsetInCU: 0x1CE15, offset: 0x1CE15, size: 0x8, addend: 0x0, symName: __ZNKSt3__16vectorIP6WeightNS_9allocatorIS2_EEE31__annotate_contiguous_containerB7v160006EPKvS7_S7_S7_, symObjAddr: 0xA650, symBinAddr: 0x100058BD0, symSize: 0x20 }
  - { offsetInCU: 0x1CE66, offset: 0x1CE66, size: 0x8, addend: 0x0, symName: __ZNKSt3__16vectorIP6WeightNS_9allocatorIS2_EEE4dataB7v160006Ev, symObjAddr: 0xA670, symBinAddr: 0x100058BF0, symSize: 0x20 }
  - { offsetInCU: 0x1CEA4, offset: 0x1CEA4, size: 0x8, addend: 0x0, symName: __ZNKSt3__111__move_loopINS_17_ClassicAlgPolicyEEclB7v160006INS_16reverse_iteratorIPP6WeightEES8_S8_EENS_4pairIT_T1_EESA_T0_SB_, symObjAddr: 0xAAD0, symBinAddr: 0x100059050, symSize: 0xA0 }
  - { offsetInCU: 0x1CF13, offset: 0x1CF13, size: 0x8, addend: 0x0, symName: __ZNSt3__18_IterOpsINS_17_ClassicAlgPolicyEE11__iter_moveB7v160006IRNS_16reverse_iteratorIPP6WeightEEEENS_9enable_ifIXsr12is_referenceIDTdeclsr3stdE7declvalIRT_EEEEE5valueEDTclsr3stdE4movedeclsr3stdE7declvalISC_EEEEE4typeEOSB_, symObjAddr: 0xACF0, symBinAddr: 0x100059270, symSize: 0x20 }
  - { offsetInCU: 0x1CF3F, offset: 0x1CF3F, size: 0x8, addend: 0x0, symName: __ZNKSt3__116reverse_iteratorIPP6WeightEdeB7v160006Ev, symObjAddr: 0xAD10, symBinAddr: 0x100059290, symSize: 0x30 }
  - { offsetInCU: 0x1CF72, offset: 0x1CF72, size: 0x8, addend: 0x0, symName: __ZNSt3__116reverse_iteratorIPP6WeightEppB7v160006Ev, symObjAddr: 0xAD40, symBinAddr: 0x1000592C0, symSize: 0x20 }
  - { offsetInCU: 0x1CF97, offset: 0x1CF97, size: 0x8, addend: 0x0, symName: __ZNSt3__18_IterOpsINS_17_ClassicAlgPolicyEE25__validate_iter_referenceB7v160006IRNS_16reverse_iteratorIPP6WeightEEEEvv, symObjAddr: 0xAD60, symBinAddr: 0x1000592E0, symSize: 0x10 }
  - { offsetInCU: 0x1CFB5, offset: 0x1CFB5, size: 0x8, addend: 0x0, symName: __ZNSt3__118__unwrap_iter_implINS_16reverse_iteratorIPP6WeightEELb0EE8__unwrapB7v160006ES5_, symObjAddr: 0xAD70, symBinAddr: 0x1000592F0, symSize: 0x20 }
  - { offsetInCU: 0x1CFDD, offset: 0x1CFDD, size: 0x8, addend: 0x0, symName: __ZNSt3__14pairINS_16reverse_iteratorIPP6WeightEES5_EC1B7v160006IS5_S5_LPv0EEEOT_OT0_, symObjAddr: 0xAD90, symBinAddr: 0x100059310, symSize: 0x30 }
  - { offsetInCU: 0x1D03A, offset: 0x1D03A, size: 0x8, addend: 0x0, symName: __ZNSt3__14pairINS_16reverse_iteratorIPP6WeightEES5_EC2B7v160006IS5_S5_LPv0EEEOT_OT0_, symObjAddr: 0xADC0, symBinAddr: 0x100059340, symSize: 0x40 }
  - { offsetInCU: 0x1D097, offset: 0x1D097, size: 0x8, addend: 0x0, symName: __ZNSt3__118__unwrap_iter_implINS_16reverse_iteratorIPP6WeightEELb0EE8__rewrapB7v160006ES5_S5_, symObjAddr: 0xAE00, symBinAddr: 0x100059380, symSize: 0x30 }
  - { offsetInCU: 0x1D0C5, offset: 0x1D0C5, size: 0x8, addend: 0x0, symName: __ZNSt3__116reverse_iteratorIPP6WeightEC2B7v160006ES3_, symObjAddr: 0xAE30, symBinAddr: 0x1000593B0, symSize: 0x30 }
  - { offsetInCU: 0x1D0FC, offset: 0x1D0FC, size: 0x8, addend: 0x0, symName: __ZNSt3__114__split_bufferIP6WeightRNS_9allocatorIS2_EEED2Ev, symObjAddr: 0xAE60, symBinAddr: 0x1000593E0, symSize: 0x70 }
  - { offsetInCU: 0x1D127, offset: 0x1D127, size: 0x8, addend: 0x0, symName: __ZNSt3__114__split_bufferIP6WeightRNS_9allocatorIS2_EEE5clearB7v160006Ev, symObjAddr: 0xAED0, symBinAddr: 0x100059450, symSize: 0x20 }
  - { offsetInCU: 0x1D14C, offset: 0x1D14C, size: 0x8, addend: 0x0, symName: __ZNSt3__116allocator_traitsINS_9allocatorIP6WeightEEE10deallocateB7v160006ERS4_PS3_m, symObjAddr: 0xAEF0, symBinAddr: 0x100059470, symSize: 0x30 }
  - { offsetInCU: 0x1D18E, offset: 0x1D18E, size: 0x8, addend: 0x0, symName: __ZNKSt3__114__split_bufferIP6WeightRNS_9allocatorIS2_EEE8capacityB7v160006Ev, symObjAddr: 0xAF20, symBinAddr: 0x1000594A0, symSize: 0x30 }
  - { offsetInCU: 0x1D1B3, offset: 0x1D1B3, size: 0x8, addend: 0x0, symName: __ZNSt3__114__split_bufferIP6WeightRNS_9allocatorIS2_EEE17__destruct_at_endB7v160006EPS2_, symObjAddr: 0xAF50, symBinAddr: 0x1000594D0, symSize: 0x30 }
  - { offsetInCU: 0x1D1E6, offset: 0x1D1E6, size: 0x8, addend: 0x0, symName: __ZNSt3__114__split_bufferIP6WeightRNS_9allocatorIS2_EEE17__destruct_at_endB7v160006EPS2_NS_17integral_constantIbLb0EEE, symObjAddr: 0xAF80, symBinAddr: 0x100059500, symSize: 0x80 }
  - { offsetInCU: 0x1D226, offset: 0x1D226, size: 0x8, addend: 0x0, symName: __ZNSt3__116allocator_traitsINS_9allocatorIP6WeightEEE7destroyB7v160006IS3_vEEvRS4_PT_, symObjAddr: 0xB000, symBinAddr: 0x100059580, symSize: 0x30 }
  - { offsetInCU: 0x1D263, offset: 0x1D263, size: 0x8, addend: 0x0, symName: __ZNSt3__19allocatorIP6WeightE7destroyB7v160006EPS2_, symObjAddr: 0xB030, symBinAddr: 0x1000595B0, symSize: 0x10 }
  - { offsetInCU: 0x1D296, offset: 0x1D296, size: 0x8, addend: 0x0, symName: __ZNSt3__19allocatorIP6WeightE10deallocateB7v160006EPS2_m, symObjAddr: 0xB040, symBinAddr: 0x1000595C0, symSize: 0x40 }
  - { offsetInCU: 0x1D2D7, offset: 0x1D2D7, size: 0x8, addend: 0x0, symName: __ZNKSt3__114__split_bufferIP6WeightRNS_9allocatorIS2_EEE9__end_capB7v160006Ev, symObjAddr: 0xB080, symBinAddr: 0x100059600, symSize: 0x20 }
  - { offsetInCU: 0x1D2FC, offset: 0x1D2FC, size: 0x8, addend: 0x0, symName: __ZNKSt3__117__compressed_pairIPP6WeightRNS_9allocatorIS2_EEE5firstB7v160006Ev, symObjAddr: 0xB0A0, symBinAddr: 0x100059620, symSize: 0x20 }
  - { offsetInCU: 0x1D321, offset: 0x1D321, size: 0x8, addend: 0x0, symName: __ZNSt3__16vectorINS0_IP6NeuronNS_9allocatorIS2_EEEENS3_IS5_EEED2B7v160006Ev, symObjAddr: 0xB0C0, symBinAddr: 0x100059640, symSize: 0x40 }
  - { offsetInCU: 0x1D34A, offset: 0x1D34A, size: 0x8, addend: 0x0, symName: __ZNSt3__16vectorINS0_IP6NeuronNS_9allocatorIS2_EEEENS3_IS5_EEE16__destroy_vectorC1ERS7_, symObjAddr: 0xB100, symBinAddr: 0x100059680, symSize: 0x30 }
  - { offsetInCU: 0x1D382, offset: 0x1D382, size: 0x8, addend: 0x0, symName: __ZNSt3__16vectorINS0_IP6NeuronNS_9allocatorIS2_EEEENS3_IS5_EEE16__destroy_vectorclB7v160006Ev, symObjAddr: 0xB130, symBinAddr: 0x1000596B0, symSize: 0x90 }
  - { offsetInCU: 0x1D3A7, offset: 0x1D3A7, size: 0x8, addend: 0x0, symName: __ZNSt3__16vectorINS0_IP6NeuronNS_9allocatorIS2_EEEENS3_IS5_EEE16__destroy_vectorC2ERS7_, symObjAddr: 0xB1C0, symBinAddr: 0x100059740, symSize: 0x20 }
  - { offsetInCU: 0x1D3DF, offset: 0x1D3DF, size: 0x8, addend: 0x0, symName: __ZNSt3__16vectorINS0_IP6NeuronNS_9allocatorIS2_EEEENS3_IS5_EEE7__clearB7v160006Ev, symObjAddr: 0xB1F0, symBinAddr: 0x100059770, symSize: 0x20 }
  - { offsetInCU: 0x1D404, offset: 0x1D404, size: 0x8, addend: 0x0, symName: __ZNSt3__16vectorINS0_IP6NeuronNS_9allocatorIS2_EEEENS3_IS5_EEE22__base_destruct_at_endB7v160006EPS5_, symObjAddr: 0xB210, symBinAddr: 0x100059790, symSize: 0x80 }
  - { offsetInCU: 0x1D447, offset: 0x1D447, size: 0x8, addend: 0x0, symName: __ZN13NeuralNetworkD2Ev, symObjAddr: 0xB290, symBinAddr: 0x100059810, symSize: 0x60 }
  - { offsetInCU: 0x1D470, offset: 0x1D470, size: 0x8, addend: 0x0, symName: __ZN6EntityC2Eb, symObjAddr: 0xB2F0, symBinAddr: 0x100059870, symSize: 0x450 }
  - { offsetInCU: 0x1D513, offset: 0x1D513, size: 0x8, addend: 0x0, symName: __ZNSt3__15tupleIJP6EntityfEEC1B7v160006INS_37__is_implicitly_default_constructibleELi0EEEv, symObjAddr: 0xB740, symBinAddr: 0x100059CC0, symSize: 0x20 }
  - { offsetInCU: 0x1D54B, offset: 0x1D54B, size: 0x8, addend: 0x0, symName: __ZNSt3__15tupleIJP6EntityfEEC2B7v160006INS_37__is_implicitly_default_constructibleELi0EEEv, symObjAddr: 0xB790, symBinAddr: 0x100059D10, symSize: 0x20 }
  - { offsetInCU: 0x1D583, offset: 0x1D583, size: 0x8, addend: 0x0, symName: __ZNSt3__112__tuple_implINS_15__tuple_indicesIJLm0ELm1EEEEJP6EntityfEEC1B7v160006Ev, symObjAddr: 0xB7B0, symBinAddr: 0x100059D30, symSize: 0x20 }
  - { offsetInCU: 0x1D5AC, offset: 0x1D5AC, size: 0x8, addend: 0x0, symName: __ZNSt3__112__tuple_implINS_15__tuple_indicesIJLm0ELm1EEEEJP6EntityfEEC2B7v160006Ev, symObjAddr: 0xB7D0, symBinAddr: 0x100059D50, symSize: 0x30 }
  - { offsetInCU: 0x1D5D5, offset: 0x1D5D5, size: 0x8, addend: 0x0, symName: __ZNSt3__112__tuple_leafILm0EP6EntityLb0EEC2B7v160006Ev, symObjAddr: 0xB800, symBinAddr: 0x100059D80, symSize: 0x20 }
  - { offsetInCU: 0x1D5FE, offset: 0x1D5FE, size: 0x8, addend: 0x0, symName: __ZNSt3__112__tuple_leafILm1EfLb0EEC2B7v160006Ev, symObjAddr: 0xB820, symBinAddr: 0x100059DA0, symSize: 0x20 }
  - { offsetInCU: 0x1D6B8, offset: 0x1D6B8, size: 0x8, addend: 0x0, symName: __ZNSt3__15tupleIJDniEEC1B7v160006IJDniELi0EEEDpOT_, symObjAddr: 0xB840, symBinAddr: 0x100059DC0, symSize: 0x30 }
  - { offsetInCU: 0x1D715, offset: 0x1D715, size: 0x8, addend: 0x0, symName: __ZNSt3__15tupleIJDniEEC2B7v160006IJDniELi0EEEDpOT_, symObjAddr: 0xB870, symBinAddr: 0x100059DF0, symSize: 0x30 }
  - { offsetInCU: 0x1D772, offset: 0x1D772, size: 0x8, addend: 0x0, symName: __ZNSt3__112__tuple_implINS_15__tuple_indicesIJLm0ELm1EEEEJDniEEC1B7v160006IJLm0ELm1EEJDniEJEJEJDniEEENS1_IJXspT_EEEENS_13__tuple_typesIJDpT0_EEENS1_IJXspT1_EEEENS6_IJDpT2_EEEDpOT3_, symObjAddr: 0xB8A0, symBinAddr: 0x100059E20, symSize: 0x30 }
  - { offsetInCU: 0x1D821, offset: 0x1D821, size: 0x8, addend: 0x0, symName: __ZNSt3__112__tuple_implINS_15__tuple_indicesIJLm0ELm1EEEEJDniEEC2B7v160006IJLm0ELm1EEJDniEJEJEJDniEEENS1_IJXspT_EEEENS_13__tuple_typesIJDpT0_EEENS1_IJXspT1_EEEENS6_IJDpT2_EEEDpOT3_, symObjAddr: 0xB8D0, symBinAddr: 0x100059E50, symSize: 0x40 }
  - { offsetInCU: 0x1D8D0, offset: 0x1D8D0, size: 0x8, addend: 0x0, symName: __ZNSt3__112__tuple_leafILm0EDnLb0EEC2B7v160006IDnvEEOT_, symObjAddr: 0xB910, symBinAddr: 0x100059E90, symSize: 0x20 }
  - { offsetInCU: 0x1D912, offset: 0x1D912, size: 0x8, addend: 0x0, symName: __ZNSt3__112__tuple_leafILm1EiLb0EEC2B7v160006IivEEOT_, symObjAddr: 0xB930, symBinAddr: 0x100059EB0, symSize: 0x20 }
  - { offsetInCU: 0x1D954, offset: 0x1D954, size: 0x8, addend: 0x0, symName: __ZN6EntityD2Ev, symObjAddr: 0xB950, symBinAddr: 0x100059ED0, symSize: 0x30 }
  - { offsetInCU: 0x1D97D, offset: 0x1D97D, size: 0x8, addend: 0x0, symName: __ZN13NeuralNetwork7CopyNetEv, symObjAddr: 0xB980, symBinAddr: 0x100059F00, symSize: 0x220 }
  - { offsetInCU: 0x1D9FF, offset: 0x1D9FF, size: 0x8, addend: 0x0, symName: __ZN6Weight9setWeightEf, symObjAddr: 0xBBA0, symBinAddr: 0x10005A120, symSize: 0x20 }
  - { offsetInCU: 0x1DA32, offset: 0x1DA32, size: 0x8, addend: 0x0, symName: __ZN6Neuron7SetBiasEf, symObjAddr: 0xBBC0, symBinAddr: 0x10005A140, symSize: 0x20 }
  - { offsetInCU: 0x1DA65, offset: 0x1DA65, size: 0x8, addend: 0x0, symName: __ZN6Neuron8getValueEv, symObjAddr: 0xBBE0, symBinAddr: 0x10005A160, symSize: 0x20 }
  - { offsetInCU: 0x1DA8A, offset: 0x1DA8A, size: 0x8, addend: 0x0, symName: __ZN6EntityC1EPS_7Vector2, symObjAddr: 0xBC00, symBinAddr: 0x10005A180, symSize: 0x30 }
  - { offsetInCU: 0x1DACF, offset: 0x1DACF, size: 0x8, addend: 0x0, symName: __ZN6Entity9SetRadiusEi, symObjAddr: 0xBC30, symBinAddr: 0x10005A1B0, symSize: 0x20 }
  - { offsetInCU: 0x1DB03, offset: 0x1DB03, size: 0x8, addend: 0x0, symName: __ZN6Entity18SetSpeedMultiplyerEf, symObjAddr: 0xBC50, symBinAddr: 0x10005A1D0, symSize: 0x20 }
  - { offsetInCU: 0x1DB37, offset: 0x1DB37, size: 0x8, addend: 0x0, symName: __ZN6Entity9SetHealthEi, symObjAddr: 0xBCA0, symBinAddr: 0x10005A220, symSize: 0x20 }
  - { offsetInCU: 0x1DB6B, offset: 0x1DB6B, size: 0x8, addend: 0x0, symName: __ZN6Entity9SetDamageEf, symObjAddr: 0xBCC0, symBinAddr: 0x10005A240, symSize: 0x20 }
  - { offsetInCU: 0x1DB9F, offset: 0x1DB9F, size: 0x8, addend: 0x0, symName: __ZN6EntityC2EPS_7Vector2, symObjAddr: 0xBCE0, symBinAddr: 0x10005A260, symSize: 0x230 }
  - { offsetInCU: 0x1DC00, offset: 0x1DC00, size: 0x8, addend: 0x0, symName: __ZN6Entity9GetIsPreyEv, symObjAddr: 0xBF10, symBinAddr: 0x10005A490, symSize: 0x20 }
  - { offsetInCU: 0x1DC25, offset: 0x1DC25, size: 0x8, addend: 0x0, symName: __ZN6Entity9SetParentEPS_, symObjAddr: 0xBF30, symBinAddr: 0x10005A4B0, symSize: 0x20 }
  - { offsetInCU: 0x1DC59, offset: 0x1DC59, size: 0x8, addend: 0x0, symName: __ZN6Entity14GetNetToPassOnEv, symObjAddr: 0xBF50, symBinAddr: 0x10005A4D0, symSize: 0x20 }
  - { offsetInCU: 0x1DC7E, offset: 0x1DC7E, size: 0x8, addend: 0x0, symName: __ZN6Entity15GetLineageCountEv, symObjAddr: 0xBF70, symBinAddr: 0x10005A4F0, symSize: 0x20 }
  - { offsetInCU: 0x1DCA3, offset: 0x1DCA3, size: 0x8, addend: 0x0, symName: __ZNSt3__16vectorIP6WeightNS_9allocatorIS2_EEEC1ERKS5_, symObjAddr: 0xBF90, symBinAddr: 0x10005A510, symSize: 0x30 }
  - { offsetInCU: 0x1DCDD, offset: 0x1DCDD, size: 0x8, addend: 0x0, symName: __ZNSt3__16vectorIP6WeightNS_9allocatorIS2_EEEC2ERKS5_, symObjAddr: 0xBFC0, symBinAddr: 0x10005A540, symSize: 0x110 }
  - { offsetInCU: 0x1DD3C, offset: 0x1DD3C, size: 0x8, addend: 0x0, symName: __ZNSt3__116allocator_traitsINS_9allocatorIP6WeightEEE37select_on_container_copy_constructionB7v160006IS4_vvEES4_RKS4_, symObjAddr: 0xC0D0, symBinAddr: 0x10005A650, symSize: 0x10 }
  - { offsetInCU: 0x1DD70, offset: 0x1DD70, size: 0x8, addend: 0x0, symName: __ZNSt3__117__compressed_pairIPP6WeightNS_9allocatorIS2_EEEC1B7v160006IDnS5_EEOT_OT0_, symObjAddr: 0xC0E0, symBinAddr: 0x10005A660, symSize: 0x30 }
  - { offsetInCU: 0x1DDC7, offset: 0x1DDC7, size: 0x8, addend: 0x0, symName: __ZNSt3__16vectorIP6WeightNS_9allocatorIS2_EEE16__destroy_vectorC1ERS5_, symObjAddr: 0xC150, symBinAddr: 0x10005A6D0, symSize: 0x30 }
  - { offsetInCU: 0x1DDFF, offset: 0x1DDFF, size: 0x8, addend: 0x0, symName: __ZNSt3__16vectorIP6WeightNS_9allocatorIS2_EEE11__vallocateB7v160006Em, symObjAddr: 0xC180, symBinAddr: 0x10005A700, symSize: 0xA0 }
  - { offsetInCU: 0x1DE42, offset: 0x1DE42, size: 0x8, addend: 0x0, symName: __ZNSt3__16vectorIP6WeightNS_9allocatorIS2_EEE18__construct_at_endIPS2_Li0EEEvT_S8_m, symObjAddr: 0xC220, symBinAddr: 0x10005A7A0, symSize: 0x90 }
  - { offsetInCU: 0x1DEB4, offset: 0x1DEB4, size: 0x8, addend: 0x0, symName: __ZNSt3__128__exception_guard_exceptionsINS_6vectorIP6WeightNS_9allocatorIS3_EEE16__destroy_vectorEE10__completeB7v160006Ev, symObjAddr: 0xC2B0, symBinAddr: 0x10005A830, symSize: 0x20 }
  - { offsetInCU: 0x1DED9, offset: 0x1DED9, size: 0x8, addend: 0x0, symName: __ZNSt3__128__exception_guard_exceptionsINS_6vectorIP6WeightNS_9allocatorIS3_EEE16__destroy_vectorEED1B7v160006Ev, symObjAddr: 0xC2D0, symBinAddr: 0x10005A850, symSize: 0x20 }
  - { offsetInCU: 0x1DF02, offset: 0x1DF02, size: 0x8, addend: 0x0, symName: __ZNSt3__117__compressed_pairIPP6WeightNS_9allocatorIS2_EEEC2B7v160006IDnS5_EEOT_OT0_, symObjAddr: 0xC2F0, symBinAddr: 0x10005A870, symSize: 0x40 }
  - { offsetInCU: 0x1DF59, offset: 0x1DF59, size: 0x8, addend: 0x0, symName: __ZNSt3__122__compressed_pair_elemINS_9allocatorIP6WeightEELi1ELb1EEC2B7v160006IS4_vEEOT_, symObjAddr: 0xC330, symBinAddr: 0x10005A8B0, symSize: 0x10 }
  - { offsetInCU: 0x1DF9A, offset: 0x1DF9A, size: 0x8, addend: 0x0, symName: __ZNSt3__128__exception_guard_exceptionsINS_6vectorIP6WeightNS_9allocatorIS3_EEE16__destroy_vectorEEC1B7v160006ES7_, symObjAddr: 0xC340, symBinAddr: 0x10005A8C0, symSize: 0x30 }
  - { offsetInCU: 0x1DFD1, offset: 0x1DFD1, size: 0x8, addend: 0x0, symName: __ZNSt3__128__exception_guard_exceptionsINS_6vectorIP6WeightNS_9allocatorIS3_EEE16__destroy_vectorEEC2B7v160006ES7_, symObjAddr: 0xC370, symBinAddr: 0x10005A8F0, symSize: 0x20 }
  - { offsetInCU: 0x1E008, offset: 0x1E008, size: 0x8, addend: 0x0, symName: __ZNSt3__16vectorIP6WeightNS_9allocatorIS2_EEE16__destroy_vectorC2ERS5_, symObjAddr: 0xC390, symBinAddr: 0x10005A910, symSize: 0x20 }
  - { offsetInCU: 0x1E040, offset: 0x1E040, size: 0x8, addend: 0x0, symName: __ZNSt3__129_AllocatorDestroyRangeReverseINS_9allocatorIP6WeightEEPS3_EC1B7v160006ERS4_RS5_S8_, symObjAddr: 0xC510, symBinAddr: 0x10005AA90, symSize: 0x40 }
  - { offsetInCU: 0x1E096, offset: 0x1E096, size: 0x8, addend: 0x0, symName: __ZNSt3__116allocator_traitsINS_9allocatorIP6WeightEEE9constructB7v160006IS3_JRS3_EvEEvRS4_PT_DpOT0_, symObjAddr: 0xC550, symBinAddr: 0x10005AAD0, symSize: 0x30 }
  - { offsetInCU: 0x1E0ED, offset: 0x1E0ED, size: 0x8, addend: 0x0, symName: __ZNSt3__128__exception_guard_exceptionsINS_29_AllocatorDestroyRangeReverseINS_9allocatorIP6WeightEEPS4_EEE10__completeB7v160006Ev, symObjAddr: 0xC580, symBinAddr: 0x10005AB00, symSize: 0x20 }
  - { offsetInCU: 0x1E112, offset: 0x1E112, size: 0x8, addend: 0x0, symName: __ZNSt3__128__exception_guard_exceptionsINS_29_AllocatorDestroyRangeReverseINS_9allocatorIP6WeightEEPS4_EEED1B7v160006Ev, symObjAddr: 0xC5A0, symBinAddr: 0x10005AB20, symSize: 0x20 }
  - { offsetInCU: 0x1E13B, offset: 0x1E13B, size: 0x8, addend: 0x0, symName: __ZNSt3__128__exception_guard_exceptionsINS_29_AllocatorDestroyRangeReverseINS_9allocatorIP6WeightEEPS4_EEEC1B7v160006ES7_, symObjAddr: 0xC5C0, symBinAddr: 0x10005AB40, symSize: 0x40 }
  - { offsetInCU: 0x1E172, offset: 0x1E172, size: 0x8, addend: 0x0, symName: __ZNSt3__128__exception_guard_exceptionsINS_29_AllocatorDestroyRangeReverseINS_9allocatorIP6WeightEEPS4_EEEC2B7v160006ES7_, symObjAddr: 0xC600, symBinAddr: 0x10005AB80, symSize: 0x30 }
  - { offsetInCU: 0x1E1A9, offset: 0x1E1A9, size: 0x8, addend: 0x0, symName: __ZNSt3__129_AllocatorDestroyRangeReverseINS_9allocatorIP6WeightEEPS3_EC2B7v160006ERS4_RS5_S8_, symObjAddr: 0xC630, symBinAddr: 0x10005ABB0, symSize: 0x40 }
  - { offsetInCU: 0x1E1FF, offset: 0x1E1FF, size: 0x8, addend: 0x0, symName: __ZNSt3__19allocatorIP6WeightE9constructB7v160006IS2_JRS2_EEEvPT_DpOT0_, symObjAddr: 0xC670, symBinAddr: 0x10005ABF0, symSize: 0x20 }
  - { offsetInCU: 0x1E254, offset: 0x1E254, size: 0x8, addend: 0x0, symName: __ZNSt3__128__exception_guard_exceptionsINS_29_AllocatorDestroyRangeReverseINS_9allocatorIP6WeightEEPS4_EEED2B7v160006Ev, symObjAddr: 0xC690, symBinAddr: 0x10005AC10, symSize: 0x40 }
  - { offsetInCU: 0x1E27D, offset: 0x1E27D, size: 0x8, addend: 0x0, symName: __ZNKSt3__129_AllocatorDestroyRangeReverseINS_9allocatorIP6WeightEEPS3_EclB7v160006Ev, symObjAddr: 0xC6D0, symBinAddr: 0x10005AC50, symSize: 0x60 }
  - { offsetInCU: 0x1E2A7, offset: 0x1E2A7, size: 0x8, addend: 0x0, symName: __ZNSt3__119__to_address_helperINS_16reverse_iteratorIPP6WeightEEvE6__callB7v160006ERKS5_, symObjAddr: 0xC7C0, symBinAddr: 0x10005AD40, symSize: 0x40 }
  - { offsetInCU: 0x1E2CA, offset: 0x1E2CA, size: 0x8, addend: 0x0, symName: __ZNKSt3__116reverse_iteratorIPP6WeightEptB7v160006Ev, symObjAddr: 0xC800, symBinAddr: 0x10005AD80, symSize: 0x20 }
  - { offsetInCU: 0x1E2EF, offset: 0x1E2EF, size: 0x8, addend: 0x0, symName: __ZNSt3__128__exception_guard_exceptionsINS_6vectorIP6WeightNS_9allocatorIS3_EEE16__destroy_vectorEED2B7v160006Ev, symObjAddr: 0xC820, symBinAddr: 0x10005ADA0, symSize: 0x40 }
  - { offsetInCU: 0x1E318, offset: 0x1E318, size: 0x8, addend: 0x0, symName: __ZNSt3__16vectorIP6WeightNS_9allocatorIS2_EEE16__destroy_vectorclB7v160006Ev, symObjAddr: 0xC860, symBinAddr: 0x10005ADE0, symSize: 0x90 }
  - { offsetInCU: 0x1E33D, offset: 0x1E33D, size: 0x8, addend: 0x0, symName: __ZNSt3__16vectorIP6WeightNS_9allocatorIS2_EEE7__clearB7v160006Ev, symObjAddr: 0xC900, symBinAddr: 0x10005AE80, symSize: 0x20 }
  - { offsetInCU: 0x1E362, offset: 0x1E362, size: 0x8, addend: 0x0, symName: __ZNSt3__16vectorIP6WeightNS_9allocatorIS2_EEE22__base_destruct_at_endB7v160006EPS2_, symObjAddr: 0xC920, symBinAddr: 0x10005AEA0, symSize: 0x80 }
  - { offsetInCU: 0x1E3A5, offset: 0x1E3A5, size: 0x8, addend: 0x0, symName: __ZN6Neuron8setValueEf, symObjAddr: 0xC9A0, symBinAddr: 0x10005AF20, symSize: 0x20 }
  - { offsetInCU: 0x1E3D8, offset: 0x1E3D8, size: 0x8, addend: 0x0, symName: __ZNSt3__16vectorIfNS_9allocatorIfEEEixB7v160006Em, symObjAddr: 0xC9C0, symBinAddr: 0x10005AF40, symSize: 0x20 }
  - { offsetInCU: 0x1E40E, offset: 0x1E40E, size: 0x8, addend: 0x0, symName: __ZN6Neuron12computeValueEv, symObjAddr: 0xC9E0, symBinAddr: 0x10005AF60, symSize: 0x100 }
  - { offsetInCU: 0x1E45D, offset: 0x1E45D, size: 0x8, addend: 0x0, symName: __ZN6Weight15getConnectionInEv, symObjAddr: 0xCAE0, symBinAddr: 0x10005B060, symSize: 0x20 }
  - { offsetInCU: 0x1E481, offset: 0x1E481, size: 0x8, addend: 0x0, symName: __Z3expB7v160006f, symObjAddr: 0xCB00, symBinAddr: 0x10005B080, symSize: 0x20 }
  - { offsetInCU: 0x1E4B0, offset: 0x1E4B0, size: 0x8, addend: 0x0, symName: __ZNSt3__16vectorIP6EntityNS_9allocatorIS2_EEE5clearB7v160006Ev, symObjAddr: 0xCB20, symBinAddr: 0x10005B0A0, symSize: 0x50 }
  - { offsetInCU: 0x1E4E4, offset: 0x1E4E4, size: 0x8, addend: 0x0, symName: __ZN6Entity25CalculateBoundingTriangleEP7Vector2, symObjAddr: 0xCB70, symBinAddr: 0x10005B0F0, symSize: 0x190 }
  - { offsetInCU: 0x1E533, offset: 0x1E533, size: 0x8, addend: 0x0, symName: __ZN6Entity9GetRadiusEv, symObjAddr: 0xCD00, symBinAddr: 0x10005B280, symSize: 0x20 }
  - { offsetInCU: 0x1E558, offset: 0x1E558, size: 0x8, addend: 0x0, symName: __ZN6Entity21IsPointInsideTriangleE7Vector2S0_S0_S0_, symObjAddr: 0xCD20, symBinAddr: 0x10005B2A0, symSize: 0x130 }
  - { offsetInCU: 0x1E5ED, offset: 0x1E5ED, size: 0x8, addend: 0x0, symName: __ZN6Entity34CheckCircleAndLineSegmentCollisionE7Vector2fS0_S0_, symObjAddr: 0xCE50, symBinAddr: 0x10005B3D0, symSize: 0x200 }
  - { offsetInCU: 0x1E720, offset: 0x1E720, size: 0x8, addend: 0x0, symName: __ZNSt3__15tupleIJP6EntityfEEaSB7v160006IJDnfELi0EEERS3_ONS0_IJDpT_EEE, symObjAddr: 0xD080, symBinAddr: 0x10005B600, symSize: 0x40 }
  - { offsetInCU: 0x1E769, offset: 0x1E769, size: 0x8, addend: 0x0, symName: __Z3cosB7v160006f, symObjAddr: 0xD0C0, symBinAddr: 0x10005B640, symSize: 0x20 }
  - { offsetInCU: 0x1E797, offset: 0x1E797, size: 0x8, addend: 0x0, symName: __Z3sinB7v160006f, symObjAddr: 0xD0E0, symBinAddr: 0x10005B660, symSize: 0x20 }
  - { offsetInCU: 0x1E7C6, offset: 0x1E7C6, size: 0x8, addend: 0x0, symName: __ZN6Entity20CheckCollisionEntityEPS_7Vector2, symObjAddr: 0xD100, symBinAddr: 0x10005B680, symSize: 0xB0 }
  - { offsetInCU: 0x1E815, offset: 0x1E815, size: 0x8, addend: 0x0, symName: __ZNSt3__15tupleIJP6EntityfEEaSB7v160006EOS3_, symObjAddr: 0xD1E0, symBinAddr: 0x10005B760, symSize: 0x40 }
  - { offsetInCU: 0x1E849, offset: 0x1E849, size: 0x8, addend: 0x0, symName: __ZNSt3__16vectorIP6EntityNS_9allocatorIS2_EEE7__clearB7v160006Ev, symObjAddr: 0xD220, symBinAddr: 0x10005B7A0, symSize: 0x20 }
  - { offsetInCU: 0x1E86E, offset: 0x1E86E, size: 0x8, addend: 0x0, symName: __ZNKSt3__16vectorIP6EntityNS_9allocatorIS2_EEE17__annotate_shrinkB7v160006Em, symObjAddr: 0xD240, symBinAddr: 0x10005B7C0, symSize: 0xA0 }
  - { offsetInCU: 0x1E8A2, offset: 0x1E8A2, size: 0x8, addend: 0x0, symName: __ZNSt3__16vectorIP6EntityNS_9allocatorIS2_EEE22__base_destruct_at_endB7v160006EPS2_, symObjAddr: 0xD2F0, symBinAddr: 0x10005B870, symSize: 0x80 }
  - { offsetInCU: 0x1E8E5, offset: 0x1E8E5, size: 0x8, addend: 0x0, symName: __ZNSt3__116allocator_traitsINS_9allocatorIP6EntityEEE7destroyB7v160006IS3_vEEvRS4_PT_, symObjAddr: 0xD370, symBinAddr: 0x10005B8F0, symSize: 0x30 }
  - { offsetInCU: 0x1E922, offset: 0x1E922, size: 0x8, addend: 0x0, symName: __ZNSt3__16vectorIP6EntityNS_9allocatorIS2_EEE7__allocB7v160006Ev, symObjAddr: 0xD3A0, symBinAddr: 0x10005B920, symSize: 0x20 }
  - { offsetInCU: 0x1E947, offset: 0x1E947, size: 0x8, addend: 0x0, symName: __ZNSt3__19allocatorIP6EntityE7destroyB7v160006EPS2_, symObjAddr: 0xD3D0, symBinAddr: 0x10005B950, symSize: 0x10 }
  - { offsetInCU: 0x1E97A, offset: 0x1E97A, size: 0x8, addend: 0x0, symName: __ZNSt3__117__compressed_pairIPP6EntityNS_9allocatorIS2_EEE6secondB7v160006Ev, symObjAddr: 0xD3E0, symBinAddr: 0x10005B960, symSize: 0x20 }
  - { offsetInCU: 0x1E99F, offset: 0x1E99F, size: 0x8, addend: 0x0, symName: __ZNSt3__122__compressed_pair_elemINS_9allocatorIP6EntityEELi1ELb1EE5__getB7v160006Ev, symObjAddr: 0xD400, symBinAddr: 0x10005B980, symSize: 0x10 }
  - { offsetInCU: 0x1E9C4, offset: 0x1E9C4, size: 0x8, addend: 0x0, symName: __ZNKSt3__16vectorIP6EntityNS_9allocatorIS2_EEE31__annotate_contiguous_containerB7v160006EPKvS7_S7_S7_, symObjAddr: 0xD410, symBinAddr: 0x10005B990, symSize: 0x20 }
  - { offsetInCU: 0x1EA15, offset: 0x1EA15, size: 0x8, addend: 0x0, symName: __ZNKSt3__16vectorIP6EntityNS_9allocatorIS2_EEE4dataB7v160006Ev, symObjAddr: 0xD430, symBinAddr: 0x10005B9B0, symSize: 0x20 }
  - { offsetInCU: 0x1EA3A, offset: 0x1EA3A, size: 0x8, addend: 0x0, symName: __ZNKSt3__16vectorIP6EntityNS_9allocatorIS2_EEE8capacityB7v160006Ev, symObjAddr: 0xD450, symBinAddr: 0x10005B9D0, symSize: 0x30 }
  - { offsetInCU: 0x1EA5F, offset: 0x1EA5F, size: 0x8, addend: 0x0, symName: __ZNKSt3__16vectorIP6EntityNS_9allocatorIS2_EEE9__end_capB7v160006Ev, symObjAddr: 0xD480, symBinAddr: 0x10005BA00, symSize: 0x20 }
  - { offsetInCU: 0x1EA84, offset: 0x1EA84, size: 0x8, addend: 0x0, symName: __ZNKSt3__117__compressed_pairIPP6EntityNS_9allocatorIS2_EEE5firstB7v160006Ev, symObjAddr: 0xD4A0, symBinAddr: 0x10005BA20, symSize: 0x20 }
  - { offsetInCU: 0x1EAA9, offset: 0x1EAA9, size: 0x8, addend: 0x0, symName: __ZNKSt3__122__compressed_pair_elemIPP6EntityLi0ELb0EE5__getB7v160006Ev, symObjAddr: 0xD4C0, symBinAddr: 0x10005BA40, symSize: 0x10 }
  - { offsetInCU: 0x1EAD3, offset: 0x1EAD3, size: 0x8, addend: 0x0, symName: __ZNSt3__15tupleIJDnfEEC1B7v160006IJDnfELi0EEEDpOT_, symObjAddr: 0xD4D0, symBinAddr: 0x10005BA50, symSize: 0x30 }
  - { offsetInCU: 0x1EB30, offset: 0x1EB30, size: 0x8, addend: 0x0, symName: __ZNSt3__15tupleIJDnfEEC2B7v160006IJDnfELi0EEEDpOT_, symObjAddr: 0xD500, symBinAddr: 0x10005BA80, symSize: 0x30 }
  - { offsetInCU: 0x1EB8D, offset: 0x1EB8D, size: 0x8, addend: 0x0, symName: __ZNSt3__112__tuple_implINS_15__tuple_indicesIJLm0ELm1EEEEJDnfEEC1B7v160006IJLm0ELm1EEJDnfEJEJEJDnfEEENS1_IJXspT_EEEENS_13__tuple_typesIJDpT0_EEENS1_IJXspT1_EEEENS6_IJDpT2_EEEDpOT3_, symObjAddr: 0xD530, symBinAddr: 0x10005BAB0, symSize: 0x30 }
  - { offsetInCU: 0x1EC3C, offset: 0x1EC3C, size: 0x8, addend: 0x0, symName: __ZNSt3__112__tuple_implINS_15__tuple_indicesIJLm0ELm1EEEEJDnfEEC2B7v160006IJLm0ELm1EEJDnfEJEJEJDnfEEENS1_IJXspT_EEEENS_13__tuple_typesIJDpT0_EEENS1_IJXspT1_EEEENS6_IJDpT2_EEEDpOT3_, symObjAddr: 0xD560, symBinAddr: 0x10005BAE0, symSize: 0x40 }
  - { offsetInCU: 0x1ECEB, offset: 0x1ECEB, size: 0x8, addend: 0x0, symName: __ZNSt3__112__tuple_leafILm1EfLb0EEC2B7v160006IfvEEOT_, symObjAddr: 0xD5A0, symBinAddr: 0x10005BB20, symSize: 0x20 }
  - { offsetInCU: 0x1ED2D, offset: 0x1ED2D, size: 0x8, addend: 0x0, symName: __ZNSt3__112__tuple_leafILm0EDnLb0EE3getB7v160006Ev, symObjAddr: 0xD6C0, symBinAddr: 0x10005BC40, symSize: 0x10 }
  - { offsetInCU: 0x1ED52, offset: 0x1ED52, size: 0x8, addend: 0x0, symName: __ZNSt3__112__tuple_leafILm0EP6EntityLb0EE3getB7v160006Ev, symObjAddr: 0xD6D0, symBinAddr: 0x10005BC50, symSize: 0x10 }
  - { offsetInCU: 0x1ED77, offset: 0x1ED77, size: 0x8, addend: 0x0, symName: __ZNSt3__112__tuple_leafILm1EfLb0EE3getB7v160006Ev, symObjAddr: 0xD6E0, symBinAddr: 0x10005BC60, symSize: 0x10 }
  - { offsetInCU: 0x1ED9C, offset: 0x1ED9C, size: 0x8, addend: 0x0, symName: __ZNSt3__15tupleIJP6EntityfEEC1B7v160006IJRS2_fELi0EEEDpOT_, symObjAddr: 0xD6F0, symBinAddr: 0x10005BC70, symSize: 0x30 }
  - { offsetInCU: 0x1EDF9, offset: 0x1EDF9, size: 0x8, addend: 0x0, symName: __ZNSt3__15tupleIJP6EntityfEEC2B7v160006IJRS2_fELi0EEEDpOT_, symObjAddr: 0xD720, symBinAddr: 0x10005BCA0, symSize: 0x30 }
  - { offsetInCU: 0x1EE56, offset: 0x1EE56, size: 0x8, addend: 0x0, symName: __ZNSt3__112__tuple_implINS_15__tuple_indicesIJLm0ELm1EEEEJP6EntityfEEC1B7v160006IJLm0ELm1EEJS4_fEJEJEJRS4_fEEENS1_IJXspT_EEEENS_13__tuple_typesIJDpT0_EEENS1_IJXspT1_EEEENS9_IJDpT2_EEEDpOT3_, symObjAddr: 0xD750, symBinAddr: 0x10005BCD0, symSize: 0x30 }
  - { offsetInCU: 0x1EF05, offset: 0x1EF05, size: 0x8, addend: 0x0, symName: __ZNSt3__112__tuple_implINS_15__tuple_indicesIJLm0ELm1EEEEJP6EntityfEEC2B7v160006IJLm0ELm1EEJS4_fEJEJEJRS4_fEEENS1_IJXspT_EEEENS_13__tuple_typesIJDpT0_EEENS1_IJXspT1_EEEENS9_IJDpT2_EEEDpOT3_, symObjAddr: 0xD780, symBinAddr: 0x10005BD00, symSize: 0x40 }
  - { offsetInCU: 0x1EFB4, offset: 0x1EFB4, size: 0x8, addend: 0x0, symName: __ZNSt3__112__tuple_leafILm0EP6EntityLb0EEC2B7v160006IRS2_vEEOT_, symObjAddr: 0xD7C0, symBinAddr: 0x10005BD40, symSize: 0x20 }
  - { offsetInCU: 0x1EFF6, offset: 0x1EFF6, size: 0x8, addend: 0x0, symName: __ZN6EntityC2ERKS_, symObjAddr: 0xD860, symBinAddr: 0x10005BDE0, symSize: 0xF0 }
  - { offsetInCU: 0x1F02A, offset: 0x1F02A, size: 0x8, addend: 0x0, symName: __ZN6EntityC2E7Vector2b, symObjAddr: 0xD950, symBinAddr: 0x10005BED0, symSize: 0x3D0 }
  - { offsetInCU: 0x1F0CD, offset: 0x1F0CD, size: 0x8, addend: 0x0, symName: __ZN4WallC2Ebiiiii, symObjAddr: 0xDD20, symBinAddr: 0x10005C2A0, symSize: 0x3B0 }
  - { offsetInCU: 0x1F1F3, offset: 0x1F1F3, size: 0x8, addend: 0x0, symName: __Z5atan2B7v160006ff, symObjAddr: 0xE0D0, symBinAddr: 0x10005C650, symSize: 0x30 }
  - { offsetInCU: 0x1F231, offset: 0x1F231, size: 0x8, addend: 0x0, symName: __ZN4WallC2Ebiiiii7Vector2, symObjAddr: 0xE100, symBinAddr: 0x10005C680, symSize: 0x340 }
  - { offsetInCU: 0x1F366, offset: 0x1F366, size: 0x8, addend: 0x0, symName: __ZNSt3__16vectorIP6WeightNS_9allocatorIS2_EEED2B7v160006Ev, symObjAddr: 0xE440, symBinAddr: 0x10005C9C0, symSize: 0x40 }
  - { offsetInCU: 0x1F38F, offset: 0x1F38F, size: 0x8, addend: 0x0, symName: __ZNSt3__16vectorIP6NeuronNS_9allocatorIS2_EEED2B7v160006Ev, symObjAddr: 0xE480, symBinAddr: 0x10005CA00, symSize: 0x40 }
  - { offsetInCU: 0x1F3D6, offset: 0x1F3D6, size: 0x8, addend: 0x0, symName: __ZNKSt3__113basic_ostreamIcNS_11char_traitsIcEEE6sentrycvbB7v160006Ev, symObjAddr: 0xE6B0, symBinAddr: 0x10005CC30, symSize: 0x20 }
  - { offsetInCU: 0x1F3FB, offset: 0x1F3FB, size: 0x8, addend: 0x0, symName: __ZNSt3__119ostreambuf_iteratorIcNS_11char_traitsIcEEEC1B7v160006ERNS_13basic_ostreamIcS2_EE, symObjAddr: 0xE8F0, symBinAddr: 0x10005CE70, symSize: 0x30 }
  - { offsetInCU: 0x1F432, offset: 0x1F432, size: 0x8, addend: 0x0, symName: __ZNKSt3__18ios_base5flagsB7v160006Ev, symObjAddr: 0xE920, symBinAddr: 0x10005CEA0, symSize: 0x20 }
  - { offsetInCU: 0x1F459, offset: 0x1F459, size: 0x8, addend: 0x0, symName: __ZNKSt3__19basic_iosIcNS_11char_traitsIcEEE4fillB7v160006Ev, symObjAddr: 0xE940, symBinAddr: 0x10005CEC0, symSize: 0x70 }
  - { offsetInCU: 0x1F480, offset: 0x1F480, size: 0x8, addend: 0x0, symName: __ZNKSt3__119ostreambuf_iteratorIcNS_11char_traitsIcEEE6failedB7v160006Ev, symObjAddr: 0xE9B0, symBinAddr: 0x10005CF30, symSize: 0x20 }
  - { offsetInCU: 0x1F4A5, offset: 0x1F4A5, size: 0x8, addend: 0x0, symName: __ZNSt3__19basic_iosIcNS_11char_traitsIcEEE8setstateB7v160006Ej, symObjAddr: 0xE9D0, symBinAddr: 0x10005CF50, symSize: 0x30 }
  - { offsetInCU: 0x1F4D9, offset: 0x1F4D9, size: 0x8, addend: 0x0, symName: __ZNKSt3__18ios_base5widthB7v160006Ev, symObjAddr: 0xEA00, symBinAddr: 0x10005CF80, symSize: 0x20 }
  - { offsetInCU: 0x1F500, offset: 0x1F500, size: 0x8, addend: 0x0, symName: __ZNSt3__115basic_streambufIcNS_11char_traitsIcEEE5sputnB7v160006EPKcl, symObjAddr: 0xEA20, symBinAddr: 0x10005CFA0, symSize: 0x30 }
  - { offsetInCU: 0x1F541, offset: 0x1F541, size: 0x8, addend: 0x0, symName: __ZNSt3__112basic_stringIcNS_11char_traitsIcEENS_9allocatorIcEEEC1B7v160006Emc, symObjAddr: 0xEA50, symBinAddr: 0x10005CFD0, symSize: 0x30 }
  - { offsetInCU: 0x1F588, offset: 0x1F588, size: 0x8, addend: 0x0, symName: __ZNKSt3__112basic_stringIcNS_11char_traitsIcEENS_9allocatorIcEEE4dataB7v160006Ev, symObjAddr: 0xEA80, symBinAddr: 0x10005D000, symSize: 0x30 }
  - { offsetInCU: 0x1F5AD, offset: 0x1F5AD, size: 0x8, addend: 0x0, symName: __ZNSt3__18ios_base5widthB7v160006El, symObjAddr: 0xEAB0, symBinAddr: 0x10005D030, symSize: 0x30 }
  - { offsetInCU: 0x1F5F2, offset: 0x1F5F2, size: 0x8, addend: 0x0, symName: __ZNSt3__112basic_stringIcNS_11char_traitsIcEENS_9allocatorIcEEEC2B7v160006Emc, symObjAddr: 0xEAE0, symBinAddr: 0x10005D060, symSize: 0x50 }
  - { offsetInCU: 0x1F639, offset: 0x1F639, size: 0x8, addend: 0x0, symName: __ZNKSt3__112basic_stringIcNS_11char_traitsIcEENS_9allocatorIcEEE13__get_pointerB7v160006Ev, symObjAddr: 0xEB40, symBinAddr: 0x10005D0C0, symSize: 0x50 }
  - { offsetInCU: 0x1F65E, offset: 0x1F65E, size: 0x8, addend: 0x0, symName: __ZNKSt3__112basic_stringIcNS_11char_traitsIcEENS_9allocatorIcEEE9__is_longB7v160006Ev, symObjAddr: 0xEB90, symBinAddr: 0x10005D110, symSize: 0x30 }
  - { offsetInCU: 0x1F683, offset: 0x1F683, size: 0x8, addend: 0x0, symName: __ZNKSt3__112basic_stringIcNS_11char_traitsIcEENS_9allocatorIcEEE18__get_long_pointerB7v160006Ev, symObjAddr: 0xEBC0, symBinAddr: 0x10005D140, symSize: 0x20 }
  - { offsetInCU: 0x1F6A8, offset: 0x1F6A8, size: 0x8, addend: 0x0, symName: __ZNKSt3__112basic_stringIcNS_11char_traitsIcEENS_9allocatorIcEEE19__get_short_pointerB7v160006Ev, symObjAddr: 0xEBE0, symBinAddr: 0x10005D160, symSize: 0x30 }
  - { offsetInCU: 0x1F6CD, offset: 0x1F6CD, size: 0x8, addend: 0x0, symName: __ZNKSt3__117__compressed_pairINS_12basic_stringIcNS_11char_traitsIcEENS_9allocatorIcEEE5__repES5_E5firstB7v160006Ev, symObjAddr: 0xEC10, symBinAddr: 0x10005D190, symSize: 0x20 }
  - { offsetInCU: 0x1F6F2, offset: 0x1F6F2, size: 0x8, addend: 0x0, symName: __ZNKSt3__122__compressed_pair_elemINS_12basic_stringIcNS_11char_traitsIcEENS_9allocatorIcEEE5__repELi0ELb0EE5__getB7v160006Ev, symObjAddr: 0xEC30, symBinAddr: 0x10005D1B0, symSize: 0x10 }
  - { offsetInCU: 0x1F717, offset: 0x1F717, size: 0x8, addend: 0x0, symName: __ZNSt3__114pointer_traitsIPKcE10pointer_toB7v160006ERS1_, symObjAddr: 0xEC40, symBinAddr: 0x10005D1C0, symSize: 0x10 }
  - { offsetInCU: 0x1F73A, offset: 0x1F73A, size: 0x8, addend: 0x0, symName: __ZNSt3__119ostreambuf_iteratorIcNS_11char_traitsIcEEEC2B7v160006ERNS_13basic_ostreamIcS2_EE, symObjAddr: 0xEC50, symBinAddr: 0x10005D1D0, symSize: 0x50 }
  - { offsetInCU: 0x1F771, offset: 0x1F771, size: 0x8, addend: 0x0, symName: __ZNKSt3__19basic_iosIcNS_11char_traitsIcEEE5rdbufB7v160006Ev, symObjAddr: 0xECA0, symBinAddr: 0x10005D220, symSize: 0x20 }
  - { offsetInCU: 0x1F798, offset: 0x1F798, size: 0x8, addend: 0x0, symName: __ZNKSt3__18ios_base5rdbufB7v160006Ev, symObjAddr: 0xECC0, symBinAddr: 0x10005D240, symSize: 0x20 }
  - { offsetInCU: 0x1F7BD, offset: 0x1F7BD, size: 0x8, addend: 0x0, symName: __ZNSt3__111char_traitsIcE11eq_int_typeEii, symObjAddr: 0xECE0, symBinAddr: 0x10005D260, symSize: 0x20 }
  - { offsetInCU: 0x1F7EE, offset: 0x1F7EE, size: 0x8, addend: 0x0, symName: __ZNSt3__111char_traitsIcE3eofEv, symObjAddr: 0xED00, symBinAddr: 0x10005D280, symSize: 0x10 }
  - { offsetInCU: 0x1F802, offset: 0x1F802, size: 0x8, addend: 0x0, symName: __ZNKSt3__19basic_iosIcNS_11char_traitsIcEEE5widenB7v160006Ec, symObjAddr: 0xED10, symBinAddr: 0x10005D290, symSize: 0x80 }
  - { offsetInCU: 0x1F86A, offset: 0x1F86A, size: 0x8, addend: 0x0, symName: __ZNKSt3__15ctypeIcE5widenB7v160006Ec, symObjAddr: 0xEDC0, symBinAddr: 0x10005D340, symSize: 0x30 }
  - { offsetInCU: 0x1F89E, offset: 0x1F89E, size: 0x8, addend: 0x0, symName: __ZNSt3__18ios_base8setstateB7v160006Ej, symObjAddr: 0xEDF0, symBinAddr: 0x10005D370, symSize: 0x30 }
  - { offsetInCU: 0x1F8D4, offset: 0x1F8D4, size: 0x8, addend: 0x0, symName: __ZNSt3__16vectorIP6EntityNS_9allocatorIS2_EEEC2B7v160006Ev, symObjAddr: 0xEE20, symBinAddr: 0x10005D3A0, symSize: 0x60 }
  - { offsetInCU: 0x1F8FD, offset: 0x1F8FD, size: 0x8, addend: 0x0, symName: __ZNSt3__117__compressed_pairIPP6EntityNS_9allocatorIS2_EEEC1B7v160006IDnNS_18__default_init_tagEEEOT_OT0_, symObjAddr: 0xEE80, symBinAddr: 0x10005D400, symSize: 0x30 }
  - { offsetInCU: 0x1F954, offset: 0x1F954, size: 0x8, addend: 0x0, symName: __ZNSt3__117__compressed_pairIPP6EntityNS_9allocatorIS2_EEEC2B7v160006IDnNS_18__default_init_tagEEEOT_OT0_, symObjAddr: 0xEEC0, symBinAddr: 0x10005D440, symSize: 0x40 }
  - { offsetInCU: 0x1F9AB, offset: 0x1F9AB, size: 0x8, addend: 0x0, symName: __ZNSt3__122__compressed_pair_elemIPP6EntityLi0ELb0EEC2B7v160006IDnvEEOT_, symObjAddr: 0xEF00, symBinAddr: 0x10005D480, symSize: 0x20 }
  - { offsetInCU: 0x1F9EC, offset: 0x1F9EC, size: 0x8, addend: 0x0, symName: __ZNSt3__122__compressed_pair_elemINS_9allocatorIP6EntityEELi1ELb1EEC2B7v160006ENS_18__default_init_tagE, symObjAddr: 0xEF20, symBinAddr: 0x10005D4A0, symSize: 0x20 }
  - { offsetInCU: 0x1FA20, offset: 0x1FA20, size: 0x8, addend: 0x0, symName: __ZNSt3__19allocatorIP6EntityEC2B7v160006Ev, symObjAddr: 0xEF40, symBinAddr: 0x10005D4C0, symSize: 0x20 }
  - { offsetInCU: 0x1FA49, offset: 0x1FA49, size: 0x8, addend: 0x0, symName: __ZNSt3__116__non_trivial_ifILb1ENS_9allocatorIP6EntityEEEC2B7v160006Ev, symObjAddr: 0xEF60, symBinAddr: 0x10005D4E0, symSize: 0x10 }
  - { offsetInCU: 0x1FA72, offset: 0x1FA72, size: 0x8, addend: 0x0, symName: __ZNSt3__16vectorIP6EntityNS_9allocatorIS2_EEED2B7v160006Ev, symObjAddr: 0xEF70, symBinAddr: 0x10005D4F0, symSize: 0x40 }
  - { offsetInCU: 0x1FA9B, offset: 0x1FA9B, size: 0x8, addend: 0x0, symName: __ZNSt3__16vectorIP6EntityNS_9allocatorIS2_EEE16__destroy_vectorC1ERS5_, symObjAddr: 0xEFB0, symBinAddr: 0x10005D530, symSize: 0x30 }
  - { offsetInCU: 0x1FAD3, offset: 0x1FAD3, size: 0x8, addend: 0x0, symName: __ZNSt3__16vectorIP6EntityNS_9allocatorIS2_EEE16__destroy_vectorclB7v160006Ev, symObjAddr: 0xEFE0, symBinAddr: 0x10005D560, symSize: 0x90 }
  - { offsetInCU: 0x1FAF8, offset: 0x1FAF8, size: 0x8, addend: 0x0, symName: __ZNSt3__16vectorIP6EntityNS_9allocatorIS2_EEE16__destroy_vectorC2ERS5_, symObjAddr: 0xF070, symBinAddr: 0x10005D5F0, symSize: 0x20 }
  - { offsetInCU: 0x1FB30, offset: 0x1FB30, size: 0x8, addend: 0x0, symName: __ZNKSt3__16vectorIP6EntityNS_9allocatorIS2_EEE17__annotate_deleteB7v160006Ev, symObjAddr: 0xF090, symBinAddr: 0x10005D610, symSize: 0xB0 }
  - { offsetInCU: 0x1FB55, offset: 0x1FB55, size: 0x8, addend: 0x0, symName: __ZNSt3__116allocator_traitsINS_9allocatorIP6EntityEEE10deallocateB7v160006ERS4_PS3_m, symObjAddr: 0xF150, symBinAddr: 0x10005D6D0, symSize: 0x30 }
  - { offsetInCU: 0x1FB97, offset: 0x1FB97, size: 0x8, addend: 0x0, symName: __ZNSt3__19allocatorIP6EntityE10deallocateB7v160006EPS2_m, symObjAddr: 0xF180, symBinAddr: 0x10005D700, symSize: 0x40 }
  - { offsetInCU: 0x1FBD8, offset: 0x1FBD8, size: 0x8, addend: 0x0, symName: __ZNSt3__16vectorIfNS_9allocatorIfEEED2B7v160006Ev, symObjAddr: 0xF1C0, symBinAddr: 0x10005D740, symSize: 0x40 }
  - { offsetInCU: 0x1FC01, offset: 0x1FC01, size: 0x8, addend: 0x0, symName: __ZNSt3__16vectorIfNS_9allocatorIfEEE16__destroy_vectorC1ERS3_, symObjAddr: 0xF200, symBinAddr: 0x10005D780, symSize: 0x30 }
  - { offsetInCU: 0x1FC39, offset: 0x1FC39, size: 0x8, addend: 0x0, symName: __ZNSt3__16vectorIfNS_9allocatorIfEEE16__destroy_vectorclB7v160006Ev, symObjAddr: 0xF230, symBinAddr: 0x10005D7B0, symSize: 0x90 }
  - { offsetInCU: 0x1FC5E, offset: 0x1FC5E, size: 0x8, addend: 0x0, symName: __ZNSt3__16vectorIfNS_9allocatorIfEEE16__destroy_vectorC2ERS3_, symObjAddr: 0xF2C0, symBinAddr: 0x10005D840, symSize: 0x20 }
  - { offsetInCU: 0x1FC96, offset: 0x1FC96, size: 0x8, addend: 0x0, symName: __ZNKSt3__16vectorIfNS_9allocatorIfEEE17__annotate_deleteB7v160006Ev, symObjAddr: 0xF2E0, symBinAddr: 0x10005D860, symSize: 0xB0 }
  - { offsetInCU: 0x1FCBB, offset: 0x1FCBB, size: 0x8, addend: 0x0, symName: __ZNSt3__16vectorIfNS_9allocatorIfEEE7__clearB7v160006Ev, symObjAddr: 0xF3A0, symBinAddr: 0x10005D920, symSize: 0x20 }
  - { offsetInCU: 0x1FCE0, offset: 0x1FCE0, size: 0x8, addend: 0x0, symName: __ZNSt3__116allocator_traitsINS_9allocatorIfEEE10deallocateB7v160006ERS2_Pfm, symObjAddr: 0xF3C0, symBinAddr: 0x10005D940, symSize: 0x30 }
  - { offsetInCU: 0x1FD22, offset: 0x1FD22, size: 0x8, addend: 0x0, symName: __ZNSt3__16vectorIfNS_9allocatorIfEEE7__allocB7v160006Ev, symObjAddr: 0xF3F0, symBinAddr: 0x10005D970, symSize: 0x20 }
  - { offsetInCU: 0x1FD47, offset: 0x1FD47, size: 0x8, addend: 0x0, symName: __ZNKSt3__16vectorIfNS_9allocatorIfEEE8capacityB7v160006Ev, symObjAddr: 0xF410, symBinAddr: 0x10005D990, symSize: 0x30 }
  - { offsetInCU: 0x1FD6C, offset: 0x1FD6C, size: 0x8, addend: 0x0, symName: __ZNKSt3__16vectorIfNS_9allocatorIfEEE31__annotate_contiguous_containerB7v160006EPKvS5_S5_S5_, symObjAddr: 0xF440, symBinAddr: 0x10005D9C0, symSize: 0x20 }
  - { offsetInCU: 0x1FDBD, offset: 0x1FDBD, size: 0x8, addend: 0x0, symName: __ZNKSt3__16vectorIfNS_9allocatorIfEEE4dataB7v160006Ev, symObjAddr: 0xF460, symBinAddr: 0x10005D9E0, symSize: 0x20 }
  - { offsetInCU: 0x1FDE2, offset: 0x1FDE2, size: 0x8, addend: 0x0, symName: __ZNKSt3__16vectorIfNS_9allocatorIfEEE4sizeB7v160006Ev, symObjAddr: 0xF480, symBinAddr: 0x10005DA00, symSize: 0x20 }
  - { offsetInCU: 0x1FE07, offset: 0x1FE07, size: 0x8, addend: 0x0, symName: __ZNSt3__16vectorIfNS_9allocatorIfEEE22__base_destruct_at_endB7v160006EPf, symObjAddr: 0xF4B0, symBinAddr: 0x10005DA30, symSize: 0x80 }
  - { offsetInCU: 0x1FE4A, offset: 0x1FE4A, size: 0x8, addend: 0x0, symName: __ZNSt3__116allocator_traitsINS_9allocatorIfEEE7destroyB7v160006IfvEEvRS2_PT_, symObjAddr: 0xF530, symBinAddr: 0x10005DAB0, symSize: 0x30 }
  - { offsetInCU: 0x1FE87, offset: 0x1FE87, size: 0x8, addend: 0x0, symName: __ZNSt3__19allocatorIfE7destroyB7v160006EPf, symObjAddr: 0xF560, symBinAddr: 0x10005DAE0, symSize: 0x10 }
  - { offsetInCU: 0x1FEBA, offset: 0x1FEBA, size: 0x8, addend: 0x0, symName: __ZNSt3__19allocatorIfE10deallocateB7v160006EPfm, symObjAddr: 0xF570, symBinAddr: 0x10005DAF0, symSize: 0x40 }
  - { offsetInCU: 0x1FEFB, offset: 0x1FEFB, size: 0x8, addend: 0x0, symName: __ZNSt3__117__compressed_pairIPfNS_9allocatorIfEEE6secondB7v160006Ev, symObjAddr: 0xF5B0, symBinAddr: 0x10005DB30, symSize: 0x20 }
  - { offsetInCU: 0x1FF20, offset: 0x1FF20, size: 0x8, addend: 0x0, symName: __ZNSt3__122__compressed_pair_elemINS_9allocatorIfEELi1ELb1EE5__getB7v160006Ev, symObjAddr: 0xF5D0, symBinAddr: 0x10005DB50, symSize: 0x10 }
  - { offsetInCU: 0x1FF45, offset: 0x1FF45, size: 0x8, addend: 0x0, symName: __ZNKSt3__16vectorIfNS_9allocatorIfEEE9__end_capB7v160006Ev, symObjAddr: 0xF5E0, symBinAddr: 0x10005DB60, symSize: 0x20 }
  - { offsetInCU: 0x1FF6A, offset: 0x1FF6A, size: 0x8, addend: 0x0, symName: __ZNKSt3__117__compressed_pairIPfNS_9allocatorIfEEE5firstB7v160006Ev, symObjAddr: 0xF600, symBinAddr: 0x10005DB80, symSize: 0x20 }
  - { offsetInCU: 0x1FF8F, offset: 0x1FF8F, size: 0x8, addend: 0x0, symName: __ZNKSt3__122__compressed_pair_elemIPfLi0ELb0EE5__getB7v160006Ev, symObjAddr: 0xF620, symBinAddr: 0x10005DBA0, symSize: 0x10 }
  - { offsetInCU: 0x1FFB4, offset: 0x1FFB4, size: 0x8, addend: 0x0, symName: __ZNSt3__16vectorIP6EntityNS_9allocatorIS2_EEE11__make_iterB7v160006EPS2_, symObjAddr: 0xF630, symBinAddr: 0x10005DBB0, symSize: 0x30 }
  - { offsetInCU: 0x1FFE8, offset: 0x1FFE8, size: 0x8, addend: 0x0, symName: __ZNSt3__111__wrap_iterIPP6EntityEC1B7v160006EPKvS3_, symObjAddr: 0xF660, symBinAddr: 0x10005DBE0, symSize: 0x30 }
  - { offsetInCU: 0x2002D, offset: 0x2002D, size: 0x8, addend: 0x0, symName: __ZNSt3__111__wrap_iterIPP6EntityEC2B7v160006EPKvS3_, symObjAddr: 0xF690, symBinAddr: 0x10005DC10, symSize: 0x20 }
  - { offsetInCU: 0x20072, offset: 0x20072, size: 0x8, addend: 0x0, symName: __ZNSt3__111__wrap_iterIPP6EntityEppB7v160006Ev, symObjAddr: 0xF760, symBinAddr: 0x10005DCE0, symSize: 0x20 }
  - { offsetInCU: 0x20097, offset: 0x20097, size: 0x8, addend: 0x0, symName: __ZNKSt3__111__wrap_iterIPP6EntityEdeB7v160006Ev, symObjAddr: 0xF780, symBinAddr: 0x10005DD00, symSize: 0x20 }
  - { offsetInCU: 0x200BC, offset: 0x200BC, size: 0x8, addend: 0x0, symName: __ZNKSt3__111__wrap_iterIPP6EntityE4baseB7v160006Ev, symObjAddr: 0xF7E0, symBinAddr: 0x10005DD60, symSize: 0x20 }
  - { offsetInCU: 0x200E1, offset: 0x200E1, size: 0x8, addend: 0x0, symName: __ZNSt3__16vectorIP6EntityNS_9allocatorIS2_EEE17__destruct_at_endB7v160006EPS2_, symObjAddr: 0xF870, symBinAddr: 0x10005DDF0, symSize: 0x60 }
  - { offsetInCU: 0x20124, offset: 0x20124, size: 0x8, addend: 0x0, symName: __ZNSt3__16vectorIP6EntityNS_9allocatorIS2_EEE27__invalidate_iterators_pastB7v160006EPS2_, symObjAddr: 0xF950, symBinAddr: 0x10005DED0, symSize: 0x10 }
  - { offsetInCU: 0x2015A, offset: 0x2015A, size: 0x8, addend: 0x0, symName: __ZNKSt3__111__wrap_iterIPKP6EntityE4baseB7v160006Ev, symObjAddr: 0xF960, symBinAddr: 0x10005DEE0, symSize: 0x20 }
  - { offsetInCU: 0x201A2, offset: 0x201A2, size: 0x8, addend: 0x0, symName: __ZNKSt3__114__move_trivialclB7v160006IP6EntityS3_Li0EEENS_4pairIPT_PT0_EES6_S6_S8_, symObjAddr: 0xFB40, symBinAddr: 0x10005E0C0, symSize: 0x40 }
  - { offsetInCU: 0x2020E, offset: 0x2020E, size: 0x8, addend: 0x0, symName: __ZNSt3__14pairIPP6EntityS3_EC1B7v160006IRS3_S3_LPv0EEEOT_OT0_, symObjAddr: 0xFCE0, symBinAddr: 0x10005E260, symSize: 0x30 }
  - { offsetInCU: 0x2026B, offset: 0x2026B, size: 0x8, addend: 0x0, symName: __ZNSt3__14pairIPP6EntityS3_EC2B7v160006IRS3_S3_LPv0EEEOT_OT0_, symObjAddr: 0xFD10, symBinAddr: 0x10005E290, symSize: 0x30 }
  - { offsetInCU: 0x202C8, offset: 0x202C8, size: 0x8, addend: 0x0, symName: __ZNSt3__118__unwrap_iter_implIPP6EntityLb1EE8__unwrapB7v160006ES3_, symObjAddr: 0xFD40, symBinAddr: 0x10005E2C0, symSize: 0x20 }
  - { offsetInCU: 0x202EB, offset: 0x202EB, size: 0x8, addend: 0x0, symName: __ZNSt3__14pairIPP6EntityS3_EC1B7v160006IS3_S3_LPv0EEEOT_OT0_, symObjAddr: 0xFD60, symBinAddr: 0x10005E2E0, symSize: 0x30 }
  - { offsetInCU: 0x20348, offset: 0x20348, size: 0x8, addend: 0x0, symName: __ZNSt3__14pairIPP6EntityS3_EC2B7v160006IS3_S3_LPv0EEEOT_OT0_, symObjAddr: 0xFD90, symBinAddr: 0x10005E310, symSize: 0x30 }
  - { offsetInCU: 0x203A5, offset: 0x203A5, size: 0x8, addend: 0x0, symName: __ZNSt3__118__unwrap_iter_implIPP6EntityLb1EE8__rewrapB7v160006ES3_S3_, symObjAddr: 0xFDC0, symBinAddr: 0x10005E340, symSize: 0x50 }
  - { offsetInCU: 0x203D6, offset: 0x203D6, size: 0x8, addend: 0x0, symName: __ZNSt3__111__wrap_iterIPKP6EntityEC2B7v160006IPS2_EERKNS0_IT_EEPNS_9enable_ifIXsr14is_convertibleIS8_S4_EE5valueEvE4typeE, symObjAddr: 0xFE10, symBinAddr: 0x10005E390, symSize: 0x40 }
  - { offsetInCU: 0x20421, offset: 0x20421, size: 0x8, addend: 0x0, symName: __ZNSt3__16vectorIP6EntityNS_9allocatorIS2_EEE9__end_capB7v160006Ev, symObjAddr: 0xFE50, symBinAddr: 0x10005E3D0, symSize: 0x20 }
  - { offsetInCU: 0x20446, offset: 0x20446, size: 0x8, addend: 0x0, symName: __ZNSt3__16vectorIP6EntityNS_9allocatorIS2_EEE22__construct_one_at_endB7v160006IJRKS2_EEEvDpOT_, symObjAddr: 0xFE70, symBinAddr: 0x10005E3F0, symSize: 0x90 }
  - { offsetInCU: 0x20494, offset: 0x20494, size: 0x8, addend: 0x0, symName: __ZNSt3__16vectorIP6EntityNS_9allocatorIS2_EEE21__push_back_slow_pathIRKS2_EEvOT_, symObjAddr: 0xFF00, symBinAddr: 0x10005E480, symSize: 0xD0 }
  - { offsetInCU: 0x204F1, offset: 0x204F1, size: 0x8, addend: 0x0, symName: __ZNSt3__117__compressed_pairIPP6EntityNS_9allocatorIS2_EEE5firstB7v160006Ev, symObjAddr: 0xFFD0, symBinAddr: 0x10005E550, symSize: 0x20 }
  - { offsetInCU: 0x20516, offset: 0x20516, size: 0x8, addend: 0x0, symName: __ZNSt3__122__compressed_pair_elemIPP6EntityLi0ELb0EE5__getB7v160006Ev, symObjAddr: 0xFFF0, symBinAddr: 0x10005E570, symSize: 0x10 }
  - { offsetInCU: 0x20554, offset: 0x20554, size: 0x8, addend: 0x0, symName: __ZNSt3__16vectorIP6EntityNS_9allocatorIS2_EEE21_ConstructTransactionC1B7v160006ERS5_m, symObjAddr: 0x10000, symBinAddr: 0x10005E580, symSize: 0x30 }
  - { offsetInCU: 0x2059B, offset: 0x2059B, size: 0x8, addend: 0x0, symName: __ZNSt3__116allocator_traitsINS_9allocatorIP6EntityEEE9constructB7v160006IS3_JRKS3_EvEEvRS4_PT_DpOT0_, symObjAddr: 0x10030, symBinAddr: 0x10005E5B0, symSize: 0x30 }
  - { offsetInCU: 0x205F2, offset: 0x205F2, size: 0x8, addend: 0x0, symName: __ZNSt3__16vectorIP6EntityNS_9allocatorIS2_EEE21_ConstructTransactionD1B7v160006Ev, symObjAddr: 0x10060, symBinAddr: 0x10005E5E0, symSize: 0x20 }
  - { offsetInCU: 0x2061B, offset: 0x2061B, size: 0x8, addend: 0x0, symName: __ZNSt3__16vectorIP6EntityNS_9allocatorIS2_EEE21_ConstructTransactionC2B7v160006ERS5_m, symObjAddr: 0x10080, symBinAddr: 0x10005E600, symSize: 0x40 }
  - { offsetInCU: 0x20662, offset: 0x20662, size: 0x8, addend: 0x0, symName: __ZNSt3__19allocatorIP6EntityE9constructB7v160006IS2_JRKS2_EEEvPT_DpOT0_, symObjAddr: 0x100C0, symBinAddr: 0x10005E640, symSize: 0x20 }
  - { offsetInCU: 0x206B7, offset: 0x206B7, size: 0x8, addend: 0x0, symName: __ZNSt3__16vectorIP6EntityNS_9allocatorIS2_EEE21_ConstructTransactionD2B7v160006Ev, symObjAddr: 0x100E0, symBinAddr: 0x10005E660, symSize: 0x20 }
  - { offsetInCU: 0x206E0, offset: 0x206E0, size: 0x8, addend: 0x0, symName: __ZNKSt3__16vectorIP6EntityNS_9allocatorIS2_EEE11__recommendB7v160006Em, symObjAddr: 0x10100, symBinAddr: 0x10005E680, symSize: 0xA0 }
  - { offsetInCU: 0x20734, offset: 0x20734, size: 0x8, addend: 0x0, symName: __ZNSt3__114__split_bufferIP6EntityRNS_9allocatorIS2_EEEC1EmmS5_, symObjAddr: 0x101A0, symBinAddr: 0x10005E720, symSize: 0x40 }
  - { offsetInCU: 0x20789, offset: 0x20789, size: 0x8, addend: 0x0, symName: __ZNSt3__114__split_bufferIP6EntityRNS_9allocatorIS2_EEED1Ev, symObjAddr: 0x10310, symBinAddr: 0x10005E890, symSize: 0x20 }
  - { offsetInCU: 0x207B4, offset: 0x207B4, size: 0x8, addend: 0x0, symName: __ZNKSt3__16vectorIP6EntityNS_9allocatorIS2_EEE8max_sizeEv, symObjAddr: 0x10330, symBinAddr: 0x10005E8B0, symSize: 0x60 }
  - { offsetInCU: 0x207DB, offset: 0x207DB, size: 0x8, addend: 0x0, symName: __ZNKSt3__16vectorIP6EntityNS_9allocatorIS2_EEE20__throw_length_errorB7v160006Ev, symObjAddr: 0x10390, symBinAddr: 0x10005E910, symSize: 0x20 }
  - { offsetInCU: 0x2080A, offset: 0x2080A, size: 0x8, addend: 0x0, symName: __ZNSt3__116allocator_traitsINS_9allocatorIP6EntityEEE8max_sizeB7v160006IS4_vEEmRKS4_, symObjAddr: 0x103B0, symBinAddr: 0x10005E930, symSize: 0x20 }
  - { offsetInCU: 0x20838, offset: 0x20838, size: 0x8, addend: 0x0, symName: __ZNKSt3__16vectorIP6EntityNS_9allocatorIS2_EEE7__allocB7v160006Ev, symObjAddr: 0x103D0, symBinAddr: 0x10005E950, symSize: 0x20 }
  - { offsetInCU: 0x2085D, offset: 0x2085D, size: 0x8, addend: 0x0, symName: __ZNKSt3__19allocatorIP6EntityE8max_sizeB7v160006Ev, symObjAddr: 0x103F0, symBinAddr: 0x10005E970, symSize: 0x20 }
  - { offsetInCU: 0x20882, offset: 0x20882, size: 0x8, addend: 0x0, symName: __ZNKSt3__117__compressed_pairIPP6EntityNS_9allocatorIS2_EEE6secondB7v160006Ev, symObjAddr: 0x10410, symBinAddr: 0x10005E990, symSize: 0x20 }
  - { offsetInCU: 0x208A7, offset: 0x208A7, size: 0x8, addend: 0x0, symName: __ZNKSt3__122__compressed_pair_elemINS_9allocatorIP6EntityEELi1ELb1EE5__getB7v160006Ev, symObjAddr: 0x10430, symBinAddr: 0x10005E9B0, symSize: 0x10 }
  - { offsetInCU: 0x208CC, offset: 0x208CC, size: 0x8, addend: 0x0, symName: __ZNSt3__114__split_bufferIP6EntityRNS_9allocatorIS2_EEEC2EmmS5_, symObjAddr: 0x10440, symBinAddr: 0x10005E9C0, symSize: 0xD0 }
  - { offsetInCU: 0x2093E, offset: 0x2093E, size: 0x8, addend: 0x0, symName: __ZNSt3__117__compressed_pairIPP6EntityRNS_9allocatorIS2_EEEC1B7v160006IDnS6_EEOT_OT0_, symObjAddr: 0x10510, symBinAddr: 0x10005EA90, symSize: 0x30 }
  - { offsetInCU: 0x20995, offset: 0x20995, size: 0x8, addend: 0x0, symName: __ZNSt3__114__split_bufferIP6EntityRNS_9allocatorIS2_EEE7__allocB7v160006Ev, symObjAddr: 0x10580, symBinAddr: 0x10005EB00, symSize: 0x20 }
  - { offsetInCU: 0x209BA, offset: 0x209BA, size: 0x8, addend: 0x0, symName: __ZNSt3__114__split_bufferIP6EntityRNS_9allocatorIS2_EEE9__end_capB7v160006Ev, symObjAddr: 0x105A0, symBinAddr: 0x10005EB20, symSize: 0x20 }
  - { offsetInCU: 0x209DF, offset: 0x209DF, size: 0x8, addend: 0x0, symName: __ZNSt3__117__compressed_pairIPP6EntityRNS_9allocatorIS2_EEEC2B7v160006IDnS6_EEOT_OT0_, symObjAddr: 0x105C0, symBinAddr: 0x10005EB40, symSize: 0x40 }
  - { offsetInCU: 0x20A36, offset: 0x20A36, size: 0x8, addend: 0x0, symName: __ZNSt3__122__compressed_pair_elemIRNS_9allocatorIP6EntityEELi1ELb0EEC2B7v160006IS5_vEEOT_, symObjAddr: 0x10600, symBinAddr: 0x10005EB80, symSize: 0x20 }
  - { offsetInCU: 0x20A77, offset: 0x20A77, size: 0x8, addend: 0x0, symName: __ZNSt3__19allocatorIP6EntityE8allocateB7v160006Em, symObjAddr: 0x10620, symBinAddr: 0x10005EBA0, symSize: 0x50 }
  - { offsetInCU: 0x20AAA, offset: 0x20AAA, size: 0x8, addend: 0x0, symName: __ZNSt3__117__compressed_pairIPP6EntityRNS_9allocatorIS2_EEE6secondB7v160006Ev, symObjAddr: 0x10670, symBinAddr: 0x10005EBF0, symSize: 0x20 }
  - { offsetInCU: 0x20ACF, offset: 0x20ACF, size: 0x8, addend: 0x0, symName: __ZNSt3__122__compressed_pair_elemIRNS_9allocatorIP6EntityEELi1ELb0EE5__getB7v160006Ev, symObjAddr: 0x10690, symBinAddr: 0x10005EC10, symSize: 0x20 }
  - { offsetInCU: 0x20AF4, offset: 0x20AF4, size: 0x8, addend: 0x0, symName: __ZNSt3__117__compressed_pairIPP6EntityRNS_9allocatorIS2_EEE5firstB7v160006Ev, symObjAddr: 0x106B0, symBinAddr: 0x10005EC30, symSize: 0x20 }
  - { offsetInCU: 0x20B19, offset: 0x20B19, size: 0x8, addend: 0x0, symName: __ZNSt3__116reverse_iteratorIPP6EntityEC1B7v160006ES3_, symObjAddr: 0x10740, symBinAddr: 0x10005ECC0, symSize: 0x30 }
  - { offsetInCU: 0x20B50, offset: 0x20B50, size: 0x8, addend: 0x0, symName: __ZNKSt3__116reverse_iteratorIPP6EntityE4baseB7v160006Ev, symObjAddr: 0x10770, symBinAddr: 0x10005ECF0, symSize: 0x20 }
  - { offsetInCU: 0x20B75, offset: 0x20B75, size: 0x8, addend: 0x0, symName: __ZNKSt3__16vectorIP6EntityNS_9allocatorIS2_EEE14__annotate_newB7v160006Em, symObjAddr: 0x107D0, symBinAddr: 0x10005ED50, symSize: 0xB0 }
  - { offsetInCU: 0x20BC2, offset: 0x20BC2, size: 0x8, addend: 0x0, symName: __ZNKSt3__111__move_loopINS_17_ClassicAlgPolicyEEclB7v160006INS_16reverse_iteratorIPP6EntityEES8_S8_EENS_4pairIT_T1_EESA_T0_SB_, symObjAddr: 0x10CC0, symBinAddr: 0x10005F240, symSize: 0xA0 }
  - { offsetInCU: 0x20C31, offset: 0x20C31, size: 0x8, addend: 0x0, symName: __ZNSt3__18_IterOpsINS_17_ClassicAlgPolicyEE11__iter_moveB7v160006IRNS_16reverse_iteratorIPP6EntityEEEENS_9enable_ifIXsr12is_referenceIDTdeclsr3stdE7declvalIRT_EEEEE5valueEDTclsr3stdE4movedeclsr3stdE7declvalISC_EEEEE4typeEOSB_, symObjAddr: 0x10EE0, symBinAddr: 0x10005F460, symSize: 0x20 }
  - { offsetInCU: 0x20C5D, offset: 0x20C5D, size: 0x8, addend: 0x0, symName: __ZNKSt3__116reverse_iteratorIPP6EntityEdeB7v160006Ev, symObjAddr: 0x10F00, symBinAddr: 0x10005F480, symSize: 0x30 }
  - { offsetInCU: 0x20C90, offset: 0x20C90, size: 0x8, addend: 0x0, symName: __ZNSt3__116reverse_iteratorIPP6EntityEppB7v160006Ev, symObjAddr: 0x10F30, symBinAddr: 0x10005F4B0, symSize: 0x20 }
  - { offsetInCU: 0x20CB5, offset: 0x20CB5, size: 0x8, addend: 0x0, symName: __ZNSt3__18_IterOpsINS_17_ClassicAlgPolicyEE25__validate_iter_referenceB7v160006IRNS_16reverse_iteratorIPP6EntityEEEEvv, symObjAddr: 0x10F50, symBinAddr: 0x10005F4D0, symSize: 0x10 }
  - { offsetInCU: 0x20CD3, offset: 0x20CD3, size: 0x8, addend: 0x0, symName: __ZNSt3__118__unwrap_iter_implINS_16reverse_iteratorIPP6EntityEELb0EE8__unwrapB7v160006ES5_, symObjAddr: 0x10F60, symBinAddr: 0x10005F4E0, symSize: 0x20 }
  - { offsetInCU: 0x20CFB, offset: 0x20CFB, size: 0x8, addend: 0x0, symName: __ZNSt3__14pairINS_16reverse_iteratorIPP6EntityEES5_EC1B7v160006IS5_S5_LPv0EEEOT_OT0_, symObjAddr: 0x10F80, symBinAddr: 0x10005F500, symSize: 0x30 }
  - { offsetInCU: 0x20D58, offset: 0x20D58, size: 0x8, addend: 0x0, symName: __ZNSt3__14pairINS_16reverse_iteratorIPP6EntityEES5_EC2B7v160006IS5_S5_LPv0EEEOT_OT0_, symObjAddr: 0x10FB0, symBinAddr: 0x10005F530, symSize: 0x40 }
  - { offsetInCU: 0x20DB5, offset: 0x20DB5, size: 0x8, addend: 0x0, symName: __ZNSt3__118__unwrap_iter_implINS_16reverse_iteratorIPP6EntityEELb0EE8__rewrapB7v160006ES5_S5_, symObjAddr: 0x10FF0, symBinAddr: 0x10005F570, symSize: 0x30 }
  - { offsetInCU: 0x20DE3, offset: 0x20DE3, size: 0x8, addend: 0x0, symName: __ZNSt3__116reverse_iteratorIPP6EntityEC2B7v160006ES3_, symObjAddr: 0x11020, symBinAddr: 0x10005F5A0, symSize: 0x30 }
  - { offsetInCU: 0x20E1A, offset: 0x20E1A, size: 0x8, addend: 0x0, symName: __ZNSt3__114__split_bufferIP6EntityRNS_9allocatorIS2_EEED2Ev, symObjAddr: 0x11050, symBinAddr: 0x10005F5D0, symSize: 0x70 }
  - { offsetInCU: 0x20E45, offset: 0x20E45, size: 0x8, addend: 0x0, symName: __ZNSt3__114__split_bufferIP6EntityRNS_9allocatorIS2_EEE5clearB7v160006Ev, symObjAddr: 0x110C0, symBinAddr: 0x10005F640, symSize: 0x20 }
  - { offsetInCU: 0x20E6A, offset: 0x20E6A, size: 0x8, addend: 0x0, symName: __ZNKSt3__114__split_bufferIP6EntityRNS_9allocatorIS2_EEE8capacityB7v160006Ev, symObjAddr: 0x110E0, symBinAddr: 0x10005F660, symSize: 0x30 }
  - { offsetInCU: 0x20E8F, offset: 0x20E8F, size: 0x8, addend: 0x0, symName: __ZNSt3__114__split_bufferIP6EntityRNS_9allocatorIS2_EEE17__destruct_at_endB7v160006EPS2_, symObjAddr: 0x11110, symBinAddr: 0x10005F690, symSize: 0x30 }
  - { offsetInCU: 0x20EC2, offset: 0x20EC2, size: 0x8, addend: 0x0, symName: __ZNSt3__114__split_bufferIP6EntityRNS_9allocatorIS2_EEE17__destruct_at_endB7v160006EPS2_NS_17integral_constantIbLb0EEE, symObjAddr: 0x11140, symBinAddr: 0x10005F6C0, symSize: 0x80 }
  - { offsetInCU: 0x20F02, offset: 0x20F02, size: 0x8, addend: 0x0, symName: __ZNKSt3__114__split_bufferIP6EntityRNS_9allocatorIS2_EEE9__end_capB7v160006Ev, symObjAddr: 0x111C0, symBinAddr: 0x10005F740, symSize: 0x20 }
  - { offsetInCU: 0x20F27, offset: 0x20F27, size: 0x8, addend: 0x0, symName: __ZNKSt3__117__compressed_pairIPP6EntityRNS_9allocatorIS2_EEE5firstB7v160006Ev, symObjAddr: 0x111E0, symBinAddr: 0x10005F760, symSize: 0x20 }
  - { offsetInCU: 0x20F4C, offset: 0x20F4C, size: 0x8, addend: 0x0, symName: __ZNSt3__16vectorIP6EntityNS_9allocatorIS2_EEEC2ERKS5_, symObjAddr: 0x11200, symBinAddr: 0x10005F780, symSize: 0x110 }
  - { offsetInCU: 0x20FAB, offset: 0x20FAB, size: 0x8, addend: 0x0, symName: __ZNSt3__116allocator_traitsINS_9allocatorIP6EntityEEE37select_on_container_copy_constructionB7v160006IS4_vvEES4_RKS4_, symObjAddr: 0x11310, symBinAddr: 0x10005F890, symSize: 0x10 }
  - { offsetInCU: 0x20FDF, offset: 0x20FDF, size: 0x8, addend: 0x0, symName: __ZNSt3__117__compressed_pairIPP6EntityNS_9allocatorIS2_EEEC1B7v160006IDnS5_EEOT_OT0_, symObjAddr: 0x11320, symBinAddr: 0x10005F8A0, symSize: 0x30 }
  - { offsetInCU: 0x21036, offset: 0x21036, size: 0x8, addend: 0x0, symName: __ZNSt3__16vectorIP6EntityNS_9allocatorIS2_EEE11__vallocateB7v160006Em, symObjAddr: 0x11390, symBinAddr: 0x10005F910, symSize: 0xA0 }
  - { offsetInCU: 0x21079, offset: 0x21079, size: 0x8, addend: 0x0, symName: __ZNSt3__16vectorIP6EntityNS_9allocatorIS2_EEE18__construct_at_endIPS2_Li0EEEvT_S8_m, symObjAddr: 0x11430, symBinAddr: 0x10005F9B0, symSize: 0x90 }
  - { offsetInCU: 0x210EB, offset: 0x210EB, size: 0x8, addend: 0x0, symName: __ZNSt3__128__exception_guard_exceptionsINS_6vectorIP6EntityNS_9allocatorIS3_EEE16__destroy_vectorEE10__completeB7v160006Ev, symObjAddr: 0x114C0, symBinAddr: 0x10005FA40, symSize: 0x20 }
  - { offsetInCU: 0x21110, offset: 0x21110, size: 0x8, addend: 0x0, symName: __ZNSt3__128__exception_guard_exceptionsINS_6vectorIP6EntityNS_9allocatorIS3_EEE16__destroy_vectorEED1B7v160006Ev, symObjAddr: 0x114E0, symBinAddr: 0x10005FA60, symSize: 0x20 }
  - { offsetInCU: 0x21139, offset: 0x21139, size: 0x8, addend: 0x0, symName: __ZNSt3__117__compressed_pairIPP6EntityNS_9allocatorIS2_EEEC2B7v160006IDnS5_EEOT_OT0_, symObjAddr: 0x11500, symBinAddr: 0x10005FA80, symSize: 0x40 }
  - { offsetInCU: 0x21190, offset: 0x21190, size: 0x8, addend: 0x0, symName: __ZNSt3__122__compressed_pair_elemINS_9allocatorIP6EntityEELi1ELb1EEC2B7v160006IS4_vEEOT_, symObjAddr: 0x11540, symBinAddr: 0x10005FAC0, symSize: 0x10 }
  - { offsetInCU: 0x211D1, offset: 0x211D1, size: 0x8, addend: 0x0, symName: __ZNSt3__128__exception_guard_exceptionsINS_6vectorIP6EntityNS_9allocatorIS3_EEE16__destroy_vectorEEC1B7v160006ES7_, symObjAddr: 0x11550, symBinAddr: 0x10005FAD0, symSize: 0x30 }
  - { offsetInCU: 0x21208, offset: 0x21208, size: 0x8, addend: 0x0, symName: __ZNSt3__128__exception_guard_exceptionsINS_6vectorIP6EntityNS_9allocatorIS3_EEE16__destroy_vectorEEC2B7v160006ES7_, symObjAddr: 0x11580, symBinAddr: 0x10005FB00, symSize: 0x20 }
  - { offsetInCU: 0x2123F, offset: 0x2123F, size: 0x8, addend: 0x0, symName: __ZNSt3__129_AllocatorDestroyRangeReverseINS_9allocatorIP6EntityEEPS3_EC1B7v160006ERS4_RS5_S8_, symObjAddr: 0x11700, symBinAddr: 0x10005FC80, symSize: 0x40 }
  - { offsetInCU: 0x21295, offset: 0x21295, size: 0x8, addend: 0x0, symName: __ZNSt3__116allocator_traitsINS_9allocatorIP6EntityEEE9constructB7v160006IS3_JRS3_EvEEvRS4_PT_DpOT0_, symObjAddr: 0x11740, symBinAddr: 0x10005FCC0, symSize: 0x30 }
  - { offsetInCU: 0x212EC, offset: 0x212EC, size: 0x8, addend: 0x0, symName: __ZNSt3__128__exception_guard_exceptionsINS_29_AllocatorDestroyRangeReverseINS_9allocatorIP6EntityEEPS4_EEE10__completeB7v160006Ev, symObjAddr: 0x11770, symBinAddr: 0x10005FCF0, symSize: 0x20 }
  - { offsetInCU: 0x21311, offset: 0x21311, size: 0x8, addend: 0x0, symName: __ZNSt3__128__exception_guard_exceptionsINS_29_AllocatorDestroyRangeReverseINS_9allocatorIP6EntityEEPS4_EEED1B7v160006Ev, symObjAddr: 0x11790, symBinAddr: 0x10005FD10, symSize: 0x20 }
  - { offsetInCU: 0x2133A, offset: 0x2133A, size: 0x8, addend: 0x0, symName: __ZNSt3__128__exception_guard_exceptionsINS_29_AllocatorDestroyRangeReverseINS_9allocatorIP6EntityEEPS4_EEEC1B7v160006ES7_, symObjAddr: 0x117B0, symBinAddr: 0x10005FD30, symSize: 0x40 }
  - { offsetInCU: 0x21371, offset: 0x21371, size: 0x8, addend: 0x0, symName: __ZNSt3__128__exception_guard_exceptionsINS_29_AllocatorDestroyRangeReverseINS_9allocatorIP6EntityEEPS4_EEEC2B7v160006ES7_, symObjAddr: 0x117F0, symBinAddr: 0x10005FD70, symSize: 0x30 }
  - { offsetInCU: 0x213A8, offset: 0x213A8, size: 0x8, addend: 0x0, symName: __ZNSt3__129_AllocatorDestroyRangeReverseINS_9allocatorIP6EntityEEPS3_EC2B7v160006ERS4_RS5_S8_, symObjAddr: 0x11820, symBinAddr: 0x10005FDA0, symSize: 0x40 }
  - { offsetInCU: 0x213FE, offset: 0x213FE, size: 0x8, addend: 0x0, symName: __ZNSt3__19allocatorIP6EntityE9constructB7v160006IS2_JRS2_EEEvPT_DpOT0_, symObjAddr: 0x11860, symBinAddr: 0x10005FDE0, symSize: 0x20 }
  - { offsetInCU: 0x21453, offset: 0x21453, size: 0x8, addend: 0x0, symName: __ZNSt3__128__exception_guard_exceptionsINS_29_AllocatorDestroyRangeReverseINS_9allocatorIP6EntityEEPS4_EEED2B7v160006Ev, symObjAddr: 0x11880, symBinAddr: 0x10005FE00, symSize: 0x40 }
  - { offsetInCU: 0x2147C, offset: 0x2147C, size: 0x8, addend: 0x0, symName: __ZNKSt3__129_AllocatorDestroyRangeReverseINS_9allocatorIP6EntityEEPS3_EclB7v160006Ev, symObjAddr: 0x118C0, symBinAddr: 0x10005FE40, symSize: 0x60 }
  - { offsetInCU: 0x214A6, offset: 0x214A6, size: 0x8, addend: 0x0, symName: __ZNSt3__119__to_address_helperINS_16reverse_iteratorIPP6EntityEEvE6__callB7v160006ERKS5_, symObjAddr: 0x119B0, symBinAddr: 0x10005FF30, symSize: 0x40 }
  - { offsetInCU: 0x214C9, offset: 0x214C9, size: 0x8, addend: 0x0, symName: __ZNKSt3__116reverse_iteratorIPP6EntityEptB7v160006Ev, symObjAddr: 0x119F0, symBinAddr: 0x10005FF70, symSize: 0x20 }
  - { offsetInCU: 0x214EE, offset: 0x214EE, size: 0x8, addend: 0x0, symName: __ZNSt3__128__exception_guard_exceptionsINS_6vectorIP6EntityNS_9allocatorIS3_EEE16__destroy_vectorEED2B7v160006Ev, symObjAddr: 0x11A10, symBinAddr: 0x10005FF90, symSize: 0x40 }
  - { offsetInCU: 0x21517, offset: 0x21517, size: 0x8, addend: 0x0, symName: __ZNSt3__16vectorIP6EntityNS_9allocatorIS2_EEE22__construct_one_at_endB7v160006IJS2_EEEvDpOT_, symObjAddr: 0x11A50, symBinAddr: 0x10005FFD0, symSize: 0x90 }
  - { offsetInCU: 0x21565, offset: 0x21565, size: 0x8, addend: 0x0, symName: __ZNSt3__16vectorIP6EntityNS_9allocatorIS2_EEE21__push_back_slow_pathIS2_EEvOT_, symObjAddr: 0x11AE0, symBinAddr: 0x100060060, symSize: 0xD0 }
  - { offsetInCU: 0x215C2, offset: 0x215C2, size: 0x8, addend: 0x0, symName: __ZNSt3__116allocator_traitsINS_9allocatorIP6EntityEEE9constructB7v160006IS3_JS3_EvEEvRS4_PT_DpOT0_, symObjAddr: 0x11BB0, symBinAddr: 0x100060130, symSize: 0x30 }
  - { offsetInCU: 0x21619, offset: 0x21619, size: 0x8, addend: 0x0, symName: __ZNSt3__19allocatorIP6EntityE9constructB7v160006IS2_JS2_EEEvPT_DpOT0_, symObjAddr: 0x11BE0, symBinAddr: 0x100060160, symSize: 0x20 }
  - { offsetInCU: 0x2166E, offset: 0x2166E, size: 0x8, addend: 0x0, symName: __ZNSt3__16vectorIP6EntityNS_9allocatorIS2_EEEC2B7v160006ESt16initializer_listIS2_E, symObjAddr: 0x11C00, symBinAddr: 0x100060180, symSize: 0x120 }
  - { offsetInCU: 0x216BD, offset: 0x216BD, size: 0x8, addend: 0x0, symName: __ZNKSt16initializer_listIP6EntityE4sizeB7v160006Ev, symObjAddr: 0x11D20, symBinAddr: 0x1000602A0, symSize: 0x20 }
  - { offsetInCU: 0x216E2, offset: 0x216E2, size: 0x8, addend: 0x0, symName: __ZNSt3__16vectorIP6EntityNS_9allocatorIS2_EEE18__construct_at_endIPKS2_Li0EEEvT_S9_m, symObjAddr: 0x11D40, symBinAddr: 0x1000602C0, symSize: 0x90 }
  - { offsetInCU: 0x21754, offset: 0x21754, size: 0x8, addend: 0x0, symName: __ZNKSt16initializer_listIP6EntityE5beginB7v160006Ev, symObjAddr: 0x11DD0, symBinAddr: 0x100060350, symSize: 0x20 }
  - { offsetInCU: 0x21779, offset: 0x21779, size: 0x8, addend: 0x0, symName: __ZNKSt16initializer_listIP6EntityE3endB7v160006Ev, symObjAddr: 0x11DF0, symBinAddr: 0x100060370, symSize: 0x20 }
  - { offsetInCU: 0x217C1, offset: 0x217C1, size: 0x8, addend: 0x0, symName: __ZNKSt3__114__copy_trivialclB7v160006IKP6EntityS3_Li0EEENS_4pairIPT_PT0_EES7_S7_S9_, symObjAddr: 0x12000, symBinAddr: 0x100060580, symSize: 0x40 }
  - { offsetInCU: 0x21846, offset: 0x21846, size: 0x8, addend: 0x0, symName: __ZNSt3__14pairIPKP6EntityS4_EC1B7v160006IS4_S4_LPv0EEEOT_OT0_, symObjAddr: 0x120F0, symBinAddr: 0x100060670, symSize: 0x30 }
  - { offsetInCU: 0x218A3, offset: 0x218A3, size: 0x8, addend: 0x0, symName: __ZNSt3__14pairIPKP6EntityS4_EC2B7v160006IS4_S4_LPv0EEEOT_OT0_, symObjAddr: 0x12120, symBinAddr: 0x1000606A0, symSize: 0x30 }
  - { offsetInCU: 0x21900, offset: 0x21900, size: 0x8, addend: 0x0, symName: __ZNSt3__118__unwrap_iter_implIPKP6EntityLb1EE8__unwrapB7v160006ES4_, symObjAddr: 0x12150, symBinAddr: 0x1000606D0, symSize: 0x20 }
  - { offsetInCU: 0x21928, offset: 0x21928, size: 0x8, addend: 0x0, symName: __ZNSt3__14pairIPKP6EntityPS2_EC1B7v160006IRS4_S5_LPv0EEEOT_OT0_, symObjAddr: 0x12220, symBinAddr: 0x1000607A0, symSize: 0x30 }
  - { offsetInCU: 0x21985, offset: 0x21985, size: 0x8, addend: 0x0, symName: __ZNSt3__14pairIPKP6EntityPS2_EC2B7v160006IRS4_S5_LPv0EEEOT_OT0_, symObjAddr: 0x12250, symBinAddr: 0x1000607D0, symSize: 0x30 }
  - { offsetInCU: 0x219E2, offset: 0x219E2, size: 0x8, addend: 0x0, symName: __ZNSt3__14pairIPKP6EntityPS2_EC1B7v160006IS4_S5_LPv0EEEOT_OT0_, symObjAddr: 0x12280, symBinAddr: 0x100060800, symSize: 0x30 }
  - { offsetInCU: 0x21A3F, offset: 0x21A3F, size: 0x8, addend: 0x0, symName: __ZNSt3__14pairIPKP6EntityPS2_EC2B7v160006IS4_S5_LPv0EEEOT_OT0_, symObjAddr: 0x122B0, symBinAddr: 0x100060830, symSize: 0x30 }
  - { offsetInCU: 0x21A9C, offset: 0x21A9C, size: 0x8, addend: 0x0, symName: __ZNSt3__118__unwrap_iter_implIPKP6EntityLb1EE8__rewrapB7v160006ES4_S4_, symObjAddr: 0x12320, symBinAddr: 0x1000608A0, symSize: 0x50 }
  - { offsetInCU: 0x21ACD, offset: 0x21ACD, size: 0x8, addend: 0x0, symName: __ZNSt3__16vectorIfNS_9allocatorIfEEEC2B7v160006ESt16initializer_listIfE, symObjAddr: 0x12370, symBinAddr: 0x1000608F0, symSize: 0x120 }
  - { offsetInCU: 0x21B1C, offset: 0x21B1C, size: 0x8, addend: 0x0, symName: __ZNSt3__117__compressed_pairIPfNS_9allocatorIfEEEC1B7v160006IDnNS_18__default_init_tagEEEOT_OT0_, symObjAddr: 0x12490, symBinAddr: 0x100060A10, symSize: 0x30 }
  - { offsetInCU: 0x21B73, offset: 0x21B73, size: 0x8, addend: 0x0, symName: __ZNKSt16initializer_listIfE4sizeB7v160006Ev, symObjAddr: 0x12510, symBinAddr: 0x100060A90, symSize: 0x20 }
  - { offsetInCU: 0x21B98, offset: 0x21B98, size: 0x8, addend: 0x0, symName: __ZNSt3__16vectorIfNS_9allocatorIfEEE11__vallocateB7v160006Em, symObjAddr: 0x12530, symBinAddr: 0x100060AB0, symSize: 0xA0 }
  - { offsetInCU: 0x21BDB, offset: 0x21BDB, size: 0x8, addend: 0x0, symName: __ZNSt3__16vectorIfNS_9allocatorIfEEE18__construct_at_endIPKfLi0EEEvT_S7_m, symObjAddr: 0x125D0, symBinAddr: 0x100060B50, symSize: 0x90 }
  - { offsetInCU: 0x21C4D, offset: 0x21C4D, size: 0x8, addend: 0x0, symName: __ZNKSt16initializer_listIfE5beginB7v160006Ev, symObjAddr: 0x12660, symBinAddr: 0x100060BE0, symSize: 0x20 }
  - { offsetInCU: 0x21C72, offset: 0x21C72, size: 0x8, addend: 0x0, symName: __ZNKSt16initializer_listIfE3endB7v160006Ev, symObjAddr: 0x12680, symBinAddr: 0x100060C00, symSize: 0x20 }
  - { offsetInCU: 0x21C97, offset: 0x21C97, size: 0x8, addend: 0x0, symName: __ZNSt3__128__exception_guard_exceptionsINS_6vectorIfNS_9allocatorIfEEE16__destroy_vectorEE10__completeB7v160006Ev, symObjAddr: 0x126A0, symBinAddr: 0x100060C20, symSize: 0x20 }
  - { offsetInCU: 0x21CBC, offset: 0x21CBC, size: 0x8, addend: 0x0, symName: __ZNSt3__128__exception_guard_exceptionsINS_6vectorIfNS_9allocatorIfEEE16__destroy_vectorEED1B7v160006Ev, symObjAddr: 0x126C0, symBinAddr: 0x100060C40, symSize: 0x20 }
  - { offsetInCU: 0x21CE5, offset: 0x21CE5, size: 0x8, addend: 0x0, symName: __ZNSt3__117__compressed_pairIPfNS_9allocatorIfEEEC2B7v160006IDnNS_18__default_init_tagEEEOT_OT0_, symObjAddr: 0x126E0, symBinAddr: 0x100060C60, symSize: 0x40 }
  - { offsetInCU: 0x21D3C, offset: 0x21D3C, size: 0x8, addend: 0x0, symName: __ZNSt3__122__compressed_pair_elemIPfLi0ELb0EEC2B7v160006IDnvEEOT_, symObjAddr: 0x12720, symBinAddr: 0x100060CA0, symSize: 0x20 }
  - { offsetInCU: 0x21D7D, offset: 0x21D7D, size: 0x8, addend: 0x0, symName: __ZNSt3__122__compressed_pair_elemINS_9allocatorIfEELi1ELb1EEC2B7v160006ENS_18__default_init_tagE, symObjAddr: 0x12740, symBinAddr: 0x100060CC0, symSize: 0x20 }
  - { offsetInCU: 0x21DB1, offset: 0x21DB1, size: 0x8, addend: 0x0, symName: __ZNSt3__19allocatorIfEC2B7v160006Ev, symObjAddr: 0x12760, symBinAddr: 0x100060CE0, symSize: 0x20 }
  - { offsetInCU: 0x21DDA, offset: 0x21DDA, size: 0x8, addend: 0x0, symName: __ZNSt3__116__non_trivial_ifILb1ENS_9allocatorIfEEEC2B7v160006Ev, symObjAddr: 0x12780, symBinAddr: 0x100060D00, symSize: 0x10 }
  - { offsetInCU: 0x21E03, offset: 0x21E03, size: 0x8, addend: 0x0, symName: __ZNSt3__128__exception_guard_exceptionsINS_6vectorIfNS_9allocatorIfEEE16__destroy_vectorEEC1B7v160006ES5_, symObjAddr: 0x12790, symBinAddr: 0x100060D10, symSize: 0x30 }
  - { offsetInCU: 0x21E3A, offset: 0x21E3A, size: 0x8, addend: 0x0, symName: __ZNSt3__128__exception_guard_exceptionsINS_6vectorIfNS_9allocatorIfEEE16__destroy_vectorEEC2B7v160006ES5_, symObjAddr: 0x127C0, symBinAddr: 0x100060D40, symSize: 0x20 }
  - { offsetInCU: 0x21E71, offset: 0x21E71, size: 0x8, addend: 0x0, symName: __ZNKSt3__16vectorIfNS_9allocatorIfEEE8max_sizeEv, symObjAddr: 0x127E0, symBinAddr: 0x100060D60, symSize: 0x60 }
  - { offsetInCU: 0x21E98, offset: 0x21E98, size: 0x8, addend: 0x0, symName: __ZNKSt3__16vectorIfNS_9allocatorIfEEE20__throw_length_errorB7v160006Ev, symObjAddr: 0x12840, symBinAddr: 0x100060DC0, symSize: 0x20 }
  - { offsetInCU: 0x21EBD, offset: 0x21EBD, size: 0x8, addend: 0x0, symName: __ZNSt3__16vectorIfNS_9allocatorIfEEE9__end_capB7v160006Ev, symObjAddr: 0x128A0, symBinAddr: 0x100060E20, symSize: 0x20 }
  - { offsetInCU: 0x21EE2, offset: 0x21EE2, size: 0x8, addend: 0x0, symName: __ZNKSt3__16vectorIfNS_9allocatorIfEEE14__annotate_newB7v160006Em, symObjAddr: 0x128C0, symBinAddr: 0x100060E40, symSize: 0xB0 }
  - { offsetInCU: 0x21F20, offset: 0x21F20, size: 0x8, addend: 0x0, symName: __ZNSt3__116allocator_traitsINS_9allocatorIfEEE8max_sizeB7v160006IS2_vEEmRKS2_, symObjAddr: 0x12970, symBinAddr: 0x100060EF0, symSize: 0x20 }
  - { offsetInCU: 0x21F4E, offset: 0x21F4E, size: 0x8, addend: 0x0, symName: __ZNKSt3__16vectorIfNS_9allocatorIfEEE7__allocB7v160006Ev, symObjAddr: 0x12990, symBinAddr: 0x100060F10, symSize: 0x20 }
  - { offsetInCU: 0x21F73, offset: 0x21F73, size: 0x8, addend: 0x0, symName: __ZNKSt3__19allocatorIfE8max_sizeB7v160006Ev, symObjAddr: 0x129B0, symBinAddr: 0x100060F30, symSize: 0x20 }
  - { offsetInCU: 0x21F98, offset: 0x21F98, size: 0x8, addend: 0x0, symName: __ZNKSt3__117__compressed_pairIPfNS_9allocatorIfEEE6secondB7v160006Ev, symObjAddr: 0x129D0, symBinAddr: 0x100060F50, symSize: 0x20 }
  - { offsetInCU: 0x21FBD, offset: 0x21FBD, size: 0x8, addend: 0x0, symName: __ZNKSt3__122__compressed_pair_elemINS_9allocatorIfEELi1ELb1EE5__getB7v160006Ev, symObjAddr: 0x129F0, symBinAddr: 0x100060F70, symSize: 0x10 }
  - { offsetInCU: 0x21FE2, offset: 0x21FE2, size: 0x8, addend: 0x0, symName: __ZNSt3__19allocatorIfE8allocateB7v160006Em, symObjAddr: 0x12A00, symBinAddr: 0x100060F80, symSize: 0x50 }
  - { offsetInCU: 0x22015, offset: 0x22015, size: 0x8, addend: 0x0, symName: __ZNSt3__117__compressed_pairIPfNS_9allocatorIfEEE5firstB7v160006Ev, symObjAddr: 0x12A50, symBinAddr: 0x100060FD0, symSize: 0x20 }
  - { offsetInCU: 0x2203A, offset: 0x2203A, size: 0x8, addend: 0x0, symName: __ZNSt3__122__compressed_pair_elemIPfLi0ELb0EE5__getB7v160006Ev, symObjAddr: 0x12A70, symBinAddr: 0x100060FF0, symSize: 0x10 }
  - { offsetInCU: 0x22078, offset: 0x22078, size: 0x8, addend: 0x0, symName: __ZNSt3__16vectorIfNS_9allocatorIfEEE21_ConstructTransactionC1B7v160006ERS3_m, symObjAddr: 0x12A80, symBinAddr: 0x100061000, symSize: 0x30 }
  - { offsetInCU: 0x220BF, offset: 0x220BF, size: 0x8, addend: 0x0, symName: __ZNSt3__16vectorIfNS_9allocatorIfEEE21_ConstructTransactionD1B7v160006Ev, symObjAddr: 0x12AE0, symBinAddr: 0x100061060, symSize: 0x20 }
  - { offsetInCU: 0x220E8, offset: 0x220E8, size: 0x8, addend: 0x0, symName: __ZNSt3__16vectorIfNS_9allocatorIfEEE21_ConstructTransactionC2B7v160006ERS3_m, symObjAddr: 0x12B00, symBinAddr: 0x100061080, symSize: 0x40 }
  - { offsetInCU: 0x22148, offset: 0x22148, size: 0x8, addend: 0x0, symName: __ZNKSt3__114__copy_trivialclB7v160006IKffLi0EEENS_4pairIPT_PT0_EES5_S5_S7_, symObjAddr: 0x12D00, symBinAddr: 0x100061280, symSize: 0x40 }
  - { offsetInCU: 0x221CD, offset: 0x221CD, size: 0x8, addend: 0x0, symName: __ZNSt3__14pairIPKfS2_EC1B7v160006IS2_S2_LPv0EEEOT_OT0_, symObjAddr: 0x12E50, symBinAddr: 0x1000613D0, symSize: 0x30 }
  - { offsetInCU: 0x2222A, offset: 0x2222A, size: 0x8, addend: 0x0, symName: __ZNSt3__14pairIPKfS2_EC2B7v160006IS2_S2_LPv0EEEOT_OT0_, symObjAddr: 0x12E80, symBinAddr: 0x100061400, symSize: 0x30 }
  - { offsetInCU: 0x22287, offset: 0x22287, size: 0x8, addend: 0x0, symName: __ZNSt3__118__unwrap_iter_implIPKfLb1EE8__unwrapB7v160006ES2_, symObjAddr: 0x12EB0, symBinAddr: 0x100061430, symSize: 0x20 }
  - { offsetInCU: 0x222B4, offset: 0x222B4, size: 0x8, addend: 0x0, symName: __ZNSt3__14pairIPKfPfEC1B7v160006IRS2_S3_LPv0EEEOT_OT0_, symObjAddr: 0x12F80, symBinAddr: 0x100061500, symSize: 0x30 }
  - { offsetInCU: 0x22311, offset: 0x22311, size: 0x8, addend: 0x0, symName: __ZNSt3__14pairIPKfPfEC2B7v160006IRS2_S3_LPv0EEEOT_OT0_, symObjAddr: 0x12FB0, symBinAddr: 0x100061530, symSize: 0x30 }
  - { offsetInCU: 0x2236E, offset: 0x2236E, size: 0x8, addend: 0x0, symName: __ZNSt3__118__unwrap_iter_implIPfLb1EE8__unwrapB7v160006ES1_, symObjAddr: 0x12FE0, symBinAddr: 0x100061560, symSize: 0x20 }
  - { offsetInCU: 0x22391, offset: 0x22391, size: 0x8, addend: 0x0, symName: __ZNSt3__14pairIPKfPfEC1B7v160006IS2_S3_LPv0EEEOT_OT0_, symObjAddr: 0x13000, symBinAddr: 0x100061580, symSize: 0x30 }
  - { offsetInCU: 0x223EE, offset: 0x223EE, size: 0x8, addend: 0x0, symName: __ZNSt3__14pairIPKfPfEC2B7v160006IS2_S3_LPv0EEEOT_OT0_, symObjAddr: 0x13030, symBinAddr: 0x1000615B0, symSize: 0x30 }
  - { offsetInCU: 0x2244B, offset: 0x2244B, size: 0x8, addend: 0x0, symName: __ZNSt3__118__unwrap_iter_implIPKfLb1EE8__rewrapB7v160006ES2_S2_, symObjAddr: 0x130A0, symBinAddr: 0x100061620, symSize: 0x50 }
  - { offsetInCU: 0x2247C, offset: 0x2247C, size: 0x8, addend: 0x0, symName: __ZNSt3__118__unwrap_iter_implIPfLb1EE8__rewrapB7v160006ES1_S1_, symObjAddr: 0x130F0, symBinAddr: 0x100061670, symSize: 0x50 }
  - { offsetInCU: 0x224AD, offset: 0x224AD, size: 0x8, addend: 0x0, symName: __ZNSt3__16vectorIfNS_9allocatorIfEEE21_ConstructTransactionD2B7v160006Ev, symObjAddr: 0x13140, symBinAddr: 0x1000616C0, symSize: 0x20 }
  - { offsetInCU: 0x224D6, offset: 0x224D6, size: 0x8, addend: 0x0, symName: __ZNSt3__128__exception_guard_exceptionsINS_6vectorIfNS_9allocatorIfEEE16__destroy_vectorEED2B7v160006Ev, symObjAddr: 0x13160, symBinAddr: 0x1000616E0, symSize: 0x3F }
...
